source_filename = "test"
target datalayout = "e-m:e-p:64:64-i64:64-f80:128-n8:16:32:64-S128"

@global_var_1618 = constant [46 x i8] c"/usr/include/llvm-21/llvm/IR/DiagnosticInfo.h\00"
@global_var_1646 = constant [28 x i8] c"unknown SourceMgr::DiagKind\00"
@global_var_1662 = constant [28 x i8] c"deobfuscate-opaque-mba-pass\00"
@global_var_167e = constant [25 x i8] c"DeobfuscateOpaqueMBAPass\00"
@global_var_1697 = constant [6 x i8] c"0.1.0\00"
@global_var_4968 = global i64 0
@global_var_13c8 = constant [75 x i8] c"llvm::SmallPtrSetImplBase::SmallPtrSetImplBase(const void**, unsigned int)\00"
@global_var_1418 = constant [44 x i8] c"/usr/include/llvm-21/llvm/ADT/SmallPtrSet.h\00"
@global_var_1448 = constant [74 x i8] c"llvm::has_single_bit(SmallSize) && \22Initial size must be a power of two!\22\00"
@global_var_3f = local_unnamed_addr constant [3 x i8] c"%(\00"
@global_var_1498 = constant [56 x i8] c"void llvm::SmallPtrSetIteratorImpl::AdvanceIfNotValid()\00"
@global_var_14d0 = constant [14 x i8] c"Bucket <= End\00"
@global_var_14e0 = constant [56 x i8] c"void llvm::SmallPtrSetIteratorImpl::RetreatIfNotValid()\00"
@global_var_1518 = constant [14 x i8] c"Bucket >= End\00"
@global_var_16a0 = constant [309 x i8] c"llvm::ilist_iterator<OptionsT, IsReverse, IsConst>::reference llvm::ilist_iterator<OptionsT, IsReverse, IsConst>::operator*() const [with OptionsT = llvm::ilist_detail::node_options<llvm::DbgRecord, false, false, void, false, void>; bool IsReverse = false; bool IsConst = false; reference = llvm::DbgRecord&]\00"
@global_var_17d8 = constant [47 x i8] c"/usr/include/llvm-21/llvm/ADT/ilist_iterator.h\00"
@global_var_1807 = constant [28 x i8] c"!NodePtr->isKnownSentinel()\00"
@global_var_1828 = constant [26 x i8] c"vector::_M_realloc_insert\00"
@global_var_1986 = constant [50 x i8] c"deobfuscate_opaque_mba::DeobfuscateOpaqueMBAPass]\00"
@global_var_19b8 = constant [7 x i8] c"llvm::\00"
@0 = external global i32
@global_var_40 = constant i128* inttoptr (i64 -556888036579737560 to i128*)

define i64 @_GLOBAL_OFFSET_TABLE_.1(i64 %arg1, i64 %arg2) local_unnamed_addr {
dec_label_pc_0:
  %0 = inttoptr i64 %arg2 to i64*, !insn.addr !0
  %1 = call i1 @_ZN4llvm3isaINS_17DbgVariableRecordENS_9DbgRecordEEEbRKT0_(i64* %0), !insn.addr !0
  %2 = sext i1 %1 to i64, !insn.addr !0
  ret i64 %2, !insn.addr !1
}

define i64 @_ZN4llvm9map_rangeINS_14iterator_rangeINS_20filter_iterator_implINS_14ilist_iteratorINS_12ilist_detail12node_optionsINS_9DbgRecordELb0ELb0EvLb0EvEELb0ELb0EEEZNS_L13filterDbgVarsENS1_IS8_EEEUlRS6_E_St26bidirectional_iterator_tagEEEEZNS_L13filterDbgVarsES9_EUlSA_E0_EEDaOT_T0_(i64* %arg1, i64 %arg2) local_unnamed_addr {
dec_label_pc_1e:
  %0 = ptrtoint i64* %arg1 to i64
  %stack_var_-56 = alloca i64, align 8
  %stack_var_-120 = alloca i64, align 8
  %stack_var_-88 = alloca i64, align 8
  %stack_var_-152 = alloca i64, align 8
  %1 = call i64 @__readfsqword(i64 40), !insn.addr !2
  %2 = inttoptr i64 %arg2 to i64**, !insn.addr !3
  %3 = call i64 @_ZN4llvm7adl_endIRNS_14iterator_rangeINS_20filter_iterator_implINS_14ilist_iteratorINS_12ilist_detail12node_optionsINS_9DbgRecordELb0ELb0EvLb0EvEELb0ELb0EEEZNS_L13filterDbgVarsENS1_IS8_EEEUlRS6_E_St26bidirectional_iterator_tagEEEEEEDTcl8end_implcl7forwardIT_Efp_EEEOSG_(i64* nonnull %stack_var_-152, i64** %2), !insn.addr !3
  %4 = ptrtoint i64* %stack_var_-88 to i64, !insn.addr !4
  %5 = call i64 @_ZN4llvm12map_iteratorINS_20filter_iterator_implINS_14ilist_iteratorINS_12ilist_detail12node_optionsINS_9DbgRecordELb0ELb0EvLb0EvEELb0ELb0EEEZNS_L13filterDbgVarsENS_14iterator_rangeIS7_EEEUlRS5_E_St26bidirectional_iterator_tagEEZNS_L13filterDbgVarsES9_EUlSA_E0_EENS_15mapped_iteratorIT_T0_DTclcl7declvalISH_EEdecl7declvalISG_EEEEEESG_SH_(i64 %4, i64 ptrtoint (i32* @0 to i64)), !insn.addr !5
  %6 = call i64 @_ZN4llvm9adl_beginIRNS_14iterator_rangeINS_20filter_iterator_implINS_14ilist_iteratorINS_12ilist_detail12node_optionsINS_9DbgRecordELb0ELb0EvLb0EvEELb0ELb0EEEZNS_L13filterDbgVarsENS1_IS8_EEEUlRS6_E_St26bidirectional_iterator_tagEEEEEEDTcl10begin_implcl7forwardIT_Efp_EEEOSG_(i64* nonnull %stack_var_-120, i64** %2), !insn.addr !6
  %7 = ptrtoint i64* %stack_var_-56 to i64, !insn.addr !7
  %8 = call i64 @_ZN4llvm12map_iteratorINS_20filter_iterator_implINS_14ilist_iteratorINS_12ilist_detail12node_optionsINS_9DbgRecordELb0ELb0EvLb0EvEELb0ELb0EEEZNS_L13filterDbgVarsENS_14iterator_rangeIS7_EEEUlRS5_E_St26bidirectional_iterator_tagEEZNS_L13filterDbgVarsES9_EUlSA_E0_EENS_15mapped_iteratorIT_T0_DTclcl7declvalISH_EEdecl7declvalISG_EEEEEESG_SH_(i64 %7, i64 ptrtoint (i32* @0 to i64)), !insn.addr !8
  %9 = call i64 @_ZN4llvm10make_rangeINS_15mapped_iteratorINS_20filter_iterator_implINS_14ilist_iteratorINS_12ilist_detail12node_optionsINS_9DbgRecordELb0ELb0EvLb0EvEELb0ELb0EEEZNS_L13filterDbgVarsENS_14iterator_rangeIS8_EEEUlRS6_E_St26bidirectional_iterator_tagEEZNS_L13filterDbgVarsESA_EUlSB_E0_St17reference_wrapperINS_17DbgVariableRecordEEEEEENS9_IT_EESK_SK_(i64 %0, i64 ptrtoint (i32* @0 to i64)), !insn.addr !9
  %10 = call i64 @__readfsqword(i64 40), !insn.addr !10
  %11 = icmp eq i64 %1, %10, !insn.addr !10
  br i1 %11, label %dec_label_pc_157, label %dec_label_pc_152, !insn.addr !11

dec_label_pc_152:                                 ; preds = %dec_label_pc_1e
  %12 = call i64 @__stack_chk_fail(), !insn.addr !12
  br label %dec_label_pc_157, !insn.addr !12

dec_label_pc_157:                                 ; preds = %dec_label_pc_152, %dec_label_pc_1e
  ret i64 %0, !insn.addr !13

; uselistorder directives
  uselistorder i64 (i64, i64)* @_ZN4llvm12map_iteratorINS_20filter_iterator_implINS_14ilist_iteratorINS_12ilist_detail12node_optionsINS_9DbgRecordELb0ELb0EvLb0EvEELb0ELb0EEEZNS_L13filterDbgVarsENS_14iterator_rangeIS7_EEEUlRS5_E_St26bidirectional_iterator_tagEEZNS_L13filterDbgVarsES9_EUlSA_E0_EENS_15mapped_iteratorIT_T0_DTclcl7declvalISH_EEdecl7declvalISG_EEEEEESG_SH_, { 1, 0 }
}

define i64 @_ZN4llvmL21getDiagnosticSeverityENS_9SourceMgr8DiagKindE(i64 %arg1) local_unnamed_addr {
dec_label_pc_160:
  %rax.0.reg2mem = alloca i64, !insn.addr !14
  %0 = trunc i64 %arg1 to i32, !insn.addr !15
  %1 = icmp eq i32 %0, 3, !insn.addr !15
  store i64 3, i64* %rax.0.reg2mem, !insn.addr !16
  br i1 %1, label %dec_label_pc_1cb, label %dec_label_pc_177, !insn.addr !16

dec_label_pc_177:                                 ; preds = %dec_label_pc_160
  %2 = icmp sgt i32 %0, 3, !insn.addr !17
  br i1 %2, label %dec_label_pc_1ad, label %dec_label_pc_17c, !insn.addr !17

dec_label_pc_17c:                                 ; preds = %dec_label_pc_177
  store i64 2, i64* %rax.0.reg2mem
  switch i32 %0, label %dec_label_pc_1ad [
    i32 2, label %dec_label_pc_1cb
    i32 0, label %dec_label_pc_1cb.fold.split
    i32 1, label %dec_label_pc_198
  ]

dec_label_pc_198:                                 ; preds = %dec_label_pc_17c
  store i64 1, i64* %rax.0.reg2mem, !insn.addr !18
  br label %dec_label_pc_1cb, !insn.addr !18

dec_label_pc_1ad:                                 ; preds = %dec_label_pc_17c, %dec_label_pc_177
  %3 = call i64 @_ZN4llvm25llvm_unreachable_internalEPKcS1_j(i8* getelementptr inbounds ([28 x i8], [28 x i8]* @global_var_1646, i64 0, i64 0), i8* getelementptr inbounds ([46 x i8], [46 x i8]* @global_var_1618, i64 0, i64 0), i32 1138), !insn.addr !19
  store i64 %3, i64* %rax.0.reg2mem, !insn.addr !19
  br label %dec_label_pc_1cb, !insn.addr !19

dec_label_pc_1cb.fold.split:                      ; preds = %dec_label_pc_17c
  store i64 0, i64* %rax.0.reg2mem
  br label %dec_label_pc_1cb

dec_label_pc_1cb:                                 ; preds = %dec_label_pc_17c, %dec_label_pc_1cb.fold.split, %dec_label_pc_160, %dec_label_pc_1ad, %dec_label_pc_198
  %rax.0.reload = load i64, i64* %rax.0.reg2mem
  ret i64 %rax.0.reload, !insn.addr !20

; uselistorder directives
  uselistorder i64* %rax.0.reg2mem, { 0, 1, 5, 4, 2, 3 }
  uselistorder label %dec_label_pc_1cb, { 1, 3, 4, 0, 2 }
}

define i64 @_ZN22deobfuscate_opaque_mba24DeobfuscateOpaqueMBAPass3runERN4llvm6ModuleERNS1_15AnalysisManagerIS2_JEEE(i64* %this, i64* %result, i64* %arg3, i64* %arg4) local_unnamed_addr {
dec_label_pc_1ce:
  %stack_var_-22.010.reg2mem = alloca i8, !insn.addr !21
  %storemerge11.reg2mem = alloca i32, !insn.addr !21
  %0 = ptrtoint i64* %this to i64
  %1 = call i64 @__readfsqword(i64 40), !insn.addr !22
  store i32 0, i32* %storemerge11.reg2mem
  store i8 0, i8* %stack_var_-22.010.reg2mem
  br label %dec_label_pc_209

dec_label_pc_209:                                 ; preds = %dec_label_pc_1ce, %dec_label_pc_2ca
  %stack_var_-22.010.reload = load i8, i8* %stack_var_-22.010.reg2mem
  %2 = call i64 @_ZN22deobfuscate_opaque_mba24DeobfuscateOpaqueMBAPass27FoldReadonlyVolatileGlobalsERN4llvm6ModuleE(i64* %arg3), !insn.addr !23
  %3 = urem i64 %2, 256, !insn.addr !24
  %4 = icmp eq i64 %3, 0, !insn.addr !25
  %5 = icmp eq i1 %4, false, !insn.addr !26
  %6 = zext i1 %5 to i64, !insn.addr !27
  %7 = call i64 @_ZN22deobfuscate_opaque_mba24DeobfuscateOpaqueMBAPass25ForwardNumericGlobalSeedsERN4llvm6ModuleE(i64* %arg3), !insn.addr !28
  %.masked = urem i64 %7, 256
  %8 = or i64 %.masked, %6, !insn.addr !29
  %9 = icmp eq i64 %8, 0, !insn.addr !30
  %10 = icmp eq i1 %9, false, !insn.addr !31
  %11 = zext i1 %10 to i64, !insn.addr !32
  %12 = call i64 @_ZN22deobfuscate_opaque_mba24DeobfuscateOpaqueMBAPass11SimplifyMBAERN4llvm6ModuleE(i64* %arg3), !insn.addr !33
  %.masked6 = urem i64 %12, 256
  %13 = or i64 %.masked6, %11, !insn.addr !34
  %14 = icmp eq i64 %13, 0, !insn.addr !35
  %15 = icmp eq i1 %14, false, !insn.addr !36
  %16 = zext i1 %15 to i64, !insn.addr !37
  %17 = call i64 @_ZN22deobfuscate_opaque_mba24DeobfuscateOpaqueMBAPass30CanonicalizeObfuscatedComparesERN4llvm6ModuleE(i64* %arg3), !insn.addr !38
  %.masked7 = urem i64 %17, 256
  %18 = or i64 %.masked7, %16, !insn.addr !39
  %19 = icmp eq i64 %18, 0, !insn.addr !40
  %20 = icmp eq i1 %19, false, !insn.addr !41
  %21 = zext i1 %20 to i64, !insn.addr !42
  %22 = call i64 @_ZN22deobfuscate_opaque_mba24DeobfuscateOpaqueMBAPass18EliminateDeadPathsERN4llvm6ModuleE(i64* %arg3), !insn.addr !43
  %.masked8 = urem i64 %22, 256
  %23 = or i64 %.masked8, %21, !insn.addr !44
  %24 = icmp eq i64 %23, 0, !insn.addr !45
  %25 = icmp eq i1 %24, false, !insn.addr !46
  %26 = zext i1 %25 to i64, !insn.addr !47
  %27 = call i64 @_ZN22deobfuscate_opaque_mba24DeobfuscateOpaqueMBAPass27FoldReadonlyVolatileGlobalsERN4llvm6ModuleE(i64* %arg3), !insn.addr !48
  %.masked9 = urem i64 %27, 256
  %28 = or i64 %.masked9, %26, !insn.addr !49
  %29 = icmp eq i64 %28, 0, !insn.addr !50
  %30 = icmp eq i1 %29, false, !insn.addr !51
  %31 = zext i1 %30 to i8, !insn.addr !52
  %32 = or i8 %stack_var_-22.010.reload, %31, !insn.addr !53
  %33 = icmp eq i8 %32, 0, !insn.addr !54
  %34 = icmp eq i1 %33, false, !insn.addr !55
  %35 = icmp eq i1 %30, false, !insn.addr !56
  br i1 %35, label %dec_label_pc_2d7, label %dec_label_pc_2ca, !insn.addr !56

dec_label_pc_2ca:                                 ; preds = %dec_label_pc_209
  %storemerge11.reload = load i32, i32* %storemerge11.reg2mem
  %36 = add nuw nsw i32 %storemerge11.reload, 1, !insn.addr !57
  %37 = zext i1 %34 to i8
  %38 = icmp ult i32 %36, 3
  store i32 %36, i32* %storemerge11.reg2mem, !insn.addr !58
  store i8 %37, i8* %stack_var_-22.010.reg2mem, !insn.addr !58
  br i1 %38, label %dec_label_pc_209, label %dec_label_pc_2d7, !insn.addr !58

dec_label_pc_2d7:                                 ; preds = %dec_label_pc_2ca, %dec_label_pc_209
  %39 = icmp eq i1 %34, false, !insn.addr !59
  br i1 %39, label %dec_label_pc_2eb, label %dec_label_pc_2dd, !insn.addr !60

dec_label_pc_2dd:                                 ; preds = %dec_label_pc_2d7
  %40 = call i64 @_ZN4llvm17PreservedAnalyses4noneEv(i64* %this), !insn.addr !61
  br label %dec_label_pc_2f7, !insn.addr !62

dec_label_pc_2eb:                                 ; preds = %dec_label_pc_2d7
  %41 = call i64 @_ZN4llvm17PreservedAnalyses3allEv(i64* %this), !insn.addr !63
  br label %dec_label_pc_2f7, !insn.addr !63

dec_label_pc_2f7:                                 ; preds = %dec_label_pc_2eb, %dec_label_pc_2dd
  %42 = call i64 @__readfsqword(i64 40), !insn.addr !64
  %43 = icmp eq i64 %1, %42, !insn.addr !64
  br i1 %43, label %dec_label_pc_30b, label %dec_label_pc_306, !insn.addr !65

dec_label_pc_306:                                 ; preds = %dec_label_pc_2f7
  %44 = call i64 @__stack_chk_fail(), !insn.addr !66
  br label %dec_label_pc_30b, !insn.addr !66

dec_label_pc_30b:                                 ; preds = %dec_label_pc_306, %dec_label_pc_2f7
  ret i64 %0, !insn.addr !67

; uselistorder directives
  uselistorder i32* %storemerge11.reg2mem, { 1, 0, 2 }
  uselistorder i8* %stack_var_-22.010.reg2mem, { 1, 0, 2 }
  uselistorder i64 (i64*)* @_ZN22deobfuscate_opaque_mba24DeobfuscateOpaqueMBAPass27FoldReadonlyVolatileGlobalsERN4llvm6ModuleE, { 1, 0 }
  uselistorder i64* %this, { 1, 0, 2 }
  uselistorder label %dec_label_pc_209, { 1, 0 }
}

define i64 @_ZZZ21llvmGetPassPluginInfoENKUlRN4llvm11PassBuilderEE_clES1_ENKUlNS_9StringRefERNS_11PassManagerINS_6ModuleENS_15AnalysisManagerIS5_JEEEJEEENS_8ArrayRefINS0_15PipelineElementEEEE_clES3_S9_SC_(i64 %arg1, i64 %arg2, i64 %arg3, i64 %arg4, i64 %arg5, i64 %arg6) local_unnamed_addr {
dec_label_pc_312:
  %0 = alloca i64
  %rax.0.reg2mem = alloca i64, !insn.addr !68
  %storemerge.reg2mem = alloca i64, !insn.addr !68
  %1 = load i64, i64* %0
  %stack_var_-40 = alloca i64, align 8
  %2 = call i64 @__readfsqword(i64 40), !insn.addr !69
  %3 = call i64 @_ZN4llvm9StringRefC1EPKc(i64* nonnull %stack_var_-40, i8* getelementptr inbounds ([28 x i8], [28 x i8]* @global_var_1662, i64 0, i64 0)), !insn.addr !70
  %4 = load i64, i64* %stack_var_-40, align 8, !insn.addr !71
  %5 = inttoptr i64 %arg2 to i64*, !insn.addr !72
  %6 = inttoptr i64 %arg3 to i64*, !insn.addr !72
  %7 = call i64 @_ZN4llvmeqENS_9StringRefES0_(i64* %5, i64* %6, i64 %4, i64 %1), !insn.addr !72
  %8 = trunc i64 %7 to i8, !insn.addr !73
  %9 = icmp eq i8 %8, 0, !insn.addr !73
  store i64 0, i64* %storemerge.reg2mem, !insn.addr !74
  br i1 %9, label %dec_label_pc_39e, label %dec_label_pc_37f, !insn.addr !74

dec_label_pc_37f:                                 ; preds = %dec_label_pc_312
  %10 = inttoptr i64 %arg4 to i64*, !insn.addr !75
  %11 = call i64 @_ZN4llvm11PassManagerINS_6ModuleENS_15AnalysisManagerIS1_JEEEJEE7addPassIN22deobfuscate_opaque_mba24DeobfuscateOpaqueMBAPassEEENSt9enable_ifIXnt9is_same_vIT_S4_EEvE4typeEOS9_(i64* %10, i64* nonnull %stack_var_-40), !insn.addr !75
  store i64 1, i64* %storemerge.reg2mem, !insn.addr !76
  br label %dec_label_pc_39e, !insn.addr !76

dec_label_pc_39e:                                 ; preds = %dec_label_pc_312, %dec_label_pc_37f
  %storemerge.reload = load i64, i64* %storemerge.reg2mem
  %12 = call i64 @__readfsqword(i64 40), !insn.addr !77
  %13 = icmp eq i64 %2, %12, !insn.addr !77
  store i64 %storemerge.reload, i64* %rax.0.reg2mem, !insn.addr !78
  br i1 %13, label %dec_label_pc_3b2, label %dec_label_pc_3ad, !insn.addr !78

dec_label_pc_3ad:                                 ; preds = %dec_label_pc_39e
  %14 = call i64 @__stack_chk_fail(), !insn.addr !79
  store i64 %14, i64* %rax.0.reg2mem, !insn.addr !79
  br label %dec_label_pc_3b2, !insn.addr !79

dec_label_pc_3b2:                                 ; preds = %dec_label_pc_3ad, %dec_label_pc_39e
  %rax.0.reload = load i64, i64* %rax.0.reg2mem
  ret i64 %rax.0.reload, !insn.addr !80

; uselistorder directives
  uselistorder i64* %stack_var_-40, { 0, 2, 1 }
  uselistorder i64* %storemerge.reg2mem, { 0, 2, 1 }
  uselistorder label %dec_label_pc_39e, { 1, 0 }
}

define i64 @_ZZ21llvmGetPassPluginInfoENKUlRN4llvm11PassBuilderEE_clES1_(i64* %result, i64* %arg2) local_unnamed_addr {
dec_label_pc_3b4:
  %rax.0.reg2mem = alloca i64, !insn.addr !81
  %stack_var_-56 = alloca i64, align 8
  %stack_var_-57 = alloca i64, align 8
  %0 = call i64 @__readfsqword(i64 40), !insn.addr !82
  %1 = call i64 @_ZNSt8functionIFbN4llvm9StringRefERNS0_11PassManagerINS0_6ModuleENS0_15AnalysisManagerIS3_JEEEJEEENS0_8ArrayRefINS0_11PassBuilder15PipelineElementEEEEEC1IZZ21llvmGetPassPluginInfoENKUlRS9_E_clESF_EUlS1_S7_SB_E_vEEOT_(i64* nonnull %stack_var_-56, i64* nonnull %stack_var_-57), !insn.addr !83
  %2 = call i64 @_ZN4llvm11PassBuilder31registerPipelineParsingCallbackERKSt8functionIFbNS_9StringRefERNS_11PassManagerINS_6ModuleENS_15AnalysisManagerIS4_JEEEJEEENS_8ArrayRefINS0_15PipelineElementEEEEE(i64* %arg2, i64* nonnull %stack_var_-56), !insn.addr !84
  %3 = call i64 @_ZNSt8functionIFbN4llvm9StringRefERNS0_11PassManagerINS0_6ModuleENS0_15AnalysisManagerIS3_JEEEJEEENS0_8ArrayRefINS0_11PassBuilder15PipelineElementEEEEED1Ev(i64* nonnull %stack_var_-56), !insn.addr !85
  %4 = call i64 @__readfsqword(i64 40), !insn.addr !86
  %5 = icmp eq i64 %0, %4, !insn.addr !86
  store i64 0, i64* %rax.0.reg2mem, !insn.addr !87
  br i1 %5, label %dec_label_pc_41a, label %dec_label_pc_415, !insn.addr !87

dec_label_pc_415:                                 ; preds = %dec_label_pc_3b4
  %6 = call i64 @__stack_chk_fail(), !insn.addr !88
  store i64 %6, i64* %rax.0.reg2mem, !insn.addr !88
  br label %dec_label_pc_41a, !insn.addr !88

dec_label_pc_41a:                                 ; preds = %dec_label_pc_415, %dec_label_pc_3b4
  %rax.0.reload = load i64, i64* %rax.0.reg2mem
  ret i64 %rax.0.reload, !insn.addr !89
}

define i64 @_ZZ21llvmGetPassPluginInfoENUlRN4llvm11PassBuilderEE_4_FUNES1_(i64* %arg1) local_unnamed_addr {
dec_label_pc_41c:
  %0 = call i64 @_ZZ21llvmGetPassPluginInfoENKUlRN4llvm11PassBuilderEE_clES1_(i64* null, i64* %arg1), !insn.addr !90
  ret i64 %0, !insn.addr !91
}

define i64 @llvmGetPassPluginInfo(i64 %arg1) local_unnamed_addr {
dec_label_pc_43f:
  %0 = inttoptr i64 %arg1 to i32*, !insn.addr !92
  store i32 1, i32* %0, align 4, !insn.addr !92
  %1 = add i64 %arg1, 8, !insn.addr !93
  %2 = inttoptr i64 %1 to i64*, !insn.addr !93
  store i64 ptrtoint ([25 x i8]* @global_var_167e to i64), i64* %2, align 8, !insn.addr !93
  %3 = add i64 %arg1, 16, !insn.addr !94
  %4 = inttoptr i64 %3 to i64*, !insn.addr !94
  store i64 ptrtoint ([6 x i8]* @global_var_1697 to i64), i64* %4, align 8, !insn.addr !94
  %5 = add i64 %arg1, 24, !insn.addr !95
  %6 = inttoptr i64 %5 to i64*, !insn.addr !95
  store i64 1052, i64* %6, align 8, !insn.addr !95
  ret i64 %arg1, !insn.addr !96
}

define i64 @_ZN4llvm17make_filter_rangeIRNS_14iterator_rangeINS_14ilist_iteratorINS_12ilist_detail12node_optionsINS_9DbgRecordELb0ELb0EvLb0EvEELb0ELb0EEEEEZNS_L13filterDbgVarsES8_EUlRS5_E_EENS1_INS_20filter_iterator_implIDTcl9adl_begincl7declvalIRT_EEEET0_NS_6detail15fwd_or_bidi_tagISF_E4typeEEEEEOSD_SG_(i64** %arg1, i64 %arg2) local_unnamed_addr {
dec_label_pc_488:
  %0 = ptrtoint i64** %arg1 to i64
  %stack_var_-72 = alloca i64, align 8
  %stack_var_-40 = alloca i64, align 8
  %1 = call i64 @__readfsqword(i64 40), !insn.addr !97
  %2 = inttoptr i64 %arg2 to i64**, !insn.addr !98
  %3 = call i64 @_ZN4llvm9adl_beginIRNS_14iterator_rangeINS_14ilist_iteratorINS_12ilist_detail12node_optionsINS_9DbgRecordELb0ELb0EvLb0EvEELb0ELb0EEEEEEEDTcl10begin_implcl7forwardIT_Efp_EEEOSA_(i64** %2), !insn.addr !98
  %4 = call i64 @_ZN4llvm7adl_endIRNS_14iterator_rangeINS_14ilist_iteratorINS_12ilist_detail12node_optionsINS_9DbgRecordELb0ELb0EvLb0EvEELb0ELb0EEEEEEEDTcl8end_implcl7forwardIT_Efp_EEEOSA_(i64** %2), !insn.addr !99
  %5 = ptrtoint i64* %stack_var_-40 to i64, !insn.addr !100
  %6 = call i64 @_ZN4llvm20filter_iterator_implINS_14ilist_iteratorINS_12ilist_detail12node_optionsINS_9DbgRecordELb0ELb0EvLb0EvEELb0ELb0EEEZNS_L13filterDbgVarsENS_14iterator_rangeIS6_EEEUlRS4_E_St26bidirectional_iterator_tagEC1ES6_S6_SA_(i64 %5, i64 %4, i64 %4), !insn.addr !101
  %7 = ptrtoint i64* %stack_var_-72 to i64, !insn.addr !102
  %8 = call i64 @_ZN4llvm20filter_iterator_implINS_14ilist_iteratorINS_12ilist_detail12node_optionsINS_9DbgRecordELb0ELb0EvLb0EvEELb0ELb0EEEZNS_L13filterDbgVarsENS_14iterator_rangeIS6_EEEUlRS4_E_St26bidirectional_iterator_tagEC1ES6_S6_SA_(i64 %7, i64 %3, i64 %4), !insn.addr !103
  %9 = call i64 @_ZN4llvm10make_rangeINS_20filter_iterator_implINS_14ilist_iteratorINS_12ilist_detail12node_optionsINS_9DbgRecordELb0ELb0EvLb0EvEELb0ELb0EEEZNS_L13filterDbgVarsENS_14iterator_rangeIS7_EEEUlRS5_E_St26bidirectional_iterator_tagEEEENS8_IT_EESE_SE_(i64 %0, i64 ptrtoint (i32* @0 to i64)), !insn.addr !104
  %10 = call i64 @__readfsqword(i64 40), !insn.addr !105
  %11 = icmp eq i64 %1, %10, !insn.addr !105
  br i1 %11, label %dec_label_pc_55a, label %dec_label_pc_555, !insn.addr !106

dec_label_pc_555:                                 ; preds = %dec_label_pc_488
  %12 = call i64 @__stack_chk_fail(), !insn.addr !107
  br label %dec_label_pc_55a, !insn.addr !107

dec_label_pc_55a:                                 ; preds = %dec_label_pc_555, %dec_label_pc_488
  ret i64 %0, !insn.addr !108

; uselistorder directives
  uselistorder i64 %4, { 0, 2, 1 }
  uselistorder i64 (i64, i64, i64)* @_ZN4llvm20filter_iterator_implINS_14ilist_iteratorINS_12ilist_detail12node_optionsINS_9DbgRecordELb0ELb0EvLb0EvEELb0ELb0EEEZNS_L13filterDbgVarsENS_14iterator_rangeIS6_EEEUlRS4_E_St26bidirectional_iterator_tagEC1ES6_S6_SA_, { 1, 0 }
}

define i64 @_ZN4llvm9adl_beginIRNS_14iterator_rangeINS_20filter_iterator_implINS_14ilist_iteratorINS_12ilist_detail12node_optionsINS_9DbgRecordELb0ELb0EvLb0EvEELb0ELb0EEEZNS_L13filterDbgVarsENS1_IS8_EEEUlRS6_E_St26bidirectional_iterator_tagEEEEEEDTcl10begin_implcl7forwardIT_Efp_EEEOSG_(i64* %result, i64** %arg2) local_unnamed_addr {
dec_label_pc_560:
  %0 = call i64 @__readfsqword(i64 40), !insn.addr !109
  %1 = bitcast i64** %arg2 to i64*
  %2 = call i64** @_ZSt7forwardIRN4llvm14iterator_rangeINS0_20filter_iterator_implINS0_14ilist_iteratorINS0_12ilist_detail12node_optionsINS0_9DbgRecordELb0ELb0EvLb0EvEELb0ELb0EEEZNS0_L13filterDbgVarsENS1_IS8_EEEUlRS6_E_St26bidirectional_iterator_tagEEEEEOT_RNSt16remove_referenceISG_E4typeE(i64* %1), !insn.addr !110
  %3 = call i64 @_ZN4llvm10adl_detail10begin_implIRNS_14iterator_rangeINS_20filter_iterator_implINS_14ilist_iteratorINS_12ilist_detail12node_optionsINS_9DbgRecordELb0ELb0EvLb0EvEELb0ELb0EEEZNS_L13filterDbgVarsENS2_IS9_EEEUlRS7_E_St26bidirectional_iterator_tagEEEEEEDTcl5begincl7forwardIT_Efp_EEEOSH_(i64* %result, i64** %2), !insn.addr !111
  %4 = call i64 @__readfsqword(i64 40), !insn.addr !112
  %5 = icmp eq i64 %0, %4, !insn.addr !112
  br i1 %5, label %dec_label_pc_5b2, label %dec_label_pc_5ad, !insn.addr !113

dec_label_pc_5ad:                                 ; preds = %dec_label_pc_560
  %6 = call i64 @__stack_chk_fail(), !insn.addr !114
  br label %dec_label_pc_5b2, !insn.addr !114

dec_label_pc_5b2:                                 ; preds = %dec_label_pc_5ad, %dec_label_pc_560
  %7 = ptrtoint i64* %result to i64
  ret i64 %7, !insn.addr !115

; uselistorder directives
  uselistorder i64* %result, { 1, 0 }
}

define i64 @_ZN4llvm12map_iteratorINS_20filter_iterator_implINS_14ilist_iteratorINS_12ilist_detail12node_optionsINS_9DbgRecordELb0ELb0EvLb0EvEELb0ELb0EEEZNS_L13filterDbgVarsENS_14iterator_rangeIS7_EEEUlRS5_E_St26bidirectional_iterator_tagEEZNS_L13filterDbgVarsES9_EUlSA_E0_EENS_15mapped_iteratorIT_T0_DTclcl7declvalISH_EEdecl7declvalISG_EEEEEESG_SH_(i64 %arg1, i64 %arg2) local_unnamed_addr {
dec_label_pc_5b8:
  %stack_var_8 = alloca i64, align 8
  %stack_var_-17 = alloca i64, align 8
  %0 = bitcast i64* %stack_var_-17 to i64**, !insn.addr !116
  %1 = call i64* @_ZSt4moveIRZN4llvmL13filterDbgVarsENS0_14iterator_rangeINS0_14ilist_iteratorINS0_12ilist_detail12node_optionsINS0_9DbgRecordELb0ELb0EvLb0EvEELb0ELb0EEEEEEUlRS5_E0_EONSt16remove_referenceIT_E4typeEOSD_(i64** nonnull %0), !insn.addr !116
  %2 = bitcast i64* %stack_var_8 to i64**, !insn.addr !117
  %3 = call i64* @_ZSt4moveIRN4llvm20filter_iterator_implINS0_14ilist_iteratorINS0_12ilist_detail12node_optionsINS0_9DbgRecordELb0ELb0EvLb0EvEELb0ELb0EEEZNS0_L13filterDbgVarsENS0_14iterator_rangeIS7_EEEUlRS5_E_St26bidirectional_iterator_tagEEEONSt16remove_referenceIT_E4typeEOSG_(i64** nonnull %2), !insn.addr !117
  %4 = call i64 @_ZN4llvm15mapped_iteratorINS_20filter_iterator_implINS_14ilist_iteratorINS_12ilist_detail12node_optionsINS_9DbgRecordELb0ELb0EvLb0EvEELb0ELb0EEEZNS_L13filterDbgVarsENS_14iterator_rangeIS7_EEEUlRS5_E_St26bidirectional_iterator_tagEEZNS_L13filterDbgVarsES9_EUlSA_E0_St17reference_wrapperINS_17DbgVariableRecordEEEC1ESD_SE_(i64 %arg1, i64 ptrtoint (i32* @0 to i64)), !insn.addr !118
  ret i64 %arg1, !insn.addr !119
}

define i64 @_ZN4llvm7adl_endIRNS_14iterator_rangeINS_20filter_iterator_implINS_14ilist_iteratorINS_12ilist_detail12node_optionsINS_9DbgRecordELb0ELb0EvLb0EvEELb0ELb0EEEZNS_L13filterDbgVarsENS1_IS8_EEEUlRS6_E_St26bidirectional_iterator_tagEEEEEEDTcl8end_implcl7forwardIT_Efp_EEEOSG_(i64* %result, i64** %arg2) local_unnamed_addr {
dec_label_pc_610:
  %0 = call i64 @__readfsqword(i64 40), !insn.addr !120
  %1 = bitcast i64** %arg2 to i64*
  %2 = call i64** @_ZSt7forwardIRN4llvm14iterator_rangeINS0_20filter_iterator_implINS0_14ilist_iteratorINS0_12ilist_detail12node_optionsINS0_9DbgRecordELb0ELb0EvLb0EvEELb0ELb0EEEZNS0_L13filterDbgVarsENS1_IS8_EEEUlRS6_E_St26bidirectional_iterator_tagEEEEEOT_RNSt16remove_referenceISG_E4typeE(i64* %1), !insn.addr !121
  %3 = call i64 @_ZN4llvm10adl_detail8end_implIRNS_14iterator_rangeINS_20filter_iterator_implINS_14ilist_iteratorINS_12ilist_detail12node_optionsINS_9DbgRecordELb0ELb0EvLb0EvEELb0ELb0EEEZNS_L13filterDbgVarsENS2_IS9_EEEUlRS7_E_St26bidirectional_iterator_tagEEEEEEDTcl3endcl7forwardIT_Efp_EEEOSH_(i64* %result, i64** %2), !insn.addr !122
  %4 = call i64 @__readfsqword(i64 40), !insn.addr !123
  %5 = icmp eq i64 %0, %4, !insn.addr !123
  br i1 %5, label %dec_label_pc_662, label %dec_label_pc_65d, !insn.addr !124

dec_label_pc_65d:                                 ; preds = %dec_label_pc_610
  %6 = call i64 @__stack_chk_fail(), !insn.addr !125
  br label %dec_label_pc_662, !insn.addr !125

dec_label_pc_662:                                 ; preds = %dec_label_pc_65d, %dec_label_pc_610
  %7 = ptrtoint i64* %result to i64
  ret i64 %7, !insn.addr !126

; uselistorder directives
  uselistorder i64* %result, { 1, 0 }
}

define i64 @_ZN4llvm10make_rangeINS_15mapped_iteratorINS_20filter_iterator_implINS_14ilist_iteratorINS_12ilist_detail12node_optionsINS_9DbgRecordELb0ELb0EvLb0EvEELb0ELb0EEEZNS_L13filterDbgVarsENS_14iterator_rangeIS8_EEEUlRS6_E_St26bidirectional_iterator_tagEEZNS_L13filterDbgVarsESA_EUlSB_E0_St17reference_wrapperINS_17DbgVariableRecordEEEEEENS9_IT_EESK_SK_(i64 %arg1, i64 %arg2) local_unnamed_addr {
dec_label_pc_668:
  %stack_var_8 = alloca i64, align 8
  %stack_var_40 = alloca i64, align 8
  %0 = bitcast i64* %stack_var_40 to i64**, !insn.addr !127
  %1 = call i64* @_ZSt4moveIRN4llvm15mapped_iteratorINS0_20filter_iterator_implINS0_14ilist_iteratorINS0_12ilist_detail12node_optionsINS0_9DbgRecordELb0ELb0EvLb0EvEELb0ELb0EEEZNS0_L13filterDbgVarsENS0_14iterator_rangeIS8_EEEUlRS6_E_St26bidirectional_iterator_tagEEZNS0_L13filterDbgVarsESA_EUlSB_E0_St17reference_wrapperINS0_17DbgVariableRecordEEEEEONSt16remove_referenceIT_E4typeEOSM_(i64** nonnull %0), !insn.addr !127
  %2 = bitcast i64* %stack_var_8 to i64**, !insn.addr !128
  %3 = call i64* @_ZSt4moveIRN4llvm15mapped_iteratorINS0_20filter_iterator_implINS0_14ilist_iteratorINS0_12ilist_detail12node_optionsINS0_9DbgRecordELb0ELb0EvLb0EvEELb0ELb0EEEZNS0_L13filterDbgVarsENS0_14iterator_rangeIS8_EEEUlRS6_E_St26bidirectional_iterator_tagEEZNS0_L13filterDbgVarsESA_EUlSB_E0_St17reference_wrapperINS0_17DbgVariableRecordEEEEEONSt16remove_referenceIT_E4typeEOSM_(i64** nonnull %2), !insn.addr !128
  %4 = call i64 @_ZN4llvm14iterator_rangeINS_15mapped_iteratorINS_20filter_iterator_implINS_14ilist_iteratorINS_12ilist_detail12node_optionsINS_9DbgRecordELb0ELb0EvLb0EvEELb0ELb0EEEZNS_L13filterDbgVarsENS0_IS8_EEEUlRS6_E_St26bidirectional_iterator_tagEEZNS_L13filterDbgVarsES9_EUlSA_E0_St17reference_wrapperINS_17DbgVariableRecordEEEEEC1ESI_SI_(i64 %arg1, i64 ptrtoint (i32* @0 to i64)), !insn.addr !129
  ret i64 %arg1, !insn.addr !130
}

define i64 @_ZNSt8functionIFbN4llvm9StringRefERNS0_11PassManagerINS0_6ModuleENS0_15AnalysisManagerIS3_JEEEJEEENS0_8ArrayRefINS0_11PassBuilder15PipelineElementEEEEEC1IZZ21llvmGetPassPluginInfoENKUlRS9_E_clESF_EUlS1_S7_SB_E_vEEOT_(i64* %result, i64* %arg2) local_unnamed_addr {
dec_label_pc_6f6:
  %0 = alloca i128
  %rax.0.reg2mem = alloca i64, !insn.addr !131
  %rdi = alloca i64, align 8
  %1 = load i128, i128* %0
  %2 = ptrtoint i64* %result to i64
  %3 = call i128 @__asm_pxor(i128 %1, i128 %1), !insn.addr !132
  %4 = bitcast i64* %rdi to i128*
  %5 = load i128, i128* %4, align 8, !insn.addr !133
  call void @__asm_movups(i128 %5, i128 %3), !insn.addr !133
  %6 = add i64 %2, 16, !insn.addr !134
  %7 = inttoptr i64 %6 to i64*, !insn.addr !134
  %8 = load i64, i64* %7, align 8, !insn.addr !134
  call void @__asm_movq(i64 %8, i128 %3), !insn.addr !134
  %9 = call i64 @_ZNSt14_Function_baseC1Ev(i64* %result), !insn.addr !135
  %10 = add i64 %2, 24, !insn.addr !136
  %11 = inttoptr i64 %10 to i64*, !insn.addr !136
  store i64 0, i64* %11, align 8, !insn.addr !136
  %12 = call i1 @_ZNSt14_Function_base13_Base_managerIZZ21llvmGetPassPluginInfoENKUlRN4llvm11PassBuilderEE_clES3_EUlNS1_9StringRefERNS1_11PassManagerINS1_6ModuleENS1_15AnalysisManagerIS7_JEEEJEEENS1_8ArrayRefINS2_15PipelineElementEEEE_E21_M_not_empty_functionISF_EEbRKT_(i64* %arg2), !insn.addr !137
  %13 = icmp eq i1 %12, false, !insn.addr !138
  store i64 0, i64* %rax.0.reg2mem, !insn.addr !139
  br i1 %13, label %dec_label_pc_77a, label %dec_label_pc_73e, !insn.addr !139

dec_label_pc_73e:                                 ; preds = %dec_label_pc_6f6
  %14 = call i64* @_ZSt7forwardIZZ21llvmGetPassPluginInfoENKUlRN4llvm11PassBuilderEE_clES2_EUlNS0_9StringRefERNS0_11PassManagerINS0_6ModuleENS0_15AnalysisManagerIS6_JEEEJEEENS0_8ArrayRefINS1_15PipelineElementEEEE_EOT_RNSt16remove_referenceISF_E4typeE(i64* %arg2), !insn.addr !140
  call void @_ZNSt14_Function_base13_Base_managerIZZ21llvmGetPassPluginInfoENKUlRN4llvm11PassBuilderEE_clES3_EUlNS1_9StringRefERNS1_11PassManagerINS1_6ModuleENS1_15AnalysisManagerIS7_JEEEJEEENS1_8ArrayRefINS2_15PipelineElementEEEE_E15_M_init_functorISF_EEvRSt9_Any_dataOT_(i64* %result, i64* %14), !insn.addr !141
  store i64 2635, i64* %11, align 8, !insn.addr !142
  store i64 2753, i64* %7, align 8, !insn.addr !143
  store i64 %2, i64* %rax.0.reg2mem, !insn.addr !143
  br label %dec_label_pc_77a, !insn.addr !143

dec_label_pc_77a:                                 ; preds = %dec_label_pc_73e, %dec_label_pc_6f6
  %rax.0.reload = load i64, i64* %rax.0.reg2mem
  ret i64 %rax.0.reload, !insn.addr !144

; uselistorder directives
  uselistorder i128 %3, { 1, 0 }
}

define i64 @_ZN4llvm20filter_iterator_implINS_14ilist_iteratorINS_12ilist_detail12node_optionsINS_9DbgRecordELb0ELb0EvLb0EvEELb0ELb0EEEZNS_L13filterDbgVarsENS_14iterator_rangeIS6_EEEUlRS4_E_St26bidirectional_iterator_tagEC1ES6_S6_SA_(i64 %arg1, i64 %arg2, i64 %arg3) local_unnamed_addr {
dec_label_pc_77e:
  %0 = call i64 @_ZN4llvm20filter_iterator_baseINS_14ilist_iteratorINS_12ilist_detail12node_optionsINS_9DbgRecordELb0ELb0EvLb0EvEELb0ELb0EEEZNS_L13filterDbgVarsENS_14iterator_rangeIS6_EEEUlRS4_E_St26bidirectional_iterator_tagEC2ES6_S6_SA_(i64 %arg1, i64 %arg2, i64 %arg3), !insn.addr !145
  ret i64 %0, !insn.addr !146
}

define i64 @_ZN4llvm10make_rangeINS_20filter_iterator_implINS_14ilist_iteratorINS_12ilist_detail12node_optionsINS_9DbgRecordELb0ELb0EvLb0EvEELb0ELb0EEEZNS_L13filterDbgVarsENS_14iterator_rangeIS7_EEEUlRS5_E_St26bidirectional_iterator_tagEEEENS8_IT_EESE_SE_(i64 %arg1, i64 %arg2) local_unnamed_addr {
dec_label_pc_7ac:
  %stack_var_8 = alloca i64, align 8
  %stack_var_32 = alloca i64, align 8
  %0 = bitcast i64* %stack_var_32 to i64**, !insn.addr !147
  %1 = call i64* @_ZSt4moveIRN4llvm20filter_iterator_implINS0_14ilist_iteratorINS0_12ilist_detail12node_optionsINS0_9DbgRecordELb0ELb0EvLb0EvEELb0ELb0EEEZNS0_L13filterDbgVarsENS0_14iterator_rangeIS7_EEEUlRS5_E_St26bidirectional_iterator_tagEEEONSt16remove_referenceIT_E4typeEOSG_(i64** nonnull %0), !insn.addr !147
  %2 = bitcast i64* %stack_var_8 to i64**, !insn.addr !148
  %3 = call i64* @_ZSt4moveIRN4llvm20filter_iterator_implINS0_14ilist_iteratorINS0_12ilist_detail12node_optionsINS0_9DbgRecordELb0ELb0EvLb0EvEELb0ELb0EEEZNS0_L13filterDbgVarsENS0_14iterator_rangeIS7_EEEUlRS5_E_St26bidirectional_iterator_tagEEEONSt16remove_referenceIT_E4typeEOSG_(i64** nonnull %2), !insn.addr !148
  %4 = call i64 @_ZN4llvm14iterator_rangeINS_20filter_iterator_implINS_14ilist_iteratorINS_12ilist_detail12node_optionsINS_9DbgRecordELb0ELb0EvLb0EvEELb0ELb0EEEZNS_L13filterDbgVarsENS0_IS7_EEEUlRS5_E_St26bidirectional_iterator_tagEEEC1ESC_SC_(i64 %arg1, i64 ptrtoint (i32* @0 to i64)), !insn.addr !149
  ret i64 %arg1, !insn.addr !150
}

define i64** @_ZSt7forwardIRN4llvm14iterator_rangeINS0_20filter_iterator_implINS0_14ilist_iteratorINS0_12ilist_detail12node_optionsINS0_9DbgRecordELb0ELb0EvLb0EvEELb0ELb0EEEZNS0_L13filterDbgVarsENS1_IS8_EEEUlRS6_E_St26bidirectional_iterator_tagEEEEEOT_RNSt16remove_referenceISG_E4typeE(i64* %arg1) local_unnamed_addr {
dec_label_pc_829:
  %0 = bitcast i64* %arg1 to i64**, !insn.addr !151
  ret i64** %0, !insn.addr !151
}

define i64 @_ZN4llvm10adl_detail10begin_implIRNS_14iterator_rangeINS_20filter_iterator_implINS_14ilist_iteratorINS_12ilist_detail12node_optionsINS_9DbgRecordELb0ELb0EvLb0EvEELb0ELb0EEEZNS_L13filterDbgVarsENS2_IS9_EEEUlRS7_E_St26bidirectional_iterator_tagEEEEEEDTcl5begincl7forwardIT_Efp_EEEOSH_(i64* %result, i64** %arg2) local_unnamed_addr {
dec_label_pc_837:
  %0 = call i64 @__readfsqword(i64 40), !insn.addr !152
  %1 = bitcast i64** %arg2 to i64*
  %2 = call i64** @_ZSt7forwardIRN4llvm14iterator_rangeINS0_20filter_iterator_implINS0_14ilist_iteratorINS0_12ilist_detail12node_optionsINS0_9DbgRecordELb0ELb0EvLb0EvEELb0ELb0EEEZNS0_L13filterDbgVarsENS1_IS8_EEEUlRS6_E_St26bidirectional_iterator_tagEEEEEOT_RNSt16remove_referenceISG_E4typeE(i64* %1), !insn.addr !153
  %3 = bitcast i64** %2 to i64*, !insn.addr !154
  %4 = call i64 @_ZNK4llvm14iterator_rangeINS_20filter_iterator_implINS_14ilist_iteratorINS_12ilist_detail12node_optionsINS_9DbgRecordELb0ELb0EvLb0EvEELb0ELb0EEEZNS_L13filterDbgVarsENS0_IS7_EEEUlRS5_E_St26bidirectional_iterator_tagEEE5beginEv(i64* %result, i64* %3), !insn.addr !154
  %5 = call i64 @__readfsqword(i64 40), !insn.addr !155
  %6 = icmp eq i64 %0, %5, !insn.addr !155
  br i1 %6, label %dec_label_pc_88f, label %dec_label_pc_88a, !insn.addr !156

dec_label_pc_88a:                                 ; preds = %dec_label_pc_837
  %7 = call i64 @__stack_chk_fail(), !insn.addr !157
  br label %dec_label_pc_88f, !insn.addr !157

dec_label_pc_88f:                                 ; preds = %dec_label_pc_88a, %dec_label_pc_837
  %8 = ptrtoint i64* %result to i64
  ret i64 %8, !insn.addr !158

; uselistorder directives
  uselistorder i64* %result, { 1, 0 }
}

define i64* @_ZSt4moveIRN4llvm20filter_iterator_implINS0_14ilist_iteratorINS0_12ilist_detail12node_optionsINS0_9DbgRecordELb0ELb0EvLb0EvEELb0ELb0EEEZNS0_L13filterDbgVarsENS0_14iterator_rangeIS7_EEEUlRS5_E_St26bidirectional_iterator_tagEEEONSt16remove_referenceIT_E4typeEOSG_(i64** %arg1) local_unnamed_addr {
dec_label_pc_895:
  %0 = bitcast i64** %arg1 to i64*, !insn.addr !159
  ret i64* %0, !insn.addr !159
}

define i64* @_ZSt4moveIRZN4llvmL13filterDbgVarsENS0_14iterator_rangeINS0_14ilist_iteratorINS0_12ilist_detail12node_optionsINS0_9DbgRecordELb0ELb0EvLb0EvEELb0ELb0EEEEEEUlRS5_E0_EONSt16remove_referenceIT_E4typeEOSD_(i64** %arg1) local_unnamed_addr {
dec_label_pc_8a3:
  %0 = bitcast i64** %arg1 to i64*, !insn.addr !160
  ret i64* %0, !insn.addr !160
}

define i64 @_ZN4llvm15mapped_iteratorINS_20filter_iterator_implINS_14ilist_iteratorINS_12ilist_detail12node_optionsINS_9DbgRecordELb0ELb0EvLb0EvEELb0ELb0EEEZNS_L13filterDbgVarsENS_14iterator_rangeIS7_EEEUlRS5_E_St26bidirectional_iterator_tagEEZNS_L13filterDbgVarsES9_EUlSA_E0_St17reference_wrapperINS_17DbgVariableRecordEEEC1ESD_SE_(i64 %arg1, i64 %arg2) local_unnamed_addr {
dec_label_pc_8b2:
  %stack_var_-33 = alloca i64, align 8
  %stack_var_8 = alloca i64, align 8
  %0 = bitcast i64* %stack_var_8 to i64**, !insn.addr !161
  %1 = call i64* @_ZSt4moveIRN4llvm20filter_iterator_implINS0_14ilist_iteratorINS0_12ilist_detail12node_optionsINS0_9DbgRecordELb0ELb0EvLb0EvEELb0ELb0EEEZNS0_L13filterDbgVarsENS0_14iterator_rangeIS7_EEEUlRS5_E_St26bidirectional_iterator_tagEEEONSt16remove_referenceIT_E4typeEOSG_(i64** nonnull %0), !insn.addr !161
  %2 = call i64 @_ZN4llvm21iterator_adaptor_baseINS_15mapped_iteratorINS_20filter_iterator_implINS_14ilist_iteratorINS_12ilist_detail12node_optionsINS_9DbgRecordELb0ELb0EvLb0EvEELb0ELb0EEEZNS_L13filterDbgVarsENS_14iterator_rangeIS8_EEEUlRS6_E_St26bidirectional_iterator_tagEEZNS_L13filterDbgVarsESA_EUlSB_E0_St17reference_wrapperINS_17DbgVariableRecordEEEESE_SD_SI_lPSI_SI_EC2ESE_(i64 %arg1), !insn.addr !162
  %3 = add i64 %arg1, 24, !insn.addr !163
  %4 = bitcast i64* %stack_var_-33 to i64**, !insn.addr !164
  %5 = call i64* @_ZSt4moveIRZN4llvmL13filterDbgVarsENS0_14iterator_rangeINS0_14ilist_iteratorINS0_12ilist_detail12node_optionsINS0_9DbgRecordELb0ELb0EvLb0EvEELb0ELb0EEEEEEUlRS5_E0_EONSt16remove_referenceIT_E4typeEOSD_(i64** nonnull %4), !insn.addr !164
  %6 = inttoptr i64 %3 to i64*, !insn.addr !165
  %7 = call i64 @_ZN4llvm15callable_detail8CallableIZNS_L13filterDbgVarsENS_14iterator_rangeINS_14ilist_iteratorINS_12ilist_detail12node_optionsINS_9DbgRecordELb0ELb0EvLb0EvEELb0ELb0EEEEEEUlRS6_E0_Lb0EEC1ERKSB_(i64* %6, i64* %5), !insn.addr !165
  ret i64 %7, !insn.addr !166

; uselistorder directives
  uselistorder i64* (i64**)* @_ZSt4moveIRZN4llvmL13filterDbgVarsENS0_14iterator_rangeINS0_14ilist_iteratorINS0_12ilist_detail12node_optionsINS0_9DbgRecordELb0ELb0EvLb0EvEELb0ELb0EEEEEEUlRS5_E0_EONSt16remove_referenceIT_E4typeEOSD_, { 1, 0 }
}

define i64 @_ZN4llvm10adl_detail8end_implIRNS_14iterator_rangeINS_20filter_iterator_implINS_14ilist_iteratorINS_12ilist_detail12node_optionsINS_9DbgRecordELb0ELb0EvLb0EvEELb0ELb0EEEZNS_L13filterDbgVarsENS2_IS9_EEEUlRS7_E_St26bidirectional_iterator_tagEEEEEEDTcl3endcl7forwardIT_Efp_EEEOSH_(i64* %result, i64** %arg2) local_unnamed_addr {
dec_label_pc_922:
  %0 = call i64 @__readfsqword(i64 40), !insn.addr !167
  %1 = bitcast i64** %arg2 to i64*
  %2 = call i64** @_ZSt7forwardIRN4llvm14iterator_rangeINS0_20filter_iterator_implINS0_14ilist_iteratorINS0_12ilist_detail12node_optionsINS0_9DbgRecordELb0ELb0EvLb0EvEELb0ELb0EEEZNS0_L13filterDbgVarsENS1_IS8_EEEUlRS6_E_St26bidirectional_iterator_tagEEEEEOT_RNSt16remove_referenceISG_E4typeE(i64* %1), !insn.addr !168
  %3 = bitcast i64** %2 to i64*, !insn.addr !169
  %4 = call i64 @_ZNK4llvm14iterator_rangeINS_20filter_iterator_implINS_14ilist_iteratorINS_12ilist_detail12node_optionsINS_9DbgRecordELb0ELb0EvLb0EvEELb0ELb0EEEZNS_L13filterDbgVarsENS0_IS7_EEEUlRS5_E_St26bidirectional_iterator_tagEEE3endEv(i64* %result, i64* %3), !insn.addr !169
  %5 = call i64 @__readfsqword(i64 40), !insn.addr !170
  %6 = icmp eq i64 %0, %5, !insn.addr !170
  br i1 %6, label %dec_label_pc_97a, label %dec_label_pc_975, !insn.addr !171

dec_label_pc_975:                                 ; preds = %dec_label_pc_922
  %7 = call i64 @__stack_chk_fail(), !insn.addr !172
  br label %dec_label_pc_97a, !insn.addr !172

dec_label_pc_97a:                                 ; preds = %dec_label_pc_975, %dec_label_pc_922
  %8 = ptrtoint i64* %result to i64
  ret i64 %8, !insn.addr !173

; uselistorder directives
  uselistorder i64** (i64*)* @_ZSt7forwardIRN4llvm14iterator_rangeINS0_20filter_iterator_implINS0_14ilist_iteratorINS0_12ilist_detail12node_optionsINS0_9DbgRecordELb0ELb0EvLb0EvEELb0ELb0EEEZNS0_L13filterDbgVarsENS1_IS8_EEEUlRS6_E_St26bidirectional_iterator_tagEEEEEOT_RNSt16remove_referenceISG_E4typeE, { 3, 2, 1, 0 }
  uselistorder i64* %result, { 1, 0 }
}

define i64* @_ZSt4moveIRN4llvm15mapped_iteratorINS0_20filter_iterator_implINS0_14ilist_iteratorINS0_12ilist_detail12node_optionsINS0_9DbgRecordELb0ELb0EvLb0EvEELb0ELb0EEEZNS0_L13filterDbgVarsENS0_14iterator_rangeIS8_EEEUlRS6_E_St26bidirectional_iterator_tagEEZNS0_L13filterDbgVarsESA_EUlSB_E0_St17reference_wrapperINS0_17DbgVariableRecordEEEEEONSt16remove_referenceIT_E4typeEOSM_(i64** %arg1) local_unnamed_addr {
dec_label_pc_980:
  %0 = bitcast i64** %arg1 to i64*, !insn.addr !174
  ret i64* %0, !insn.addr !174
}

define i64 @_ZN4llvm14iterator_rangeINS_15mapped_iteratorINS_20filter_iterator_implINS_14ilist_iteratorINS_12ilist_detail12node_optionsINS_9DbgRecordELb0ELb0EvLb0EvEELb0ELb0EEEZNS_L13filterDbgVarsENS0_IS8_EEEUlRS6_E_St26bidirectional_iterator_tagEEZNS_L13filterDbgVarsES9_EUlSA_E0_St17reference_wrapperINS_17DbgVariableRecordEEEEEC1ESI_SI_(i64 %arg1, i64 %arg2) local_unnamed_addr {
dec_label_pc_98e:
  %stack_var_40 = alloca i64, align 8
  %stack_var_8 = alloca i64, align 8
  %0 = bitcast i64* %stack_var_8 to i64**, !insn.addr !175
  %1 = call i64* @_ZSt4moveIRN4llvm15mapped_iteratorINS0_20filter_iterator_implINS0_14ilist_iteratorINS0_12ilist_detail12node_optionsINS0_9DbgRecordELb0ELb0EvLb0EvEELb0ELb0EEEZNS0_L13filterDbgVarsENS0_14iterator_rangeIS8_EEEUlRS6_E_St26bidirectional_iterator_tagEEZNS0_L13filterDbgVarsESA_EUlSB_E0_St17reference_wrapperINS0_17DbgVariableRecordEEEEEONSt16remove_referenceIT_E4typeEOSM_(i64** nonnull %0), !insn.addr !175
  %2 = ptrtoint i64* %1 to i64, !insn.addr !175
  %3 = load i64, i64* %1, align 8, !insn.addr !176
  %4 = add i64 %2, 8, !insn.addr !177
  %5 = inttoptr i64 %4 to i64*, !insn.addr !177
  %6 = load i64, i64* %5, align 8, !insn.addr !177
  %7 = inttoptr i64 %arg1 to i64*, !insn.addr !178
  store i64 %3, i64* %7, align 8, !insn.addr !178
  %8 = add i64 %arg1, 8, !insn.addr !179
  %9 = inttoptr i64 %8 to i64*, !insn.addr !179
  store i64 %6, i64* %9, align 8, !insn.addr !179
  %10 = add i64 %2, 16, !insn.addr !180
  %11 = inttoptr i64 %10 to i64*, !insn.addr !180
  %12 = load i64, i64* %11, align 8, !insn.addr !180
  %13 = add i64 %2, 24, !insn.addr !181
  %14 = inttoptr i64 %13 to i64*, !insn.addr !181
  %15 = load i64, i64* %14, align 8, !insn.addr !181
  %16 = add i64 %arg1, 16, !insn.addr !182
  %17 = inttoptr i64 %16 to i64*, !insn.addr !182
  store i64 %12, i64* %17, align 8, !insn.addr !182
  %18 = add i64 %arg1, 24, !insn.addr !183
  %19 = inttoptr i64 %18 to i64*, !insn.addr !183
  store i64 %15, i64* %19, align 8, !insn.addr !183
  %20 = bitcast i64* %stack_var_40 to i64**, !insn.addr !184
  %21 = call i64* @_ZSt4moveIRN4llvm15mapped_iteratorINS0_20filter_iterator_implINS0_14ilist_iteratorINS0_12ilist_detail12node_optionsINS0_9DbgRecordELb0ELb0EvLb0EvEELb0ELb0EEEZNS0_L13filterDbgVarsENS0_14iterator_rangeIS8_EEEUlRS6_E_St26bidirectional_iterator_tagEEZNS0_L13filterDbgVarsESA_EUlSB_E0_St17reference_wrapperINS0_17DbgVariableRecordEEEEEONSt16remove_referenceIT_E4typeEOSM_(i64** nonnull %20), !insn.addr !184
  %22 = ptrtoint i64* %21 to i64, !insn.addr !184
  %23 = load i64, i64* %21, align 8, !insn.addr !185
  %24 = add i64 %22, 8, !insn.addr !186
  %25 = inttoptr i64 %24 to i64*, !insn.addr !186
  %26 = load i64, i64* %25, align 8, !insn.addr !186
  %27 = add i64 %arg1, 32, !insn.addr !187
  %28 = inttoptr i64 %27 to i64*, !insn.addr !187
  store i64 %23, i64* %28, align 8, !insn.addr !187
  %29 = add i64 %arg1, 40, !insn.addr !188
  %30 = inttoptr i64 %29 to i64*, !insn.addr !188
  store i64 %26, i64* %30, align 8, !insn.addr !188
  %31 = add i64 %22, 16, !insn.addr !189
  %32 = inttoptr i64 %31 to i64*, !insn.addr !189
  %33 = load i64, i64* %32, align 8, !insn.addr !189
  %34 = add i64 %22, 24, !insn.addr !190
  %35 = inttoptr i64 %34 to i64*, !insn.addr !190
  %36 = load i64, i64* %35, align 8, !insn.addr !190
  %37 = add i64 %arg1, 48, !insn.addr !191
  %38 = inttoptr i64 %37 to i64*, !insn.addr !191
  store i64 %33, i64* %38, align 8, !insn.addr !191
  %39 = add i64 %arg1, 56, !insn.addr !192
  %40 = inttoptr i64 %39 to i64*, !insn.addr !192
  store i64 %36, i64* %40, align 8, !insn.addr !192
  ret i64 %33, !insn.addr !193

; uselistorder directives
  uselistorder i64 %33, { 1, 0 }
  uselistorder i64 %22, { 2, 1, 0 }
  uselistorder i64 %2, { 2, 1, 0 }
  uselistorder i64* (i64**)* @_ZSt4moveIRN4llvm15mapped_iteratorINS0_20filter_iterator_implINS0_14ilist_iteratorINS0_12ilist_detail12node_optionsINS0_9DbgRecordELb0ELb0EvLb0EvEELb0ELb0EEEZNS0_L13filterDbgVarsENS0_14iterator_rangeIS8_EEEUlRS6_E_St26bidirectional_iterator_tagEEZNS0_L13filterDbgVarsESA_EUlSB_E0_St17reference_wrapperINS0_17DbgVariableRecordEEEEEONSt16remove_referenceIT_E4typeEOSM_, { 3, 2, 1, 0 }
}

define i1 @_ZNSt14_Function_base13_Base_managerIZZ21llvmGetPassPluginInfoENKUlRN4llvm11PassBuilderEE_clES3_EUlNS1_9StringRefERNS1_11PassManagerINS1_6ModuleENS1_15AnalysisManagerIS7_JEEEJEEENS1_8ArrayRefINS2_15PipelineElementEEEE_E21_M_not_empty_functionISF_EEbRKT_(i64* %arg1) local_unnamed_addr {
dec_label_pc_9fd:
  ret i1 true, !insn.addr !194
}

define i64* @_ZSt7forwardIZZ21llvmGetPassPluginInfoENKUlRN4llvm11PassBuilderEE_clES2_EUlNS0_9StringRefERNS0_11PassManagerINS0_6ModuleENS0_15AnalysisManagerIS6_JEEEJEEENS0_8ArrayRefINS1_15PipelineElementEEEE_EOT_RNSt16remove_referenceISF_E4typeE(i64* %arg1) local_unnamed_addr {
dec_label_pc_a0c:
  ret i64* %arg1, !insn.addr !195
}

define void @_ZNSt14_Function_base13_Base_managerIZZ21llvmGetPassPluginInfoENKUlRN4llvm11PassBuilderEE_clES3_EUlNS1_9StringRefERNS1_11PassManagerINS1_6ModuleENS1_15AnalysisManagerIS7_JEEEJEEENS1_8ArrayRefINS2_15PipelineElementEEEE_E15_M_init_functorISF_EEvRSt9_Any_dataOT_(i64* %arg1, i64* %arg2) local_unnamed_addr {
dec_label_pc_a1a:
  %0 = call i64* @_ZSt7forwardIZZ21llvmGetPassPluginInfoENKUlRN4llvm11PassBuilderEE_clES2_EUlNS0_9StringRefERNS0_11PassManagerINS0_6ModuleENS0_15AnalysisManagerIS6_JEEEJEEENS0_8ArrayRefINS1_15PipelineElementEEEE_EOT_RNSt16remove_referenceISF_E4typeE(i64* %arg2), !insn.addr !196
  call void @_ZNSt14_Function_base13_Base_managerIZZ21llvmGetPassPluginInfoENKUlRN4llvm11PassBuilderEE_clES3_EUlNS1_9StringRefERNS1_11PassManagerINS1_6ModuleENS1_15AnalysisManagerIS7_JEEEJEEENS1_8ArrayRefINS2_15PipelineElementEEEE_E9_M_createISF_EEvRSt9_Any_dataOT_St17integral_constantIbLb1EE(i64* %arg1, i64* %0, i64 ptrtoint (i32* @0 to i64)), !insn.addr !197
  ret void, !insn.addr !198
}

define i64 @_ZNSt17_Function_handlerIFbN4llvm9StringRefERNS0_11PassManagerINS0_6ModuleENS0_15AnalysisManagerIS3_JEEEJEEENS0_8ArrayRefINS0_11PassBuilder15PipelineElementEEEEZZ21llvmGetPassPluginInfoENKUlRS9_E_clESD_EUlS1_S7_SB_E_E9_M_invokeERKSt9_Any_dataOS1_S7_OSB_(i64* %arg1, i64* %arg2, i64* %arg3, i64* %arg4) local_unnamed_addr {
dec_label_pc_a4b:
  %0 = call i64* @_ZSt7forwardIN4llvm8ArrayRefINS0_11PassBuilder15PipelineElementEEEEOT_RNSt16remove_referenceIS5_E4typeE(i64* %arg4), !insn.addr !199
  %1 = ptrtoint i64* %0 to i64, !insn.addr !199
  %2 = call i64** @_ZSt7forwardIRN4llvm11PassManagerINS0_6ModuleENS0_15AnalysisManagerIS2_JEEEJEEEEOT_RNSt16remove_referenceIS7_E4typeE(i64* %arg3), !insn.addr !200
  %3 = call i64* @_ZSt7forwardIN4llvm9StringRefEEOT_RNSt16remove_referenceIS2_E4typeE(i64* %arg2), !insn.addr !201
  %4 = call i64 @_ZNSt14_Function_base13_Base_managerIZZ21llvmGetPassPluginInfoENKUlRN4llvm11PassBuilderEE_clES3_EUlNS1_9StringRefERNS1_11PassManagerINS1_6ModuleENS1_15AnalysisManagerIS7_JEEEJEEENS1_8ArrayRefINS2_15PipelineElementEEEE_E14_M_get_pointerERKSt9_Any_data(i64* %arg1), !insn.addr !202
  %5 = inttoptr i64 %4 to i64*, !insn.addr !203
  %6 = call i64 @_ZSt10__invoke_rIbRZZ21llvmGetPassPluginInfoENKUlRN4llvm11PassBuilderEE_clES2_EUlNS0_9StringRefERNS0_11PassManagerINS0_6ModuleENS0_15AnalysisManagerIS6_JEEEJEEENS0_8ArrayRefINS1_15PipelineElementEEEE_JS4_SA_SD_EENSt9enable_ifIX16is_invocable_r_vIT_T0_DpT1_EESH_E4typeEOSI_DpOSJ_(i64* %5, i64* %3, i64** %2, i64 %1), !insn.addr !203
  ret i64 %6, !insn.addr !204
}

define i64 @_ZNSt17_Function_handlerIFbN4llvm9StringRefERNS0_11PassManagerINS0_6ModuleENS0_15AnalysisManagerIS3_JEEEJEEENS0_8ArrayRefINS0_11PassBuilder15PipelineElementEEEEZZ21llvmGetPassPluginInfoENKUlRS9_E_clESD_EUlS1_S7_SB_E_E10_M_managerERSt9_Any_dataRKSH_St18_Manager_operation(i64* %arg1, i64* %arg2, i64 %arg3) local_unnamed_addr {
dec_label_pc_ac1:
  %0 = trunc i64 %arg3 to i32, !insn.addr !205
  switch i32 %0, label %dec_label_pc_b1f [
    i32 0, label %dec_label_pc_ae7
    i32 1, label %dec_label_pc_aff
  ]

dec_label_pc_ae7:                                 ; preds = %dec_label_pc_ac1
  %1 = call i64** @_ZNSt9_Any_data9_M_accessIPKSt9type_infoEERT_v(i64* %arg1), !insn.addr !206
  %2 = bitcast i64** %1 to i64*, !insn.addr !207
  store i64 ptrtoint (i64* @global_var_4968 to i64), i64* %2, align 8, !insn.addr !207
  br label %dec_label_pc_b35, !insn.addr !208

dec_label_pc_aff:                                 ; preds = %dec_label_pc_ac1
  %3 = call i64 @_ZNSt14_Function_base13_Base_managerIZZ21llvmGetPassPluginInfoENKUlRN4llvm11PassBuilderEE_clES3_EUlNS1_9StringRefERNS1_11PassManagerINS1_6ModuleENS1_15AnalysisManagerIS7_JEEEJEEENS1_8ArrayRefINS2_15PipelineElementEEEE_E14_M_get_pointerERKSt9_Any_data(i64* %arg2), !insn.addr !209
  %4 = call i64** @_ZNSt9_Any_data9_M_accessIPZZ21llvmGetPassPluginInfoENKUlRN4llvm11PassBuilderEE_clES3_EUlNS1_9StringRefERNS1_11PassManagerINS1_6ModuleENS1_15AnalysisManagerIS7_JEEEJEEENS1_8ArrayRefINS2_15PipelineElementEEEE_EERT_v(i64* %arg1), !insn.addr !210
  %5 = bitcast i64** %4 to i64*, !insn.addr !211
  store i64 %3, i64* %5, align 8, !insn.addr !211
  br label %dec_label_pc_b35, !insn.addr !212

dec_label_pc_b1f:                                 ; preds = %dec_label_pc_ac1
  %6 = and i64 %arg3, 4294967295
  %7 = call i64 @_ZNSt14_Function_base13_Base_managerIZZ21llvmGetPassPluginInfoENKUlRN4llvm11PassBuilderEE_clES3_EUlNS1_9StringRefERNS1_11PassManagerINS1_6ModuleENS1_15AnalysisManagerIS7_JEEEJEEENS1_8ArrayRefINS2_15PipelineElementEEEE_E10_M_managerERSt9_Any_dataRKSH_St18_Manager_operation(i64* %arg1, i64* %arg2, i64 %6), !insn.addr !213
  br label %dec_label_pc_b35, !insn.addr !213

dec_label_pc_b35:                                 ; preds = %dec_label_pc_b1f, %dec_label_pc_aff, %dec_label_pc_ae7
  ret i64 0, !insn.addr !214

; uselistorder directives
  uselistorder i64* %arg2, { 1, 0 }
  uselistorder i64* %arg1, { 2, 1, 0 }
}

define i64 @_ZN4llvm20filter_iterator_baseINS_14ilist_iteratorINS_12ilist_detail12node_optionsINS_9DbgRecordELb0ELb0EvLb0EvEELb0ELb0EEEZNS_L13filterDbgVarsENS_14iterator_rangeIS6_EEEUlRS4_E_St26bidirectional_iterator_tagEC2ES6_S6_SA_(i64 %arg1, i64 %arg2, i64 %arg3) local_unnamed_addr {
dec_label_pc_b40:
  %0 = inttoptr i64 %arg1 to i64*, !insn.addr !215
  %1 = call i64 @_ZN4llvm21iterator_adaptor_baseINS_20filter_iterator_baseINS_14ilist_iteratorINS_12ilist_detail12node_optionsINS_9DbgRecordELb0ELb0EvLb0EvEELb0ELb0EEEZNS_L13filterDbgVarsENS_14iterator_rangeIS7_EEEUlRS5_E_St26bidirectional_iterator_tagEES7_SC_S5_lPS5_SA_EC2ES7_(i64* %0, i64 %arg2), !insn.addr !215
  %2 = add i64 %arg1, 8, !insn.addr !216
  %3 = inttoptr i64 %2 to i64*, !insn.addr !216
  store i64 %arg3, i64* %3, align 8, !insn.addr !216
  %4 = call i64 @_ZN4llvm20filter_iterator_baseINS_14ilist_iteratorINS_12ilist_detail12node_optionsINS_9DbgRecordELb0ELb0EvLb0EvEELb0ELb0EEEZNS_L13filterDbgVarsENS_14iterator_rangeIS6_EEEUlRS4_E_St26bidirectional_iterator_tagE13findNextValidEv(i64* %0), !insn.addr !217
  ret i64 %4, !insn.addr !218
}

define i64 @_ZN4llvm14iterator_rangeINS_20filter_iterator_implINS_14ilist_iteratorINS_12ilist_detail12node_optionsINS_9DbgRecordELb0ELb0EvLb0EvEELb0ELb0EEEZNS_L13filterDbgVarsENS0_IS7_EEEUlRS5_E_St26bidirectional_iterator_tagEEEC1ESC_SC_(i64 %arg1, i64 %arg2) local_unnamed_addr {
dec_label_pc_b82:
  %stack_var_32 = alloca i64, align 8
  %stack_var_8 = alloca i64, align 8
  %0 = bitcast i64* %stack_var_8 to i64**, !insn.addr !219
  %1 = call i64* @_ZSt4moveIRN4llvm20filter_iterator_implINS0_14ilist_iteratorINS0_12ilist_detail12node_optionsINS0_9DbgRecordELb0ELb0EvLb0EvEELb0ELb0EEEZNS0_L13filterDbgVarsENS0_14iterator_rangeIS7_EEEUlRS5_E_St26bidirectional_iterator_tagEEEONSt16remove_referenceIT_E4typeEOSG_(i64** nonnull %0), !insn.addr !219
  %2 = ptrtoint i64* %1 to i64, !insn.addr !219
  %3 = load i64, i64* %1, align 8, !insn.addr !220
  %4 = add i64 %2, 8, !insn.addr !221
  %5 = inttoptr i64 %4 to i64*, !insn.addr !221
  %6 = load i64, i64* %5, align 8, !insn.addr !221
  %7 = inttoptr i64 %arg1 to i64*, !insn.addr !222
  store i64 %3, i64* %7, align 8, !insn.addr !222
  %8 = add i64 %arg1, 8, !insn.addr !223
  %9 = inttoptr i64 %8 to i64*, !insn.addr !223
  store i64 %6, i64* %9, align 8, !insn.addr !223
  %10 = add i64 %2, 16, !insn.addr !224
  %11 = inttoptr i64 %10 to i64*, !insn.addr !224
  %12 = load i64, i64* %11, align 8, !insn.addr !224
  %13 = add i64 %arg1, 16, !insn.addr !225
  %14 = inttoptr i64 %13 to i64*, !insn.addr !225
  store i64 %12, i64* %14, align 8, !insn.addr !225
  %15 = bitcast i64* %stack_var_32 to i64**, !insn.addr !226
  %16 = call i64* @_ZSt4moveIRN4llvm20filter_iterator_implINS0_14ilist_iteratorINS0_12ilist_detail12node_optionsINS0_9DbgRecordELb0ELb0EvLb0EvEELb0ELb0EEEZNS0_L13filterDbgVarsENS0_14iterator_rangeIS7_EEEUlRS5_E_St26bidirectional_iterator_tagEEEONSt16remove_referenceIT_E4typeEOSG_(i64** nonnull %15), !insn.addr !226
  %17 = ptrtoint i64* %16 to i64, !insn.addr !226
  %18 = load i64, i64* %16, align 8, !insn.addr !227
  %19 = add i64 %17, 8, !insn.addr !228
  %20 = inttoptr i64 %19 to i64*, !insn.addr !228
  %21 = load i64, i64* %20, align 8, !insn.addr !228
  %22 = add i64 %arg1, 24, !insn.addr !229
  %23 = inttoptr i64 %22 to i64*, !insn.addr !229
  store i64 %18, i64* %23, align 8, !insn.addr !229
  %24 = add i64 %arg1, 32, !insn.addr !230
  %25 = inttoptr i64 %24 to i64*, !insn.addr !230
  store i64 %21, i64* %25, align 8, !insn.addr !230
  %26 = add i64 %17, 16, !insn.addr !231
  %27 = inttoptr i64 %26 to i64*, !insn.addr !231
  %28 = load i64, i64* %27, align 8, !insn.addr !231
  %29 = add i64 %arg1, 40, !insn.addr !232
  %30 = inttoptr i64 %29 to i64*, !insn.addr !232
  store i64 %28, i64* %30, align 8, !insn.addr !232
  ret i64 %28, !insn.addr !233

; uselistorder directives
  uselistorder i64 %28, { 1, 0 }
  uselistorder i64 %17, { 1, 0 }
  uselistorder i64 %2, { 1, 0 }
}

define i64 @_ZN4llvm21iterator_adaptor_baseINS_15mapped_iteratorINS_20filter_iterator_implINS_14ilist_iteratorINS_12ilist_detail12node_optionsINS_9DbgRecordELb0ELb0EvLb0EvEELb0ELb0EEEZNS_L13filterDbgVarsENS_14iterator_rangeIS8_EEEUlRS6_E_St26bidirectional_iterator_tagEEZNS_L13filterDbgVarsESA_EUlSB_E0_St17reference_wrapperINS_17DbgVariableRecordEEEESE_SD_SI_lPSI_SI_EC2ESE_(i64 %arg1) local_unnamed_addr {
dec_label_pc_be2:
  %stack_var_8 = alloca i64, align 8
  %0 = bitcast i64* %stack_var_8 to i64**, !insn.addr !234
  %1 = call i64* @_ZSt4moveIRN4llvm20filter_iterator_implINS0_14ilist_iteratorINS0_12ilist_detail12node_optionsINS0_9DbgRecordELb0ELb0EvLb0EvEELb0ELb0EEEZNS0_L13filterDbgVarsENS0_14iterator_rangeIS7_EEEUlRS5_E_St26bidirectional_iterator_tagEEEONSt16remove_referenceIT_E4typeEOSG_(i64** nonnull %0), !insn.addr !234
  %2 = ptrtoint i64* %1 to i64, !insn.addr !234
  %3 = load i64, i64* %1, align 8, !insn.addr !235
  %4 = add i64 %2, 8, !insn.addr !236
  %5 = inttoptr i64 %4 to i64*, !insn.addr !236
  %6 = load i64, i64* %5, align 8, !insn.addr !236
  %7 = inttoptr i64 %arg1 to i64*, !insn.addr !237
  store i64 %3, i64* %7, align 8, !insn.addr !237
  %8 = add i64 %arg1, 8, !insn.addr !238
  %9 = inttoptr i64 %8 to i64*, !insn.addr !238
  store i64 %6, i64* %9, align 8, !insn.addr !238
  %10 = add i64 %2, 16, !insn.addr !239
  %11 = inttoptr i64 %10 to i64*, !insn.addr !239
  %12 = load i64, i64* %11, align 8, !insn.addr !239
  %13 = add i64 %arg1, 16, !insn.addr !240
  %14 = inttoptr i64 %13 to i64*, !insn.addr !240
  store i64 %12, i64* %14, align 8, !insn.addr !240
  ret i64 %12, !insn.addr !241

; uselistorder directives
  uselistorder i64 %12, { 1, 0 }
  uselistorder i64 %2, { 1, 0 }
  uselistorder i64* (i64**)* @_ZSt4moveIRN4llvm20filter_iterator_implINS0_14ilist_iteratorINS0_12ilist_detail12node_optionsINS0_9DbgRecordELb0ELb0EvLb0EvEELb0ELb0EEEZNS0_L13filterDbgVarsENS0_14iterator_rangeIS7_EEEUlRS5_E_St26bidirectional_iterator_tagEEEONSt16remove_referenceIT_E4typeEOSG_, { 2, 6, 5, 1, 4, 3, 0 }
}

define i64 @_ZN4llvm15callable_detail8CallableIZNS_L13filterDbgVarsENS_14iterator_rangeINS_14ilist_iteratorINS_12ilist_detail12node_optionsINS_9DbgRecordELb0ELb0EvLb0EvEELb0ELb0EEEEEEUlRS6_E0_Lb0EEC1ERKSB_(i64* %result, i64* %arg2) local_unnamed_addr {
dec_label_pc_c18:
  %0 = ptrtoint i64* %arg2 to i64
  %1 = ptrtoint i64* %result to i64
  %2 = call i64 @_ZNSt8optionalIZN4llvmL13filterDbgVarsENS0_14iterator_rangeINS0_14ilist_iteratorINS0_12ilist_detail12node_optionsINS0_9DbgRecordELb0ELb0EvLb0EvEELb0ELb0EEEEEEUlRS5_E0_EC1IJRKSA_ELb0EEESt10in_place_tDpOT_(i64 %1, i64 %0), !insn.addr !242
  ret i64 %2, !insn.addr !243
}

define void @_ZNSt14_Function_base13_Base_managerIZZ21llvmGetPassPluginInfoENKUlRN4llvm11PassBuilderEE_clES3_EUlNS1_9StringRefERNS1_11PassManagerINS1_6ModuleENS1_15AnalysisManagerIS7_JEEEJEEENS1_8ArrayRefINS2_15PipelineElementEEEE_E9_M_createISF_EEvRSt9_Any_dataOT_St17integral_constantIbLb1EE(i64* %arg1, i64* %arg2, i64 %arg3) local_unnamed_addr {
dec_label_pc_c3e:
  %0 = call i64 @_ZNSt9_Any_data9_M_accessEv(i64* %arg1), !insn.addr !244
  %1 = inttoptr i64 %0 to i64*, !insn.addr !245
  %2 = call i64 @_ZnwmPv(i64 1, i64* %1), !insn.addr !245
  %3 = call i64* @_ZSt7forwardIZZ21llvmGetPassPluginInfoENKUlRN4llvm11PassBuilderEE_clES2_EUlNS0_9StringRefERNS0_11PassManagerINS0_6ModuleENS0_15AnalysisManagerIS6_JEEEJEEENS0_8ArrayRefINS1_15PipelineElementEEEE_EOT_RNSt16remove_referenceISF_E4typeE(i64* %arg2), !insn.addr !246
  ret void, !insn.addr !247

; uselistorder directives
  uselistorder i64* (i64*)* @_ZSt7forwardIZZ21llvmGetPassPluginInfoENKUlRN4llvm11PassBuilderEE_clES2_EUlNS0_9StringRefERNS0_11PassManagerINS0_6ModuleENS0_15AnalysisManagerIS6_JEEEJEEENS0_8ArrayRefINS1_15PipelineElementEEEE_EOT_RNSt16remove_referenceISF_E4typeE, { 2, 1, 0 }
}

define i64 @_ZNSt14_Function_base13_Base_managerIZZ21llvmGetPassPluginInfoENKUlRN4llvm11PassBuilderEE_clES3_EUlNS1_9StringRefERNS1_11PassManagerINS1_6ModuleENS1_15AnalysisManagerIS7_JEEEJEEENS1_8ArrayRefINS2_15PipelineElementEEEE_E14_M_get_pointerERKSt9_Any_data(i64* %arg1) local_unnamed_addr {
dec_label_pc_c76:
  %0 = call i64* @_ZNKSt9_Any_data9_M_accessIZZ21llvmGetPassPluginInfoENKUlRN4llvm11PassBuilderEE_clES3_EUlNS1_9StringRefERNS1_11PassManagerINS1_6ModuleENS1_15AnalysisManagerIS7_JEEEJEEENS1_8ArrayRefINS2_15PipelineElementEEEE_EERKT_v(i64* %arg1), !insn.addr !248
  %1 = call i64* @_ZSt11__addressofIKZZ21llvmGetPassPluginInfoENKUlRN4llvm11PassBuilderEE_clES2_EUlNS0_9StringRefERNS0_11PassManagerINS0_6ModuleENS0_15AnalysisManagerIS6_JEEEJEEENS0_8ArrayRefINS1_15PipelineElementEEEE_EPT_RSG_(i64* %0), !insn.addr !249
  %2 = ptrtoint i64* %1 to i64, !insn.addr !249
  ret i64 %2, !insn.addr !250
}

define i64 @_ZSt10__invoke_rIbRZZ21llvmGetPassPluginInfoENKUlRN4llvm11PassBuilderEE_clES2_EUlNS0_9StringRefERNS0_11PassManagerINS0_6ModuleENS0_15AnalysisManagerIS6_JEEEJEEENS0_8ArrayRefINS1_15PipelineElementEEEE_JS4_SA_SD_EENSt9enable_ifIX16is_invocable_r_vIT_T0_DpT1_EESH_E4typeEOSI_DpOSJ_(i64* %this, i64* %result, i64** %arg3, i64 %arg4) local_unnamed_addr {
dec_label_pc_ca0:
  %0 = inttoptr i64 %arg4 to i64*, !insn.addr !251
  %1 = call i64* @_ZSt7forwardIN4llvm8ArrayRefINS0_11PassBuilder15PipelineElementEEEEOT_RNSt16remove_referenceIS5_E4typeE(i64* %0), !insn.addr !251
  %2 = ptrtoint i64* %1 to i64, !insn.addr !251
  %3 = bitcast i64** %arg3 to i64*, !insn.addr !252
  %4 = call i64** @_ZSt7forwardIRN4llvm11PassManagerINS0_6ModuleENS0_15AnalysisManagerIS2_JEEEJEEEEOT_RNSt16remove_referenceIS7_E4typeE(i64* %3), !insn.addr !252
  %5 = call i64* @_ZSt7forwardIN4llvm9StringRefEEOT_RNSt16remove_referenceIS2_E4typeE(i64* %result), !insn.addr !253
  %6 = ptrtoint i64* %5 to i64, !insn.addr !253
  %7 = call i64** @_ZSt7forwardIRZZ21llvmGetPassPluginInfoENKUlRN4llvm11PassBuilderEE_clES2_EUlNS0_9StringRefERNS0_11PassManagerINS0_6ModuleENS0_15AnalysisManagerIS6_JEEEJEEENS0_8ArrayRefINS1_15PipelineElementEEEE_EOT_RNSt16remove_referenceISG_E4typeE(i64* %this), !insn.addr !254
  %8 = bitcast i64** %7 to i64*, !insn.addr !255
  %9 = call i1 @_ZSt13__invoke_implIbRZZ21llvmGetPassPluginInfoENKUlRN4llvm11PassBuilderEE_clES2_EUlNS0_9StringRefERNS0_11PassManagerINS0_6ModuleENS0_15AnalysisManagerIS6_JEEEJEEENS0_8ArrayRefINS1_15PipelineElementEEEE_JS4_SA_SD_EET_St14__invoke_otherOT0_DpOT1_(i64* %8, i64 %6, i64** %4, i64 %2), !insn.addr !255
  %10 = sext i1 %9 to i64, !insn.addr !255
  ret i64 %10, !insn.addr !256
}

define i64** @_ZNSt9_Any_data9_M_accessIPZZ21llvmGetPassPluginInfoENKUlRN4llvm11PassBuilderEE_clES3_EUlNS1_9StringRefERNS1_11PassManagerINS1_6ModuleENS1_15AnalysisManagerIS7_JEEEJEEENS1_8ArrayRefINS2_15PipelineElementEEEE_EERT_v(i64* %result) local_unnamed_addr {
dec_label_pc_d12:
  %0 = call i64 @_ZNSt9_Any_data9_M_accessEv(i64* %result), !insn.addr !257
  %1 = inttoptr i64 %0 to i64**, !insn.addr !258
  ret i64** %1, !insn.addr !258
}

define i64 @_ZNSt14_Function_base13_Base_managerIZZ21llvmGetPassPluginInfoENKUlRN4llvm11PassBuilderEE_clES3_EUlNS1_9StringRefERNS1_11PassManagerINS1_6ModuleENS1_15AnalysisManagerIS7_JEEEJEEENS1_8ArrayRefINS2_15PipelineElementEEEE_E10_M_managerERSt9_Any_dataRKSH_St18_Manager_operation(i64* %arg1, i64* %arg2, i64 %arg3) local_unnamed_addr {
dec_label_pc_d2c:
  %0 = trunc i64 %arg3 to i32, !insn.addr !259
  %1 = icmp eq i32 %0, 3, !insn.addr !259
  br i1 %1, label %dec_label_pc_dba, label %dec_label_pc_d48, !insn.addr !260

dec_label_pc_d48:                                 ; preds = %dec_label_pc_d2c
  %2 = icmp sgt i32 %0, 3, !insn.addr !261
  br i1 %2, label %dec_label_pc_dc7, label %dec_label_pc_d4d, !insn.addr !261

dec_label_pc_d4d:                                 ; preds = %dec_label_pc_d48
  switch i32 %0, label %dec_label_pc_dc7 [
    i32 2, label %dec_label_pc_d9a
    i32 0, label %dec_label_pc_d62
    i32 1, label %dec_label_pc_d7a
  ]

dec_label_pc_d62:                                 ; preds = %dec_label_pc_d4d
  %3 = call i64** @_ZNSt9_Any_data9_M_accessIPKSt9type_infoEERT_v(i64* %arg1), !insn.addr !262
  %4 = bitcast i64** %3 to i64*, !insn.addr !263
  store i64 ptrtoint (i64* @global_var_4968 to i64), i64* %4, align 8, !insn.addr !263
  br label %dec_label_pc_dc7, !insn.addr !264

dec_label_pc_d7a:                                 ; preds = %dec_label_pc_d4d
  %5 = call i64 @_ZNSt14_Function_base13_Base_managerIZZ21llvmGetPassPluginInfoENKUlRN4llvm11PassBuilderEE_clES3_EUlNS1_9StringRefERNS1_11PassManagerINS1_6ModuleENS1_15AnalysisManagerIS7_JEEEJEEENS1_8ArrayRefINS2_15PipelineElementEEEE_E14_M_get_pointerERKSt9_Any_data(i64* %arg2), !insn.addr !265
  %6 = call i64** @_ZNSt9_Any_data9_M_accessIPZZ21llvmGetPassPluginInfoENKUlRN4llvm11PassBuilderEE_clES3_EUlNS1_9StringRefERNS1_11PassManagerINS1_6ModuleENS1_15AnalysisManagerIS7_JEEEJEEENS1_8ArrayRefINS2_15PipelineElementEEEE_EERT_v(i64* %arg1), !insn.addr !266
  %7 = bitcast i64** %6 to i64*, !insn.addr !267
  store i64 %5, i64* %7, align 8, !insn.addr !267
  br label %dec_label_pc_dc7, !insn.addr !268

dec_label_pc_d9a:                                 ; preds = %dec_label_pc_d4d
  %8 = call i64 @_ZNSt14_Function_base13_Base_managerIZZ21llvmGetPassPluginInfoENKUlRN4llvm11PassBuilderEE_clES3_EUlNS1_9StringRefERNS1_11PassManagerINS1_6ModuleENS1_15AnalysisManagerIS7_JEEEJEEENS1_8ArrayRefINS2_15PipelineElementEEEE_E14_M_get_pointerERKSt9_Any_data(i64* %arg2), !insn.addr !269
  %9 = inttoptr i64 %8 to i64**, !insn.addr !270
  call void @_ZNSt14_Function_base13_Base_managerIZZ21llvmGetPassPluginInfoENKUlRN4llvm11PassBuilderEE_clES3_EUlNS1_9StringRefERNS1_11PassManagerINS1_6ModuleENS1_15AnalysisManagerIS7_JEEEJEEENS1_8ArrayRefINS2_15PipelineElementEEEE_E15_M_init_functorIRKSF_EEvRSt9_Any_dataOT_(i64* %arg1, i64** %9), !insn.addr !270
  br label %dec_label_pc_dc7, !insn.addr !271

dec_label_pc_dba:                                 ; preds = %dec_label_pc_d2c
  %10 = call i64 @_ZNSt14_Function_base13_Base_managerIZZ21llvmGetPassPluginInfoENKUlRN4llvm11PassBuilderEE_clES3_EUlNS1_9StringRefERNS1_11PassManagerINS1_6ModuleENS1_15AnalysisManagerIS7_JEEEJEEENS1_8ArrayRefINS2_15PipelineElementEEEE_E10_M_destroyERSt9_Any_dataSt17integral_constantIbLb1EE(i64* %arg1, i64 ptrtoint (i32* @0 to i64)), !insn.addr !272
  br label %dec_label_pc_dc7, !insn.addr !273

dec_label_pc_dc7:                                 ; preds = %dec_label_pc_d4d, %dec_label_pc_dba, %dec_label_pc_d9a, %dec_label_pc_d7a, %dec_label_pc_d62, %dec_label_pc_d48
  ret i64 0, !insn.addr !274

; uselistorder directives
  uselistorder i64** (i64*)* @_ZNSt9_Any_data9_M_accessIPZZ21llvmGetPassPluginInfoENKUlRN4llvm11PassBuilderEE_clES3_EUlNS1_9StringRefERNS1_11PassManagerINS1_6ModuleENS1_15AnalysisManagerIS7_JEEEJEEENS1_8ArrayRefINS2_15PipelineElementEEEE_EERT_v, { 1, 0 }
  uselistorder i64 (i64*)* @_ZNSt14_Function_base13_Base_managerIZZ21llvmGetPassPluginInfoENKUlRN4llvm11PassBuilderEE_clES3_EUlNS1_9StringRefERNS1_11PassManagerINS1_6ModuleENS1_15AnalysisManagerIS7_JEEEJEEENS1_8ArrayRefINS2_15PipelineElementEEEE_E14_M_get_pointerERKSt9_Any_data, { 3, 2, 1, 0 }
  uselistorder i64** (i64*)* @_ZNSt9_Any_data9_M_accessIPKSt9type_infoEERT_v, { 1, 0 }
  uselistorder i32 3, { 3, 0, 1, 4, 2 }
  uselistorder i64* %arg1, { 0, 1, 3, 2 }
  uselistorder label %dec_label_pc_dc7, { 1, 2, 3, 4, 0, 5 }
}

define i64 @_ZN4llvm21iterator_adaptor_baseINS_20filter_iterator_baseINS_14ilist_iteratorINS_12ilist_detail12node_optionsINS_9DbgRecordELb0ELb0EvLb0EvEELb0ELb0EEEZNS_L13filterDbgVarsENS_14iterator_rangeIS7_EEEUlRS5_E_St26bidirectional_iterator_tagEES7_SC_S5_lPS5_SA_EC2ES7_(i64* %result, i64 %arg2) local_unnamed_addr {
dec_label_pc_dd2:
  %stack_var_-24 = alloca i64, align 8
  store i64 %arg2, i64* %stack_var_-24, align 8, !insn.addr !275
  %0 = bitcast i64* %stack_var_-24 to i64**, !insn.addr !276
  %1 = call i64* @_ZSt4moveIRN4llvm14ilist_iteratorINS0_12ilist_detail12node_optionsINS0_9DbgRecordELb0ELb0EvLb0EvEELb0ELb0EEEEONSt16remove_referenceIT_E4typeEOS9_(i64** nonnull %0), !insn.addr !276
  %2 = load i64, i64* %1, align 8, !insn.addr !277
  store i64 %2, i64* %result, align 8, !insn.addr !278
  ret i64 %2, !insn.addr !279

; uselistorder directives
  uselistorder i64 %2, { 1, 0 }
}

define i64 @_ZN4llvm20filter_iterator_baseINS_14ilist_iteratorINS_12ilist_detail12node_optionsINS_9DbgRecordELb0ELb0EvLb0EvEELb0ELb0EEEZNS_L13filterDbgVarsENS_14iterator_rangeIS6_EEEUlRS4_E_St26bidirectional_iterator_tagE13findNextValidEv(i64* %result) local_unnamed_addr {
dec_label_pc_dfc:
  %0 = ptrtoint i64* %result to i64
  %1 = add i64 %0, 16
  %2 = add i64 %0, 8, !insn.addr !280
  %3 = inttoptr i64 %2 to i64*, !insn.addr !281
  %4 = call i64 @_ZN4llvmneERKNS_14ilist_iteratorINS_12ilist_detail12node_optionsINS_9DbgRecordELb0ELb0EvLb0EvEELb0ELb0EEES7_(i64* %result, i64* %3), !insn.addr !281
  %5 = trunc i64 %4 to i8, !insn.addr !282
  %6 = icmp eq i8 %5, 0, !insn.addr !282
  br i1 %6, label %dec_label_pc_e68, label %dec_label_pc_e32, !insn.addr !283

dec_label_pc_e0b:                                 ; preds = %dec_label_pc_e32
  %7 = call i64 @_ZN4llvm21iterator_adaptor_baseINS_20filter_iterator_baseINS_14ilist_iteratorINS_12ilist_detail12node_optionsINS_9DbgRecordELb0ELb0EvLb0EvEELb0ELb0EEEZNS_L13filterDbgVarsENS_14iterator_rangeIS7_EEEUlRS5_E_St26bidirectional_iterator_tagEES7_SC_S5_lPS5_SA_EppEv(i64* %result), !insn.addr !284
  %8 = call i64 @_ZN4llvmneERKNS_14ilist_iteratorINS_12ilist_detail12node_optionsINS_9DbgRecordELb0ELb0EvLb0EvEELb0ELb0EEES7_(i64* %result, i64* %3), !insn.addr !281
  %9 = trunc i64 %8 to i8, !insn.addr !282
  %10 = icmp eq i8 %9, 0, !insn.addr !282
  br i1 %10, label %dec_label_pc_e68, label %dec_label_pc_e32, !insn.addr !283

dec_label_pc_e32:                                 ; preds = %dec_label_pc_dfc, %dec_label_pc_e0b
  %11 = call i64 @_ZNK4llvm14ilist_iteratorINS_12ilist_detail12node_optionsINS_9DbgRecordELb0ELb0EvLb0EvEELb0ELb0EEdeEv(i64* %result), !insn.addr !285
  %12 = call i64 @_GLOBAL_OFFSET_TABLE_.1(i64 %1, i64 %11), !insn.addr !286
  %13 = trunc i64 %12 to i8
  %14 = icmp eq i8 %13, 1, !insn.addr !287
  br i1 %14, label %dec_label_pc_e68, label %dec_label_pc_e0b, !insn.addr !288

dec_label_pc_e68:                                 ; preds = %dec_label_pc_e0b, %dec_label_pc_e32, %dec_label_pc_dfc
  ret i64 0, !insn.addr !289

; uselistorder directives
  uselistorder i64* %3, { 1, 0 }
  uselistorder i64 %0, { 1, 0 }
  uselistorder i64 (i64*, i64*)* @_ZN4llvmneERKNS_14ilist_iteratorINS_12ilist_detail12node_optionsINS_9DbgRecordELb0ELb0EvLb0EvEELb0ELb0EEES7_, { 1, 0 }
  uselistorder i64* %result, { 2, 3, 1, 0, 4 }
  uselistorder label %dec_label_pc_e68, { 1, 0, 2 }
  uselistorder label %dec_label_pc_e32, { 1, 0 }
}

define i64 @_ZNK4llvm14iterator_rangeINS_20filter_iterator_implINS_14ilist_iteratorINS_12ilist_detail12node_optionsINS_9DbgRecordELb0ELb0EvLb0EvEELb0ELb0EEEZNS_L13filterDbgVarsENS0_IS7_EEEUlRS5_E_St26bidirectional_iterator_tagEEE5beginEv(i64* %this, i64* %result) local_unnamed_addr {
dec_label_pc_e70:
  %0 = ptrtoint i64* %result to i64
  %1 = ptrtoint i64* %this to i64
  %2 = add i64 %0, 8, !insn.addr !290
  %3 = inttoptr i64 %2 to i64*, !insn.addr !290
  %4 = load i64, i64* %3, align 8, !insn.addr !290
  store i64 %0, i64* %this, align 8, !insn.addr !291
  %5 = add i64 %1, 8, !insn.addr !292
  %6 = inttoptr i64 %5 to i64*, !insn.addr !292
  store i64 %4, i64* %6, align 8, !insn.addr !292
  %7 = add i64 %0, 16, !insn.addr !293
  %8 = inttoptr i64 %7 to i64*, !insn.addr !293
  %9 = load i64, i64* %8, align 8, !insn.addr !293
  %10 = add i64 %1, 16, !insn.addr !294
  %11 = inttoptr i64 %10 to i64*, !insn.addr !294
  store i64 %9, i64* %11, align 8, !insn.addr !294
  ret i64 %1, !insn.addr !295

; uselistorder directives
  uselistorder i64 %1, { 0, 2, 1 }
  uselistorder i64 %0, { 2, 0, 1 }
}

define i64 @_ZNSt8optionalIZN4llvmL13filterDbgVarsENS0_14iterator_rangeINS0_14ilist_iteratorINS0_12ilist_detail12node_optionsINS0_9DbgRecordELb0ELb0EvLb0EvEELb0ELb0EEEEEEUlRS5_E0_EC1IJRKSA_ELb0EEESt10in_place_tDpOT_(i64 %arg1, i64 %arg2) local_unnamed_addr {
dec_label_pc_ea0:
  %0 = inttoptr i64 %arg2 to i64*, !insn.addr !296
  %1 = call i64** @_ZSt7forwardIRKZN4llvmL13filterDbgVarsENS0_14iterator_rangeINS0_14ilist_iteratorINS0_12ilist_detail12node_optionsINS0_9DbgRecordELb0ELb0EvLb0EvEELb0ELb0EEEEEEUlRS5_E0_EOT_RNSt16remove_referenceISD_E4typeE(i64* %0), !insn.addr !296
  %2 = ptrtoint i64** %1 to i64, !insn.addr !296
  %3 = call i64 @_ZNSt14_Optional_baseIZN4llvmL13filterDbgVarsENS0_14iterator_rangeINS0_14ilist_iteratorINS0_12ilist_detail12node_optionsINS0_9DbgRecordELb0ELb0EvLb0EvEELb0ELb0EEEEEEUlRS5_E0_Lb1ELb1EEC2IJRKSA_ELb0EEESt10in_place_tDpOT_(i64 %arg1, i64 %2), !insn.addr !297
  ret i64 %3, !insn.addr !298
}

define i64 @_ZNK4llvm14iterator_rangeINS_20filter_iterator_implINS_14ilist_iteratorINS_12ilist_detail12node_optionsINS_9DbgRecordELb0ELb0EvLb0EvEELb0ELb0EEEZNS_L13filterDbgVarsENS0_IS7_EEEUlRS5_E_St26bidirectional_iterator_tagEEE3endEv(i64* %this, i64* %result) local_unnamed_addr {
dec_label_pc_ed4:
  %0 = ptrtoint i64* %result to i64
  %1 = ptrtoint i64* %this to i64
  %2 = add i64 %0, 24, !insn.addr !299
  %3 = inttoptr i64 %2 to i64*, !insn.addr !299
  %4 = load i64, i64* %3, align 8, !insn.addr !299
  %5 = add i64 %0, 32, !insn.addr !300
  %6 = inttoptr i64 %5 to i64*, !insn.addr !300
  %7 = load i64, i64* %6, align 8, !insn.addr !300
  store i64 %4, i64* %this, align 8, !insn.addr !301
  %8 = add i64 %1, 8, !insn.addr !302
  %9 = inttoptr i64 %8 to i64*, !insn.addr !302
  store i64 %7, i64* %9, align 8, !insn.addr !302
  %10 = add i64 %0, 40, !insn.addr !303
  %11 = inttoptr i64 %10 to i64*, !insn.addr !303
  %12 = load i64, i64* %11, align 8, !insn.addr !303
  %13 = add i64 %1, 16, !insn.addr !304
  %14 = inttoptr i64 %13 to i64*, !insn.addr !304
  store i64 %12, i64* %14, align 8, !insn.addr !304
  ret i64 %1, !insn.addr !305

; uselistorder directives
  uselistorder i64 %1, { 0, 2, 1 }
  uselistorder i64 %0, { 2, 1, 0 }
}

define i64* @_ZNKSt9_Any_data9_M_accessIZZ21llvmGetPassPluginInfoENKUlRN4llvm11PassBuilderEE_clES3_EUlNS1_9StringRefERNS1_11PassManagerINS1_6ModuleENS1_15AnalysisManagerIS7_JEEEJEEENS1_8ArrayRefINS2_15PipelineElementEEEE_EERKT_v(i64* %result) local_unnamed_addr {
dec_label_pc_f06:
  %0 = call i64 @_ZNKSt9_Any_data9_M_accessEv(i64* %result), !insn.addr !306
  %1 = inttoptr i64 %0 to i64*, !insn.addr !307
  ret i64* %1, !insn.addr !307
}

define i64* @_ZSt11__addressofIKZZ21llvmGetPassPluginInfoENKUlRN4llvm11PassBuilderEE_clES2_EUlNS0_9StringRefERNS0_11PassManagerINS0_6ModuleENS0_15AnalysisManagerIS6_JEEEJEEENS0_8ArrayRefINS1_15PipelineElementEEEE_EPT_RSG_(i64* %arg1) local_unnamed_addr {
dec_label_pc_f20:
  ret i64* %arg1, !insn.addr !308
}

define i64** @_ZSt7forwardIRZZ21llvmGetPassPluginInfoENKUlRN4llvm11PassBuilderEE_clES2_EUlNS0_9StringRefERNS0_11PassManagerINS0_6ModuleENS0_15AnalysisManagerIS6_JEEEJEEENS0_8ArrayRefINS1_15PipelineElementEEEE_EOT_RNSt16remove_referenceISG_E4typeE(i64* %arg1) local_unnamed_addr {
dec_label_pc_f2e:
  %0 = bitcast i64* %arg1 to i64**, !insn.addr !309
  ret i64** %0, !insn.addr !309
}

define i1 @_ZSt13__invoke_implIbRZZ21llvmGetPassPluginInfoENKUlRN4llvm11PassBuilderEE_clES2_EUlNS0_9StringRefERNS0_11PassManagerINS0_6ModuleENS0_15AnalysisManagerIS6_JEEEJEEENS0_8ArrayRefINS1_15PipelineElementEEEE_JS4_SA_SD_EET_St14__invoke_otherOT0_DpOT1_(i64* %result, i64 %arg2, i64** %arg3, i64 %arg4) local_unnamed_addr {
dec_label_pc_f3c:
  %0 = call i64** @_ZSt7forwardIRZZ21llvmGetPassPluginInfoENKUlRN4llvm11PassBuilderEE_clES2_EUlNS0_9StringRefERNS0_11PassManagerINS0_6ModuleENS0_15AnalysisManagerIS6_JEEEJEEENS0_8ArrayRefINS1_15PipelineElementEEEE_EOT_RNSt16remove_referenceISG_E4typeE(i64* %result), !insn.addr !310
  %1 = ptrtoint i64** %0 to i64, !insn.addr !310
  %2 = inttoptr i64 %arg4 to i64*, !insn.addr !311
  %3 = call i64* @_ZSt7forwardIN4llvm8ArrayRefINS0_11PassBuilder15PipelineElementEEEEOT_RNSt16remove_referenceIS5_E4typeE(i64* %2), !insn.addr !311
  %4 = ptrtoint i64* %3 to i64, !insn.addr !311
  %5 = bitcast i64** %arg3 to i64*, !insn.addr !312
  %6 = call i64** @_ZSt7forwardIRN4llvm11PassManagerINS0_6ModuleENS0_15AnalysisManagerIS2_JEEEJEEEEOT_RNSt16remove_referenceIS7_E4typeE(i64* %5), !insn.addr !312
  %7 = ptrtoint i64** %6 to i64, !insn.addr !312
  %8 = inttoptr i64 %arg2 to i64*, !insn.addr !313
  %9 = call i64* @_ZSt7forwardIN4llvm9StringRefEEOT_RNSt16remove_referenceIS2_E4typeE(i64* %8), !insn.addr !313
  %10 = ptrtoint i64* %9 to i64, !insn.addr !313
  %11 = load i64, i64* %3, align 8, !insn.addr !314
  %12 = add i64 %4, 8, !insn.addr !315
  %13 = inttoptr i64 %12 to i64*, !insn.addr !315
  %14 = load i64, i64* %13, align 8, !insn.addr !315
  %15 = load i64, i64* %9, align 8, !insn.addr !316
  %16 = add i64 %10, 8, !insn.addr !317
  %17 = inttoptr i64 %16 to i64*, !insn.addr !317
  %18 = load i64, i64* %17, align 8, !insn.addr !317
  %19 = call i64 @_ZZZ21llvmGetPassPluginInfoENKUlRN4llvm11PassBuilderEE_clES1_ENKUlNS_9StringRefERNS_11PassManagerINS_6ModuleENS_15AnalysisManagerIS5_JEEEJEEENS_8ArrayRefINS0_15PipelineElementEEEE_clES3_S9_SC_(i64 %1, i64 %15, i64 %18, i64 %7, i64 %11, i64 %14), !insn.addr !318
  %20 = urem i64 %19, 2
  %21 = icmp ne i64 %20, 0, !insn.addr !319
  ret i1 %21, !insn.addr !319

; uselistorder directives
  uselistorder i64** (i64*)* @_ZSt7forwardIRN4llvm11PassManagerINS0_6ModuleENS0_15AnalysisManagerIS2_JEEEJEEEEOT_RNSt16remove_referenceIS7_E4typeE, { 2, 1, 0 }
  uselistorder i64* (i64*)* @_ZSt7forwardIN4llvm8ArrayRefINS0_11PassBuilder15PipelineElementEEEEOT_RNSt16remove_referenceIS5_E4typeE, { 2, 1, 0 }
  uselistorder i64** (i64*)* @_ZSt7forwardIRZZ21llvmGetPassPluginInfoENKUlRN4llvm11PassBuilderEE_clES2_EUlNS0_9StringRefERNS0_11PassManagerINS0_6ModuleENS0_15AnalysisManagerIS6_JEEEJEEENS0_8ArrayRefINS1_15PipelineElementEEEE_EOT_RNSt16remove_referenceISG_E4typeE, { 1, 0 }
}

define void @_ZNSt14_Function_base13_Base_managerIZZ21llvmGetPassPluginInfoENKUlRN4llvm11PassBuilderEE_clES3_EUlNS1_9StringRefERNS1_11PassManagerINS1_6ModuleENS1_15AnalysisManagerIS7_JEEEJEEENS1_8ArrayRefINS2_15PipelineElementEEEE_E15_M_init_functorIRKSF_EEvRSt9_Any_dataOT_(i64* %arg1, i64** %arg2) local_unnamed_addr {
dec_label_pc_fc2:
  %0 = bitcast i64** %arg2 to i64*
  %1 = call i64** @_ZSt7forwardIRKZZ21llvmGetPassPluginInfoENKUlRN4llvm11PassBuilderEE_clES2_EUlNS0_9StringRefERNS0_11PassManagerINS0_6ModuleENS0_15AnalysisManagerIS6_JEEEJEEENS0_8ArrayRefINS1_15PipelineElementEEEE_EOT_RNSt16remove_referenceISH_E4typeE(i64* %0), !insn.addr !320
  call void @_ZNSt14_Function_base13_Base_managerIZZ21llvmGetPassPluginInfoENKUlRN4llvm11PassBuilderEE_clES3_EUlNS1_9StringRefERNS1_11PassManagerINS1_6ModuleENS1_15AnalysisManagerIS7_JEEEJEEENS1_8ArrayRefINS2_15PipelineElementEEEE_E9_M_createIRKSF_EEvRSt9_Any_dataOT_St17integral_constantIbLb1EE(i64* %arg1, i64** %1, i64 ptrtoint (i32* @0 to i64)), !insn.addr !321
  ret void, !insn.addr !322
}

define i64 @_ZNSt14_Function_base13_Base_managerIZZ21llvmGetPassPluginInfoENKUlRN4llvm11PassBuilderEE_clES3_EUlNS1_9StringRefERNS1_11PassManagerINS1_6ModuleENS1_15AnalysisManagerIS7_JEEEJEEENS1_8ArrayRefINS2_15PipelineElementEEEE_E10_M_destroyERSt9_Any_dataSt17integral_constantIbLb1EE(i64* %arg1, i64 %arg2) local_unnamed_addr {
dec_label_pc_ff3:
  %0 = call i64* @_ZNSt9_Any_data9_M_accessIZZ21llvmGetPassPluginInfoENKUlRN4llvm11PassBuilderEE_clES3_EUlNS1_9StringRefERNS1_11PassManagerINS1_6ModuleENS1_15AnalysisManagerIS7_JEEEJEEENS1_8ArrayRefINS2_15PipelineElementEEEE_EERT_v(i64* %arg1), !insn.addr !323
  %1 = ptrtoint i64* %0 to i64, !insn.addr !323
  ret i64 %1, !insn.addr !324
}

define i64 @_ZN4llvm21iterator_adaptor_baseINS_20filter_iterator_baseINS_14ilist_iteratorINS_12ilist_detail12node_optionsINS_9DbgRecordELb0ELb0EvLb0EvEELb0ELb0EEEZNS_L13filterDbgVarsENS_14iterator_rangeIS7_EEEUlRS5_E_St26bidirectional_iterator_tagEES7_SC_S5_lPS5_SA_EppEv(i64* %result) local_unnamed_addr {
dec_label_pc_100e:
  %0 = ptrtoint i64* %result to i64
  %1 = call i64 @_ZN4llvm14ilist_iteratorINS_12ilist_detail12node_optionsINS_9DbgRecordELb0ELb0EvLb0EvEELb0ELb0EEppEv(i64* %result), !insn.addr !325
  ret i64 %0, !insn.addr !326
}

define i64** @_ZSt7forwardIRKZN4llvmL13filterDbgVarsENS0_14iterator_rangeINS0_14ilist_iteratorINS0_12ilist_detail12node_optionsINS0_9DbgRecordELb0ELb0EvLb0EvEELb0ELb0EEEEEEUlRS5_E0_EOT_RNSt16remove_referenceISD_E4typeE(i64* %arg1) local_unnamed_addr {
dec_label_pc_102c:
  %0 = bitcast i64* %arg1 to i64**, !insn.addr !327
  ret i64** %0, !insn.addr !327
}

define i64 @_ZNSt17_Optional_payloadIZN4llvmL13filterDbgVarsENS0_14iterator_rangeINS0_14ilist_iteratorINS0_12ilist_detail12node_optionsINS0_9DbgRecordELb0ELb0EvLb0EvEELb0ELb0EEEEEEUlRS5_E0_Lb1ELb0ELb0EECI1St22_Optional_payload_baseISA_EIJRKSA_EEESt10in_place_tDpOT_(i64 %arg1, i64 %arg2) local_unnamed_addr {
dec_label_pc_103a:
  %0 = call i64 @_ZNSt22_Optional_payload_baseIZN4llvmL13filterDbgVarsENS0_14iterator_rangeINS0_14ilist_iteratorINS0_12ilist_detail12node_optionsINS0_9DbgRecordELb0ELb0EvLb0EvEELb0ELb0EEEEEEUlRS5_E0_EC2IJRKSA_EEESt10in_place_tDpOT_(i64 %arg1, i64 %arg2), !insn.addr !328
  ret i64 %0, !insn.addr !329
}

define i64 @_ZNSt14_Optional_baseIZN4llvmL13filterDbgVarsENS0_14iterator_rangeINS0_14ilist_iteratorINS0_12ilist_detail12node_optionsINS0_9DbgRecordELb0ELb0EvLb0EvEELb0ELb0EEEEEEUlRS5_E0_Lb1ELb1EEC2IJRKSA_ELb0EEESt10in_place_tDpOT_(i64 %arg1, i64 %arg2) local_unnamed_addr {
dec_label_pc_1060:
  %0 = inttoptr i64 %arg2 to i64*, !insn.addr !330
  %1 = call i64** @_ZSt7forwardIRKZN4llvmL13filterDbgVarsENS0_14iterator_rangeINS0_14ilist_iteratorINS0_12ilist_detail12node_optionsINS0_9DbgRecordELb0ELb0EvLb0EvEELb0ELb0EEEEEEUlRS5_E0_EOT_RNSt16remove_referenceISD_E4typeE(i64* %0), !insn.addr !330
  %2 = ptrtoint i64** %1 to i64, !insn.addr !330
  %3 = call i64 @_ZNSt17_Optional_payloadIZN4llvmL13filterDbgVarsENS0_14iterator_rangeINS0_14ilist_iteratorINS0_12ilist_detail12node_optionsINS0_9DbgRecordELb0ELb0EvLb0EvEELb0ELb0EEEEEEUlRS5_E0_Lb1ELb0ELb0EECI1St22_Optional_payload_baseISA_EIJRKSA_EEESt10in_place_tDpOT_(i64 %arg1, i64 %2), !insn.addr !331
  ret i64 %3, !insn.addr !332
}

define i64** @_ZSt7forwardIRKZZ21llvmGetPassPluginInfoENKUlRN4llvm11PassBuilderEE_clES2_EUlNS0_9StringRefERNS0_11PassManagerINS0_6ModuleENS0_15AnalysisManagerIS6_JEEEJEEENS0_8ArrayRefINS1_15PipelineElementEEEE_EOT_RNSt16remove_referenceISH_E4typeE(i64* %arg1) local_unnamed_addr {
dec_label_pc_1093:
  %0 = bitcast i64* %arg1 to i64**, !insn.addr !333
  ret i64** %0, !insn.addr !333
}

define void @_ZNSt14_Function_base13_Base_managerIZZ21llvmGetPassPluginInfoENKUlRN4llvm11PassBuilderEE_clES3_EUlNS1_9StringRefERNS1_11PassManagerINS1_6ModuleENS1_15AnalysisManagerIS7_JEEEJEEENS1_8ArrayRefINS2_15PipelineElementEEEE_E9_M_createIRKSF_EEvRSt9_Any_dataOT_St17integral_constantIbLb1EE(i64* %arg1, i64** %arg2, i64 %arg3) local_unnamed_addr {
dec_label_pc_10a1:
  %0 = call i64 @_ZNSt9_Any_data9_M_accessEv(i64* %arg1), !insn.addr !334
  %1 = inttoptr i64 %0 to i64*, !insn.addr !335
  %2 = call i64 @_ZnwmPv(i64 1, i64* %1), !insn.addr !335
  %3 = bitcast i64** %arg2 to i64*
  %4 = call i64** @_ZSt7forwardIRKZZ21llvmGetPassPluginInfoENKUlRN4llvm11PassBuilderEE_clES2_EUlNS0_9StringRefERNS0_11PassManagerINS0_6ModuleENS0_15AnalysisManagerIS6_JEEEJEEENS0_8ArrayRefINS1_15PipelineElementEEEE_EOT_RNSt16remove_referenceISH_E4typeE(i64* %3), !insn.addr !336
  ret void, !insn.addr !337

; uselistorder directives
  uselistorder i64** (i64*)* @_ZSt7forwardIRKZZ21llvmGetPassPluginInfoENKUlRN4llvm11PassBuilderEE_clES2_EUlNS0_9StringRefERNS0_11PassManagerINS0_6ModuleENS0_15AnalysisManagerIS6_JEEEJEEENS0_8ArrayRefINS1_15PipelineElementEEEE_EOT_RNSt16remove_referenceISH_E4typeE, { 1, 0 }
}

define i64* @_ZNSt9_Any_data9_M_accessIZZ21llvmGetPassPluginInfoENKUlRN4llvm11PassBuilderEE_clES3_EUlNS1_9StringRefERNS1_11PassManagerINS1_6ModuleENS1_15AnalysisManagerIS7_JEEEJEEENS1_8ArrayRefINS2_15PipelineElementEEEE_EERT_v(i64* %result) local_unnamed_addr {
dec_label_pc_10da:
  %0 = call i64 @_ZNSt9_Any_data9_M_accessEv(i64* %result), !insn.addr !338
  %1 = inttoptr i64 %0 to i64*, !insn.addr !339
  ret i64* %1, !insn.addr !339
}

define i64 @_ZNSt22_Optional_payload_baseIZN4llvmL13filterDbgVarsENS0_14iterator_rangeINS0_14ilist_iteratorINS0_12ilist_detail12node_optionsINS0_9DbgRecordELb0ELb0EvLb0EvEELb0ELb0EEEEEEUlRS5_E0_EC2IJRKSA_EEESt10in_place_tDpOT_(i64 %arg1, i64 %arg2) local_unnamed_addr {
dec_label_pc_10f4:
  %0 = inttoptr i64 %arg2 to i64*, !insn.addr !340
  %1 = call i64** @_ZSt7forwardIRKZN4llvmL13filterDbgVarsENS0_14iterator_rangeINS0_14ilist_iteratorINS0_12ilist_detail12node_optionsINS0_9DbgRecordELb0ELb0EvLb0EvEELb0ELb0EEEEEEUlRS5_E0_EOT_RNSt16remove_referenceISD_E4typeE(i64* %0), !insn.addr !340
  %2 = ptrtoint i64** %1 to i64, !insn.addr !340
  %3 = call i64 @_ZNSt22_Optional_payload_baseIZN4llvmL13filterDbgVarsENS0_14iterator_rangeINS0_14ilist_iteratorINS0_12ilist_detail12node_optionsINS0_9DbgRecordELb0ELb0EvLb0EvEELb0ELb0EEEEEEUlRS5_E0_E8_StorageISA_Lb1EEC1IJRKSA_EEESt10in_place_tDpOT_(i64 %arg1, i64 %2), !insn.addr !341
  %4 = add i64 %arg1, 1, !insn.addr !342
  %5 = inttoptr i64 %4 to i8*, !insn.addr !342
  store i8 1, i8* %5, align 1, !insn.addr !342
  ret i64 %arg1, !insn.addr !343

; uselistorder directives
  uselistorder i64 %arg1, { 1, 0, 2 }
}

define i64 @_ZNSt22_Optional_payload_baseIZN4llvmL13filterDbgVarsENS0_14iterator_rangeINS0_14ilist_iteratorINS0_12ilist_detail12node_optionsINS0_9DbgRecordELb0ELb0EvLb0EvEELb0ELb0EEEEEEUlRS5_E0_E8_StorageISA_Lb1EEC1IJRKSA_EEESt10in_place_tDpOT_(i64 %arg1, i64 %arg2) local_unnamed_addr {
dec_label_pc_1130:
  %0 = inttoptr i64 %arg2 to i64*, !insn.addr !344
  %1 = call i64** @_ZSt7forwardIRKZN4llvmL13filterDbgVarsENS0_14iterator_rangeINS0_14ilist_iteratorINS0_12ilist_detail12node_optionsINS0_9DbgRecordELb0ELb0EvLb0EvEELb0ELb0EEEEEEUlRS5_E0_EOT_RNSt16remove_referenceISD_E4typeE(i64* %0), !insn.addr !344
  %2 = ptrtoint i64** %1 to i64, !insn.addr !344
  ret i64 %2, !insn.addr !345

; uselistorder directives
  uselistorder i64** (i64*)* @_ZSt7forwardIRKZN4llvmL13filterDbgVarsENS0_14iterator_rangeINS0_14ilist_iteratorINS0_12ilist_detail12node_optionsINS0_9DbgRecordELb0ELb0EvLb0EvEELb0ELb0EEEEEEUlRS5_E0_EOT_RNSt16remove_referenceISD_E4typeE, { 3, 2, 1, 0 }
}

define i64 @_ZSt23__is_constant_evaluatedv() local_unnamed_addr {
dec_label_pc_114f:
  ret i64 0, !insn.addr !346
}

define i64 @_ZNSt11char_traitsIcE6lengthEPKc(i8* %arg1) local_unnamed_addr {
dec_label_pc_115e:
  %storemerge.reg2mem = alloca i64, !insn.addr !347
  %0 = call i64 @_ZSt23__is_constant_evaluatedv(), !insn.addr !348
  %1 = trunc i64 %0 to i8, !insn.addr !349
  %2 = icmp eq i8 %1, 0, !insn.addr !349
  br i1 %2, label %dec_label_pc_1185, label %dec_label_pc_1177, !insn.addr !350

dec_label_pc_1177:                                ; preds = %dec_label_pc_115e
  %3 = call i64 @_ZN9__gnu_cxx11char_traitsIcE6lengthEPKc(i8* %arg1), !insn.addr !351
  store i64 %3, i64* %storemerge.reg2mem, !insn.addr !352
  br label %dec_label_pc_1192, !insn.addr !352

dec_label_pc_1185:                                ; preds = %dec_label_pc_115e
  %4 = ptrtoint i8* %arg1 to i64, !insn.addr !353
  %5 = call i64 @strlen(i64 %4), !insn.addr !354
  store i64 %5, i64* %storemerge.reg2mem, !insn.addr !355
  br label %dec_label_pc_1192, !insn.addr !355

dec_label_pc_1192:                                ; preds = %dec_label_pc_1185, %dec_label_pc_1177
  %storemerge.reload = load i64, i64* %storemerge.reg2mem
  ret i64 %storemerge.reload, !insn.addr !356

; uselistorder directives
  uselistorder i64* %storemerge.reg2mem, { 0, 2, 1 }
}

define i64 @_ZnwmPv(i64 %arg1, i64* %arg2) local_unnamed_addr {
dec_label_pc_1194:
  %0 = ptrtoint i64* %arg2 to i64
  ret i64 %0, !insn.addr !357
}

define i64 @_ZNSt9_Any_data9_M_accessEv(i64* %result) local_unnamed_addr {
dec_label_pc_19c0:
  %0 = ptrtoint i64* %result to i64
  ret i64 %0, !insn.addr !358
}

define i64 @_ZNKSt9_Any_data9_M_accessEv(i64* %result) local_unnamed_addr {
dec_label_pc_19d2:
  %0 = ptrtoint i64* %result to i64
  ret i64 %0, !insn.addr !359
}

define i64 @_ZNSt14_Function_baseD1Ev(i64* %result) local_unnamed_addr {
dec_label_pc_19e4:
  %0 = ptrtoint i64* %result to i64
  %1 = add i64 %0, 16, !insn.addr !360
  %2 = inttoptr i64 %1 to i64*, !insn.addr !360
  %3 = load i64, i64* %2, align 8, !insn.addr !360
  %4 = icmp eq i64 %3, 0, !insn.addr !361
  %spec.select = select i1 %4, i64 0, i64 %0
  ret i64 %spec.select, !insn.addr !362
}

define i64 @_ZNKSt14_Function_base8_M_emptyEv(i64* %result) local_unnamed_addr {
dec_label_pc_1a22:
  %0 = ptrtoint i64* %result to i64
  %1 = add i64 %0, 16, !insn.addr !363
  %2 = inttoptr i64 %1 to i64*, !insn.addr !363
  %3 = load i64, i64* %2, align 8, !insn.addr !363
  %4 = icmp eq i64 %3, 0, !insn.addr !364
  %5 = zext i1 %4 to i64, !insn.addr !365
  %6 = and i64 %3, -256, !insn.addr !365
  %7 = or i64 %6, %5, !insn.addr !365
  ret i64 %7, !insn.addr !366

; uselistorder directives
  uselistorder i64 %3, { 1, 0 }
}

define i64* @_ZSt3minImERKT_S2_S2_(i64* %arg1, i64* %arg2) local_unnamed_addr {
dec_label_pc_1a3e:
  %0 = icmp ult i64* %arg2, %arg1, !insn.addr !367
  %1 = icmp eq i1 %0, false, !insn.addr !368
  %storemerge.v = select i1 %1, i64* %arg1, i64* %arg2
  ret i64* %storemerge.v, !insn.addr !369
}

define i64 @_ZN4llvm14DebugEpochBase14incrementEpochEv(i64* %result) local_unnamed_addr {
dec_label_pc_1a6e:
  %0 = alloca i64
  %1 = load i64, i64* %0
  ret i64 %1, !insn.addr !370
}

define i64 @_ZN4llvm14DebugEpochBase10HandleBaseC1EPKS0_(i64* %result, i64* %arg2) local_unnamed_addr {
dec_label_pc_1a7e:
  %0 = alloca i64
  %1 = load i64, i64* %0
  ret i64 %1, !insn.addr !371
}

define i64 @_ZN4llvm21PointerLikeTypeTraitsIPvE16getAsVoidPointerES1_(i64* %arg1) local_unnamed_addr {
dec_label_pc_1a91:
  %0 = ptrtoint i64* %arg1 to i64
  ret i64 %0, !insn.addr !372
}

define i64 @_ZN4llvm9StringRef13compareMemoryEPKcS2_m(i8* %arg1, i8* %arg2, i64 %arg3) local_unnamed_addr {
dec_label_pc_1aa3:
  %storemerge.reg2mem = alloca i64, !insn.addr !373
  %0 = icmp eq i64 %arg3, 0, !insn.addr !374
  %1 = icmp eq i1 %0, false, !insn.addr !375
  store i64 0, i64* %storemerge.reg2mem, !insn.addr !375
  br i1 %1, label %dec_label_pc_1ac9, label %dec_label_pc_1ae1, !insn.addr !375

dec_label_pc_1ac9:                                ; preds = %dec_label_pc_1aa3
  %2 = ptrtoint i8* %arg2 to i64, !insn.addr !376
  %3 = ptrtoint i8* %arg1 to i64, !insn.addr !377
  %4 = call i64 @memcmp(i64 %3, i64 %2, i64 %arg3), !insn.addr !378
  store i64 %4, i64* %storemerge.reg2mem, !insn.addr !379
  br label %dec_label_pc_1ae1, !insn.addr !379

dec_label_pc_1ae1:                                ; preds = %dec_label_pc_1aa3, %dec_label_pc_1ac9
  %storemerge.reload = load i64, i64* %storemerge.reg2mem
  ret i64 %storemerge.reload, !insn.addr !380

; uselistorder directives
  uselistorder i64* %storemerge.reg2mem, { 0, 2, 1 }
  uselistorder label %dec_label_pc_1ae1, { 1, 0 }
}

define i64 @_ZN4llvm9StringRefC1EPKc(i64* %result, i8* %arg2) local_unnamed_addr {
dec_label_pc_1ae4:
  %storemerge.reg2mem = alloca i64, !insn.addr !381
  %0 = ptrtoint i8* %arg2 to i64, !insn.addr !382
  store i64 %0, i64* %result, align 8, !insn.addr !383
  %1 = icmp eq i8* %arg2, null, !insn.addr !384
  store i64 0, i64* %storemerge.reg2mem, !insn.addr !385
  br i1 %1, label %dec_label_pc_1b1d, label %dec_label_pc_1b0a, !insn.addr !385

dec_label_pc_1b0a:                                ; preds = %dec_label_pc_1ae4
  %2 = call i64 @_ZNSt11char_traitsIcE6lengthEPKc(i8* nonnull %arg2), !insn.addr !386
  store i64 %2, i64* %storemerge.reg2mem, !insn.addr !387
  br label %dec_label_pc_1b1d, !insn.addr !387

dec_label_pc_1b1d:                                ; preds = %dec_label_pc_1ae4, %dec_label_pc_1b0a
  %3 = ptrtoint i64* %result to i64
  %storemerge.reload = load i64, i64* %storemerge.reg2mem
  %4 = add i64 %3, 8, !insn.addr !388
  %5 = inttoptr i64 %4 to i64*, !insn.addr !388
  store i64 %storemerge.reload, i64* %5, align 8, !insn.addr !388
  ret i64 %storemerge.reload, !insn.addr !389

; uselistorder directives
  uselistorder i64 %storemerge.reload, { 1, 0 }
  uselistorder i64* %storemerge.reg2mem, { 0, 2, 1 }
  uselistorder i64* %result, { 1, 0 }
  uselistorder label %dec_label_pc_1b1d, { 1, 0 }
}

define i64 @_ZN4llvm9StringRefC1EPKcm(i64* %result, i8* %arg2, i64 %arg3) local_unnamed_addr {
dec_label_pc_1b28:
  %0 = ptrtoint i8* %arg2 to i64
  %1 = ptrtoint i64* %result to i64
  store i64 %0, i64* %result, align 8, !insn.addr !390
  %2 = add i64 %1, 8, !insn.addr !391
  %3 = inttoptr i64 %2 to i64*, !insn.addr !391
  store i64 %arg3, i64* %3, align 8, !insn.addr !391
  ret i64 %1, !insn.addr !392

; uselistorder directives
  uselistorder i64 %1, { 1, 0 }
}

define i64 @_ZNK4llvm9StringRef4dataEv(i64* %result) local_unnamed_addr {
dec_label_pc_1b56:
  %0 = ptrtoint i64* %result to i64
  ret i64 %0, !insn.addr !393
}

define i64 @_ZNK4llvm9StringRef5emptyEv(i64* %result) local_unnamed_addr {
dec_label_pc_1b6c:
  %0 = call i64 @_ZNK4llvm9StringRef4sizeEv(i64* %result), !insn.addr !394
  %1 = icmp eq i64 %0, 0, !insn.addr !395
  %2 = zext i1 %1 to i64, !insn.addr !396
  %3 = and i64 %0, -256, !insn.addr !396
  %4 = or i64 %3, %2, !insn.addr !396
  ret i64 %4, !insn.addr !397

; uselistorder directives
  uselistorder i64 %0, { 1, 0 }
}

define i64 @_ZNK4llvm9StringRef4sizeEv(i64* %result) local_unnamed_addr {
dec_label_pc_1b90:
  %0 = ptrtoint i64* %result to i64
  %1 = add i64 %0, 8, !insn.addr !398
  %2 = inttoptr i64 %1 to i64*, !insn.addr !398
  %3 = load i64, i64* %2, align 8, !insn.addr !398
  ret i64 %3, !insn.addr !399
}

define i64 @_ZNK4llvm9StringRef11starts_withES0_(i64* %this, i64* %result, i64 %arg3) local_unnamed_addr {
dec_label_pc_1ba6:
  %storemerge.reg2mem = alloca i64, !insn.addr !400
  %0 = ptrtoint i64* %result to i64
  %stack_var_-56 = alloca i64, align 8
  store i64 %0, i64* %stack_var_-56, align 8, !insn.addr !401
  %1 = call i64 @_ZNK4llvm9StringRef4sizeEv(i64* %this), !insn.addr !402
  %2 = call i64 @_ZNK4llvm9StringRef4sizeEv(i64* nonnull %stack_var_-56), !insn.addr !403
  %3 = icmp ult i64 %1, %2, !insn.addr !404
  br i1 %3, label %dec_label_pc_1c30, label %dec_label_pc_1bed, !insn.addr !405

dec_label_pc_1bed:                                ; preds = %dec_label_pc_1ba6
  %4 = call i64 @_ZNK4llvm9StringRef4sizeEv(i64* nonnull %stack_var_-56), !insn.addr !406
  %5 = call i64 @_ZNK4llvm9StringRef4dataEv(i64* nonnull %stack_var_-56), !insn.addr !407
  %6 = call i64 @_ZNK4llvm9StringRef4dataEv(i64* %this), !insn.addr !408
  %7 = inttoptr i64 %6 to i8*, !insn.addr !409
  %8 = inttoptr i64 %5 to i8*, !insn.addr !409
  %9 = call i64 @_ZN4llvm9StringRef13compareMemoryEPKcS2_m(i8* %7, i8* %8, i64 %4), !insn.addr !409
  %10 = trunc i64 %9 to i32, !insn.addr !410
  %11 = icmp eq i32 %10, 0, !insn.addr !410
  %12 = icmp eq i1 %11, false, !insn.addr !411
  store i64 1, i64* %storemerge.reg2mem, !insn.addr !411
  br i1 %12, label %dec_label_pc_1c30, label %dec_label_pc_1c35, !insn.addr !411

dec_label_pc_1c30:                                ; preds = %dec_label_pc_1bed, %dec_label_pc_1ba6
  store i64 0, i64* %storemerge.reg2mem, !insn.addr !412
  br label %dec_label_pc_1c35, !insn.addr !412

dec_label_pc_1c35:                                ; preds = %dec_label_pc_1bed, %dec_label_pc_1c30
  %storemerge.reload = load i64, i64* %storemerge.reg2mem
  ret i64 %storemerge.reload, !insn.addr !413

; uselistorder directives
  uselistorder i64* %storemerge.reg2mem, { 0, 2, 1 }
  uselistorder label %dec_label_pc_1c35, { 1, 0 }
}

define i64 @_ZNK4llvm9StringRef6substrEmm(i64* %result, i64 %arg2, i64 %arg3) local_unnamed_addr {
dec_label_pc_1c3e:
  %rax.0.reg2mem = alloca i64, !insn.addr !414
  %stack_var_-64 = alloca i64, align 8
  %stack_var_-56 = alloca i64, align 8
  %stack_var_-96 = alloca i64, align 8
  %stack_var_-88 = alloca i64, align 8
  store i64 %arg2, i64* %stack_var_-88, align 8, !insn.addr !415
  store i64 %arg3, i64* %stack_var_-96, align 8, !insn.addr !416
  %0 = call i64 @__readfsqword(i64 40), !insn.addr !417
  %1 = call i64 @_ZNK4llvm9StringRef4sizeEv(i64* %result), !insn.addr !418
  store i64 %1, i64* %stack_var_-56, align 8, !insn.addr !419
  %2 = call i64* @_ZSt3minImERKT_S2_S2_(i64* nonnull %stack_var_-88, i64* nonnull %stack_var_-56), !insn.addr !420
  %3 = load i64, i64* %2, align 8, !insn.addr !421
  store i64 %3, i64* %stack_var_-88, align 8, !insn.addr !422
  %4 = call i64 @_ZNK4llvm9StringRef4sizeEv(i64* %result), !insn.addr !423
  %5 = load i64, i64* %stack_var_-88, align 8, !insn.addr !424
  %6 = sub i64 %4, %5, !insn.addr !425
  store i64 %6, i64* %stack_var_-64, align 8, !insn.addr !426
  %7 = call i64* @_ZSt3minImERKT_S2_S2_(i64* nonnull %stack_var_-96, i64* nonnull %stack_var_-64), !insn.addr !427
  %8 = load i64, i64* %7, align 8, !insn.addr !428
  %9 = call i64 @_ZNK4llvm9StringRef4dataEv(i64* %result), !insn.addr !429
  %10 = load i64, i64* %stack_var_-88, align 8, !insn.addr !430
  %11 = add i64 %10, %9, !insn.addr !431
  %12 = inttoptr i64 %11 to i8*, !insn.addr !432
  %13 = call i64 @_ZN4llvm9StringRefC1EPKcm(i64* nonnull %stack_var_-56, i8* %12, i64 %8), !insn.addr !432
  %14 = load i64, i64* %stack_var_-56, align 8, !insn.addr !433
  %15 = call i64 @__readfsqword(i64 40), !insn.addr !434
  %16 = icmp eq i64 %0, %15, !insn.addr !434
  store i64 %14, i64* %rax.0.reg2mem, !insn.addr !435
  br i1 %16, label %dec_label_pc_1d02, label %dec_label_pc_1cfd, !insn.addr !435

dec_label_pc_1cfd:                                ; preds = %dec_label_pc_1c3e
  %17 = call i64 @__stack_chk_fail(), !insn.addr !436
  store i64 %17, i64* %rax.0.reg2mem, !insn.addr !436
  br label %dec_label_pc_1d02, !insn.addr !436

dec_label_pc_1d02:                                ; preds = %dec_label_pc_1cfd, %dec_label_pc_1c3e
  %rax.0.reload = load i64, i64* %rax.0.reg2mem
  ret i64 %rax.0.reload, !insn.addr !437

; uselistorder directives
  uselistorder i64* %stack_var_-88, { 1, 2, 3, 0, 4 }
  uselistorder i64* %stack_var_-56, { 2, 0, 1, 3 }
}

define i64 @_ZN4llvm9StringRef13consume_frontES0_(i64* %this, i64* %result, i64 %arg3) local_unnamed_addr {
dec_label_pc_1d08:
  %storemerge.reg2mem = alloca i64, !insn.addr !438
  %0 = ptrtoint i64* %result to i64
  %stack_var_-40 = alloca i64, align 8
  store i64 %0, i64* %stack_var_-40, align 8, !insn.addr !439
  %1 = call i64 @_ZNK4llvm9StringRef11starts_withES0_(i64* %this, i64* %result, i64 %arg3), !insn.addr !440
  %2 = trunc i64 %1 to i8
  %3 = icmp eq i8 %2, 1, !insn.addr !441
  store i64 0, i64* %storemerge.reg2mem, !insn.addr !442
  br i1 %3, label %dec_label_pc_1d51, label %dec_label_pc_1d86, !insn.addr !442

dec_label_pc_1d51:                                ; preds = %dec_label_pc_1d08
  %4 = ptrtoint i64* %this to i64
  %5 = call i64 @_ZNK4llvm9StringRef4sizeEv(i64* nonnull %stack_var_-40), !insn.addr !443
  %6 = call i64 @_ZNK4llvm9StringRef6substrEmm(i64* %this, i64 %5, i64 -1), !insn.addr !444
  store i64 %6, i64* %this, align 8, !insn.addr !445
  %7 = add i64 %4, 8, !insn.addr !446
  %8 = inttoptr i64 %7 to i64*, !insn.addr !446
  store i64 -1, i64* %8, align 8, !insn.addr !446
  store i64 1, i64* %storemerge.reg2mem, !insn.addr !447
  br label %dec_label_pc_1d86, !insn.addr !447

dec_label_pc_1d86:                                ; preds = %dec_label_pc_1d08, %dec_label_pc_1d51
  %storemerge.reload = load i64, i64* %storemerge.reg2mem
  ret i64 %storemerge.reload, !insn.addr !448

; uselistorder directives
  uselistorder i64* %storemerge.reg2mem, { 0, 2, 1 }
  uselistorder i64* %this, { 0, 1, 3, 2 }
  uselistorder label %dec_label_pc_1d86, { 1, 0 }
}

define i64 @_ZN4llvmeqENS_9StringRefES0_(i64* %this, i64* %result, i64 %arg3, i64 %arg4) local_unnamed_addr {
dec_label_pc_1d88:
  %rax.0.reg2mem = alloca i64, !insn.addr !449
  %0 = ptrtoint i64* %this to i64
  %stack_var_-40 = alloca i64, align 8
  %stack_var_-56 = alloca i64, align 8
  store i64 %0, i64* %stack_var_-40, align 8, !insn.addr !450
  store i64 %arg3, i64* %stack_var_-56, align 8, !insn.addr !451
  %1 = call i64 @_ZNK4llvm9StringRef4sizeEv(i64* nonnull %stack_var_-40), !insn.addr !452
  %2 = call i64 @_ZNK4llvm9StringRef4sizeEv(i64* nonnull %stack_var_-56), !insn.addr !453
  %3 = icmp eq i64 %1, %2, !insn.addr !454
  %4 = icmp eq i1 %3, false, !insn.addr !455
  %5 = icmp eq i1 %4, false, !insn.addr !456
  store i64 0, i64* %rax.0.reg2mem, !insn.addr !457
  br i1 %5, label %dec_label_pc_1de2, label %dec_label_pc_1e36, !insn.addr !457

dec_label_pc_1de2:                                ; preds = %dec_label_pc_1d88
  %6 = call i64 @_ZNK4llvm9StringRef5emptyEv(i64* nonnull %stack_var_-40), !insn.addr !458
  %7 = trunc i64 %6 to i8, !insn.addr !459
  %8 = icmp eq i8 %7, 0, !insn.addr !459
  store i64 1, i64* %rax.0.reg2mem, !insn.addr !460
  br i1 %8, label %dec_label_pc_1df9, label %dec_label_pc_1e36, !insn.addr !460

dec_label_pc_1df9:                                ; preds = %dec_label_pc_1de2
  %9 = call i64 @_ZNK4llvm9StringRef4sizeEv(i64* nonnull %stack_var_-40), !insn.addr !461
  %10 = call i64 @_ZNK4llvm9StringRef4dataEv(i64* nonnull %stack_var_-56), !insn.addr !462
  %11 = call i64 @_ZNK4llvm9StringRef4dataEv(i64* nonnull %stack_var_-40), !insn.addr !463
  %12 = call i64 @memcmp(i64 %11, i64 %10, i64 %9), !insn.addr !464
  %13 = trunc i64 %12 to i32, !insn.addr !465
  %14 = icmp eq i32 %13, 0, !insn.addr !465
  %15 = zext i1 %14 to i64, !insn.addr !466
  %16 = and i64 %12, -256, !insn.addr !466
  %17 = or i64 %16, %15, !insn.addr !466
  store i64 %17, i64* %rax.0.reg2mem, !insn.addr !466
  br label %dec_label_pc_1e36, !insn.addr !466

dec_label_pc_1e36:                                ; preds = %dec_label_pc_1de2, %dec_label_pc_1d88, %dec_label_pc_1df9
  %rax.0.reload = load i64, i64* %rax.0.reg2mem
  ret i64 %rax.0.reload, !insn.addr !467

; uselistorder directives
  uselistorder i64 %12, { 1, 0 }
  uselistorder i64* %rax.0.reg2mem, { 0, 3, 1, 2 }
  uselistorder label %dec_label_pc_1e36, { 2, 0, 1 }
}

define i64 @_ZNK4llvm9DbgRecord13getRecordKindEv(i64* %result) local_unnamed_addr {
dec_label_pc_1e40:
  %0 = ptrtoint i64* %result to i64
  %1 = add i64 %0, 32, !insn.addr !468
  %2 = inttoptr i64 %1 to i8*, !insn.addr !468
  %3 = load i8, i8* %2, align 1, !insn.addr !468
  %4 = zext i8 %3 to i64, !insn.addr !468
  ret i64 %4, !insn.addr !469
}

define i64 @_ZN4llvm17DbgVariableRecord7classofEPKNS_9DbgRecordE(i64* %arg1) local_unnamed_addr {
dec_label_pc_1e56:
  %0 = call i64 @_ZNK4llvm9DbgRecord13getRecordKindEv(i64* %arg1), !insn.addr !470
  %1 = trunc i64 %0 to i8, !insn.addr !471
  %2 = icmp eq i8 %1, 0, !insn.addr !471
  %3 = zext i1 %2 to i64, !insn.addr !472
  %4 = and i64 %0, -256, !insn.addr !472
  %5 = or i64 %4, %3, !insn.addr !472
  ret i64 %5, !insn.addr !473

; uselistorder directives
  uselistorder i64 %0, { 1, 0 }
}

define i64 @_ZN4llvm11raw_ostreamlsENS_9StringRefE(i64* %this, i64* %result, i64 %arg3) local_unnamed_addr {
dec_label_pc_1e7a:
  %storemerge.reg2mem = alloca i64, !insn.addr !474
  %0 = ptrtoint i64* %result to i64
  %1 = ptrtoint i64* %this to i64
  %stack_var_-56 = alloca i64, align 8
  store i64 %0, i64* %stack_var_-56, align 8, !insn.addr !475
  %2 = call i64 @_ZNK4llvm9StringRef4sizeEv(i64* nonnull %stack_var_-56), !insn.addr !476
  %3 = add i64 %1, 24, !insn.addr !477
  %4 = inttoptr i64 %3 to i64*, !insn.addr !477
  %5 = load i64, i64* %4, align 8, !insn.addr !477
  %6 = add i64 %1, 32, !insn.addr !478
  %7 = inttoptr i64 %6 to i64*, !insn.addr !478
  %8 = load i64, i64* %7, align 8, !insn.addr !478
  %9 = sub i64 %5, %8, !insn.addr !479
  %10 = icmp ult i64 %9, %2, !insn.addr !480
  %11 = icmp eq i1 %10, false, !insn.addr !481
  br i1 %11, label %dec_label_pc_1eee, label %dec_label_pc_1eca, !insn.addr !481

dec_label_pc_1eca:                                ; preds = %dec_label_pc_1e7a
  %12 = call i64 @_ZNK4llvm9StringRef4dataEv(i64* nonnull %stack_var_-56), !insn.addr !482
  %13 = inttoptr i64 %12 to i8*, !insn.addr !483
  %14 = call i64 @_ZN4llvm11raw_ostream5writeEPKcm(i64* %this, i8* %13, i64 %2), !insn.addr !483
  store i64 %14, i64* %storemerge.reg2mem, !insn.addr !484
  br label %dec_label_pc_1f36, !insn.addr !484

dec_label_pc_1eee:                                ; preds = %dec_label_pc_1e7a
  %15 = icmp eq i64 %2, 0, !insn.addr !485
  store i64 %1, i64* %storemerge.reg2mem, !insn.addr !486
  br i1 %15, label %dec_label_pc_1f36, label %dec_label_pc_1ef5, !insn.addr !486

dec_label_pc_1ef5:                                ; preds = %dec_label_pc_1eee
  %16 = call i64 @_ZNK4llvm9StringRef4dataEv(i64* nonnull %stack_var_-56), !insn.addr !487
  %17 = load i64, i64* %7, align 8, !insn.addr !488
  %18 = call i64 @memcpy(i64 %17, i64 %16, i64 %2), !insn.addr !489
  %19 = load i64, i64* %7, align 8, !insn.addr !490
  %20 = add i64 %19, %2, !insn.addr !491
  store i64 %20, i64* %7, align 8, !insn.addr !492
  store i64 %1, i64* %storemerge.reg2mem, !insn.addr !492
  br label %dec_label_pc_1f36, !insn.addr !492

dec_label_pc_1f36:                                ; preds = %dec_label_pc_1eee, %dec_label_pc_1ef5, %dec_label_pc_1eca
  %storemerge.reload = load i64, i64* %storemerge.reg2mem
  ret i64 %storemerge.reload, !insn.addr !493

; uselistorder directives
  uselistorder i64* %7, { 0, 2, 1, 3 }
  uselistorder i64 %2, { 0, 2, 3, 1, 4 }
  uselistorder i64 %1, { 1, 0, 2, 3 }
  uselistorder i64* %storemerge.reg2mem, { 0, 2, 1, 3 }
  uselistorder i64 (i64*)* @_ZNK4llvm9StringRef4dataEv, { 6, 5, 1, 0, 4, 3, 2 }
  uselistorder i64 (i64*)* @_ZNK4llvm9StringRef4sizeEv, { 10, 2, 1, 0, 9, 8, 7, 6, 5, 4, 3 }
  uselistorder label %dec_label_pc_1f36, { 1, 0, 2 }
}

define i64 @_ZN4llvm19SmallPtrSetImplBaseC1EPPKvj(i64* %result, i64** %arg2, i32 %arg3) local_unnamed_addr {
dec_label_pc_1f38:
  %rax.0.reg2mem = alloca i64, !insn.addr !494
  %0 = ptrtoint i64** %arg2 to i64
  %1 = ptrtoint i64* %result to i64
  store i64 %0, i64* %result, align 8, !insn.addr !495
  %2 = add i64 %1, 8, !insn.addr !496
  %3 = inttoptr i64 %2 to i32*, !insn.addr !496
  store i32 %arg3, i32* %3, align 4, !insn.addr !496
  %4 = add i64 %1, 12, !insn.addr !497
  %5 = inttoptr i64 %4 to i32*, !insn.addr !497
  store i32 0, i32* %5, align 4, !insn.addr !497
  %6 = add i64 %1, 16, !insn.addr !498
  %7 = inttoptr i64 %6 to i32*, !insn.addr !498
  store i32 0, i32* %7, align 4, !insn.addr !498
  %8 = add i64 %1, 20, !insn.addr !499
  %9 = inttoptr i64 %8 to i8*, !insn.addr !499
  store i8 1, i8* %9, align 1, !insn.addr !499
  %10 = call i1 @_ZN4llvm14has_single_bitIjvEEbT_(i32 %arg3), !insn.addr !500
  %11 = sext i1 %10 to i64, !insn.addr !500
  %12 = icmp eq i1 %10, false, !insn.addr !501
  %13 = icmp eq i1 %12, false, !insn.addr !502
  store i64 %11, i64* %rax.0.reg2mem, !insn.addr !502
  br i1 %13, label %dec_label_pc_1fb8, label %dec_label_pc_1f90, !insn.addr !502

dec_label_pc_1f90:                                ; preds = %dec_label_pc_1f38
  %14 = call i64 @__assert_fail(i64 ptrtoint ([74 x i8]* @global_var_1448 to i64), i64 ptrtoint ([44 x i8]* @global_var_1418 to i64), i64 83, i64 ptrtoint ([75 x i8]* @global_var_13c8 to i64)), !insn.addr !503
  store i64 %14, i64* %rax.0.reg2mem, !insn.addr !503
  br label %dec_label_pc_1fb8, !insn.addr !503

dec_label_pc_1fb8:                                ; preds = %dec_label_pc_1f90, %dec_label_pc_1f38
  %rax.0.reload = load i64, i64* %rax.0.reg2mem
  ret i64 %rax.0.reload, !insn.addr !504
}

define i64 @_ZN4llvm19SmallPtrSetImplBase18getTombstoneMarkerEv() local_unnamed_addr {
dec_label_pc_1fbb:
  ret i64 -2, !insn.addr !505
}

define i64 @_ZN4llvm19SmallPtrSetImplBase14getEmptyMarkerEv() local_unnamed_addr {
dec_label_pc_1fcc:
  ret i64 -1, !insn.addr !506

; uselistorder directives
  uselistorder i64 -1, { 0, 2, 1 }
}

define i64 @_ZNK4llvm19SmallPtrSetImplBase10EndPointerEv(i64* %result) local_unnamed_addr {
dec_label_pc_1fde:
  %0 = ptrtoint i64* %result to i64
  %1 = call i64 @_ZNK4llvm19SmallPtrSetImplBase7isSmallEv(i64* %result), !insn.addr !507
  %2 = trunc i64 %1 to i8, !insn.addr !508
  %3 = icmp eq i8 %2, 0, !insn.addr !508
  %.pn.in.in.in.in.v = select i1 %3, i64 8, i64 12
  %.pn.in.in.in.in = add i64 %.pn.in.in.in.in.v, %0
  %.pn.in.in.in = inttoptr i64 %.pn.in.in.in.in to i32*
  %.pn.in.in = load i32, i32* %.pn.in.in.in, align 4
  %.pn.in = zext i32 %.pn.in.in to i64
  %.pn = mul i64 %.pn.in, 8
  %storemerge = add i64 %.pn, %0
  ret i64 %storemerge, !insn.addr !509
}

define i64 @_ZN4llvm19SmallPtrSetImplBase10insert_impEPKv(i64* %result, i64* %arg2) local_unnamed_addr {
dec_label_pc_2030:
  %rax.1.reg2mem = alloca i64, !insn.addr !510
  %rax.0.reg2mem = alloca i64, !insn.addr !510
  %.reg2mem1 = alloca i32, !insn.addr !510
  %.reg2mem = alloca i64, !insn.addr !510
  %stack_var_-40 = alloca i64, align 8
  %stack_var_-56 = alloca i64, align 8
  %stack_var_-81 = alloca i8, align 1
  %stack_var_-80 = alloca i64, align 8
  %0 = call i64 @__readfsqword(i64 40), !insn.addr !511
  %1 = call i64 @_ZNK4llvm19SmallPtrSetImplBase7isSmallEv(i64* %result), !insn.addr !512
  %2 = trunc i64 %1 to i8, !insn.addr !513
  %3 = icmp eq i8 %2, 0, !insn.addr !513
  br i1 %3, label %dec_label_pc_219d, label %dec_label_pc_2067, !insn.addr !514

dec_label_pc_2067:                                ; preds = %dec_label_pc_2030
  %4 = ptrtoint i64* %arg2 to i64
  %5 = ptrtoint i64* %result to i64
  store i64 %5, i64* %stack_var_-80, align 8, !insn.addr !515
  %6 = add i64 %5, 12, !insn.addr !516
  %7 = inttoptr i64 %6 to i32*, !insn.addr !516
  %8 = load i32, i32* %7, align 4, !insn.addr !516
  %9 = zext i32 %8 to i64, !insn.addr !517
  %10 = mul i64 %9, 8, !insn.addr !518
  %11 = add i64 %10, %5, !insn.addr !519
  %12 = icmp eq i32 %8, 0, !insn.addr !520
  %13 = icmp eq i1 %12, false, !insn.addr !521
  store i64 %5, i64* %.reg2mem, !insn.addr !521
  store i32 %8, i32* %.reg2mem1, !insn.addr !521
  br i1 %13, label %dec_label_pc_208f, label %dec_label_pc_20f9, !insn.addr !521

dec_label_pc_208f:                                ; preds = %dec_label_pc_2067, %dec_label_pc_20e3
  %.reload = load i64, i64* %.reg2mem
  %14 = inttoptr i64 %.reload to i64*, !insn.addr !522
  %15 = load i64, i64* %14, align 8, !insn.addr !522
  %16 = icmp eq i64 %15, %4, !insn.addr !523
  %17 = icmp eq i1 %16, false, !insn.addr !524
  br i1 %17, label %dec_label_pc_20e3, label %dec_label_pc_20a4, !insn.addr !524

dec_label_pc_20a4:                                ; preds = %dec_label_pc_208f
  store i8 0, i8* %stack_var_-81, align 1, !insn.addr !525
  %18 = bitcast i64* %stack_var_-80 to i64****, !insn.addr !526
  %19 = bitcast i8* %stack_var_-81 to i1*, !insn.addr !526
  %20 = call i64 @_ZSt9make_pairIRPPKvbESt4pairINSt25__strip_reference_wrapperINSt5decayIT_E4typeEE6__typeENS5_INS6_IT0_E4typeEE6__typeEEOS7_OSC_(i64**** nonnull %18, i1* nonnull %19), !insn.addr !526
  store i64 %20, i64* %stack_var_-56, align 8, !insn.addr !527
  %21 = call i64 @_ZNSt4pairIPKPKvbEC1IPS1_bLb1EEEOS_IT_T0_E(i64* nonnull %stack_var_-40, i64* nonnull %stack_var_-56), !insn.addr !528
  %22 = load i64, i64* %stack_var_-40, align 8, !insn.addr !529
  store i64 %22, i64* %rax.0.reg2mem, !insn.addr !530
  br label %dec_label_pc_21b1, !insn.addr !530

dec_label_pc_20e3:                                ; preds = %dec_label_pc_208f
  %23 = add i64 %.reload, 8, !insn.addr !531
  store i64 %23, i64* %stack_var_-80, align 8, !insn.addr !532
  %24 = icmp eq i64 %11, %23, !insn.addr !520
  %25 = icmp eq i1 %24, false, !insn.addr !521
  store i64 %23, i64* %.reg2mem, !insn.addr !521
  br i1 %25, label %dec_label_pc_208f, label %dec_label_pc_20ef.dec_label_pc_20f9_crit_edge, !insn.addr !521

dec_label_pc_20ef.dec_label_pc_20f9_crit_edge:    ; preds = %dec_label_pc_20e3
  %.pre = load i32, i32* %7, align 4
  store i32 %.pre, i32* %.reg2mem1
  br label %dec_label_pc_20f9

dec_label_pc_20f9:                                ; preds = %dec_label_pc_20ef.dec_label_pc_20f9_crit_edge, %dec_label_pc_2067
  %.reload2 = load i32, i32* %.reg2mem1, !insn.addr !533
  %26 = add i64 %5, 8, !insn.addr !534
  %27 = inttoptr i64 %26 to i32*, !insn.addr !534
  %28 = load i32, i32* %27, align 4, !insn.addr !534
  %29 = icmp ult i32 %.reload2, %28, !insn.addr !535
  %30 = icmp eq i1 %29, false, !insn.addr !536
  br i1 %30, label %dec_label_pc_219d, label %dec_label_pc_210f, !insn.addr !536

dec_label_pc_210f:                                ; preds = %dec_label_pc_20f9
  %31 = add i32 %.reload2, 1, !insn.addr !537
  store i32 %31, i32* %7, align 4, !insn.addr !538
  %32 = zext i32 %.reload2 to i64, !insn.addr !539
  %33 = mul i64 %32, 8, !insn.addr !540
  %34 = add i64 %33, %5, !insn.addr !541
  %35 = inttoptr i64 %34 to i64*, !insn.addr !542
  store i64 %4, i64* %35, align 8, !insn.addr !542
  %36 = call i64 @_ZN4llvm14DebugEpochBase14incrementEpochEv(i64* %result), !insn.addr !543
  store i8 1, i8* %stack_var_-81, align 1, !insn.addr !544
  %37 = load i32, i32* %7, align 4, !insn.addr !545
  %38 = add i32 %37, -1, !insn.addr !546
  %39 = zext i32 %38 to i64, !insn.addr !547
  %40 = mul i64 %39, 8, !insn.addr !548
  %41 = add i64 %40, %5, !insn.addr !549
  store i64 %41, i64* %stack_var_-80, align 8, !insn.addr !550
  %42 = bitcast i64* %stack_var_-80 to i64***, !insn.addr !551
  %43 = bitcast i8* %stack_var_-81 to i1*, !insn.addr !551
  %44 = call i64 @_ZSt9make_pairIPPKvbESt4pairINSt25__strip_reference_wrapperINSt5decayIT_E4typeEE6__typeENS4_INS5_IT0_E4typeEE6__typeEEOS6_OSB_(i64*** nonnull %42, i1* nonnull %43), !insn.addr !551
  store i64 %44, i64* %stack_var_-56, align 8, !insn.addr !552
  %45 = call i64 @_ZNSt4pairIPKPKvbEC1IPS1_bLb1EEEOS_IT_T0_E(i64* nonnull %stack_var_-40, i64* nonnull %stack_var_-56), !insn.addr !553
  %46 = load i64, i64* %stack_var_-40, align 8, !insn.addr !554
  store i64 %46, i64* %rax.0.reg2mem, !insn.addr !555
  br label %dec_label_pc_21b1, !insn.addr !555

dec_label_pc_219d:                                ; preds = %dec_label_pc_20f9, %dec_label_pc_2030
  %47 = call i64 @_ZN4llvm19SmallPtrSetImplBase14insert_imp_bigEPKv(i64* %result, i64* %arg2), !insn.addr !556
  store i64 %47, i64* %rax.0.reg2mem, !insn.addr !557
  br label %dec_label_pc_21b1, !insn.addr !557

dec_label_pc_21b1:                                ; preds = %dec_label_pc_219d, %dec_label_pc_20a4, %dec_label_pc_210f
  %rax.0.reload = load i64, i64* %rax.0.reg2mem
  %48 = call i64 @__readfsqword(i64 40), !insn.addr !558
  %49 = icmp eq i64 %0, %48, !insn.addr !558
  store i64 %rax.0.reload, i64* %rax.1.reg2mem, !insn.addr !559
  br i1 %49, label %dec_label_pc_21c5, label %dec_label_pc_21c0, !insn.addr !559

dec_label_pc_21c0:                                ; preds = %dec_label_pc_21b1
  %50 = call i64 @__stack_chk_fail(), !insn.addr !560
  store i64 %50, i64* %rax.1.reg2mem, !insn.addr !560
  br label %dec_label_pc_21c5, !insn.addr !560

dec_label_pc_21c5:                                ; preds = %dec_label_pc_21c0, %dec_label_pc_21b1
  %rax.1.reload = load i64, i64* %rax.1.reg2mem
  ret i64 %rax.1.reload, !insn.addr !561

; uselistorder directives
  uselistorder i32 %.reload2, { 1, 0, 2 }
  uselistorder i32* %7, { 1, 2, 0, 3 }
  uselistorder i64 %5, { 1, 2, 4, 0, 3, 5, 6 }
  uselistorder i64* %stack_var_-80, { 0, 2, 3, 1, 4 }
  uselistorder i8* %stack_var_-81, { 0, 2, 1, 3 }
  uselistorder i64* %stack_var_-56, { 0, 2, 1, 3 }
  uselistorder i64* %stack_var_-40, { 2, 0, 3, 1 }
  uselistorder i64* %.reg2mem, { 2, 0, 1 }
  uselistorder i32* %.reg2mem1, { 0, 2, 1 }
  uselistorder i64* %rax.0.reg2mem, { 0, 3, 1, 2 }
  uselistorder i64 12, { 1, 0, 2 }
  uselistorder i64* %result, { 0, 1, 3, 2 }
  uselistorder label %dec_label_pc_21b1, { 0, 2, 1 }
  uselistorder label %dec_label_pc_208f, { 1, 0 }
}

define i64 @_ZNK4llvm19SmallPtrSetImplBase7isSmallEv(i64* %result) local_unnamed_addr {
dec_label_pc_21c8:
  %0 = ptrtoint i64* %result to i64
  %1 = add i64 %0, 20, !insn.addr !562
  %2 = inttoptr i64 %1 to i8*, !insn.addr !562
  %3 = load i8, i8* %2, align 1, !insn.addr !562
  %4 = zext i8 %3 to i64, !insn.addr !562
  ret i64 %4, !insn.addr !563
}

define i64 @_ZN4llvm23SmallPtrSetIteratorImplC1EPKPKvS4_(i64* %result, i64** %arg2, i64** %arg3) local_unnamed_addr {
dec_label_pc_21de:
  %storemerge.reg2mem = alloca i64, !insn.addr !564
  %0 = ptrtoint i64** %arg3 to i64
  %1 = ptrtoint i64** %arg2 to i64
  %2 = ptrtoint i64* %result to i64
  store i64 %1, i64* %result, align 8, !insn.addr !565
  %3 = add i64 %2, 8, !insn.addr !566
  %4 = inttoptr i64 %3 to i64*, !insn.addr !566
  store i64 %0, i64* %4, align 8, !insn.addr !566
  %5 = call i1 @_ZN4llvm20shouldReverseIterateIPvEEbv(), !insn.addr !567
  %6 = icmp eq i1 %5, false, !insn.addr !568
  br i1 %6, label %dec_label_pc_2224, label %dec_label_pc_2216, !insn.addr !569

dec_label_pc_2216:                                ; preds = %dec_label_pc_21de
  %7 = call i64 @_ZN4llvm23SmallPtrSetIteratorImpl17RetreatIfNotValidEv(i64* nonnull %result), !insn.addr !570
  store i64 %7, i64* %storemerge.reg2mem, !insn.addr !571
  br label %dec_label_pc_2230, !insn.addr !571

dec_label_pc_2224:                                ; preds = %dec_label_pc_21de
  %8 = call i64 @_ZN4llvm23SmallPtrSetIteratorImpl17AdvanceIfNotValidEv(i64* nonnull %result), !insn.addr !572
  store i64 %8, i64* %storemerge.reg2mem, !insn.addr !572
  br label %dec_label_pc_2230, !insn.addr !572

dec_label_pc_2230:                                ; preds = %dec_label_pc_2224, %dec_label_pc_2216
  %storemerge.reload = load i64, i64* %storemerge.reg2mem
  ret i64 %storemerge.reload, !insn.addr !573

; uselistorder directives
  uselistorder i64* %storemerge.reg2mem, { 0, 2, 1 }
  uselistorder i64* %result, { 1, 0, 2, 3 }
}

define i64 @_ZN4llvm23SmallPtrSetIteratorImpl17AdvanceIfNotValidEv(i64* %result) local_unnamed_addr {
dec_label_pc_2232:
  %rdi.1.reg2mem = alloca i64, !insn.addr !574
  %.reg2mem = alloca i64, !insn.addr !574
  %rdi.0.reg2mem = alloca i64, !insn.addr !574
  %0 = ptrtoint i64* %result to i64
  %1 = add i64 %0, 8, !insn.addr !575
  %2 = inttoptr i64 %1 to i64*, !insn.addr !575
  %3 = load i64, i64* %2, align 8, !insn.addr !575
  %4 = icmp ult i64 %3, %0, !insn.addr !576
  %5 = icmp eq i1 %4, false, !insn.addr !577
  store i64 %3, i64* %.reg2mem, !insn.addr !577
  store i64 %0, i64* %rdi.1.reg2mem, !insn.addr !577
  br i1 %5, label %dec_label_pc_2291, label %dec_label_pc_2257, !insn.addr !577

dec_label_pc_2257:                                ; preds = %dec_label_pc_2232
  %6 = call i64 @__assert_fail(i64 ptrtoint ([14 x i8]* @global_var_14d0 to i64), i64 ptrtoint ([44 x i8]* @global_var_1418 to i64), i64 298, i64 ptrtoint ([56 x i8]* @global_var_1498 to i64)), !insn.addr !578
  store i64 ptrtoint ([14 x i8]* @global_var_14d0 to i64), i64* %rdi.0.reg2mem, !insn.addr !578
  br label %dec_label_pc_227f, !insn.addr !578

dec_label_pc_227f:                                ; preds = %dec_label_pc_22a5, %dec_label_pc_22b9, %dec_label_pc_2257
  %rdi.0.reload = load i64, i64* %rdi.0.reg2mem
  %7 = add i64 %rdi.0.reload, 8, !insn.addr !579
  store i64 %7, i64* %result, align 8, !insn.addr !580
  %.pre = load i64, i64* %2, align 8
  store i64 %.pre, i64* %.reg2mem, !insn.addr !580
  store i64 %rdi.0.reload, i64* %rdi.1.reg2mem, !insn.addr !580
  br label %dec_label_pc_2291, !insn.addr !580

dec_label_pc_2291:                                ; preds = %dec_label_pc_227f, %dec_label_pc_2232
  %rdi.1.reload = load i64, i64* %rdi.1.reg2mem
  %.reload = load i64, i64* %.reg2mem, !insn.addr !581
  %8 = icmp eq i64 %rdi.1.reload, %.reload, !insn.addr !582
  br i1 %8, label %dec_label_pc_22dd, label %dec_label_pc_22a5, !insn.addr !583

dec_label_pc_22a5:                                ; preds = %dec_label_pc_2291
  %9 = call i64 @_ZN4llvm19SmallPtrSetImplBase14getEmptyMarkerEv(), !insn.addr !584
  %10 = icmp eq i64 %rdi.1.reload, %9, !insn.addr !585
  store i64 %rdi.1.reload, i64* %rdi.0.reg2mem, !insn.addr !586
  br i1 %10, label %dec_label_pc_227f, label %dec_label_pc_22b9, !insn.addr !586

dec_label_pc_22b9:                                ; preds = %dec_label_pc_22a5
  %11 = call i64 @_ZN4llvm19SmallPtrSetImplBase18getTombstoneMarkerEv(), !insn.addr !587
  %12 = icmp eq i64 %rdi.1.reload, %11, !insn.addr !588
  %13 = icmp eq i1 %12, false, !insn.addr !589
  store i64 %rdi.1.reload, i64* %rdi.0.reg2mem, !insn.addr !589
  br i1 %13, label %dec_label_pc_22dd, label %dec_label_pc_227f, !insn.addr !589

dec_label_pc_22dd:                                ; preds = %dec_label_pc_22b9, %dec_label_pc_2291
  ret i64 0, !insn.addr !590

; uselistorder directives
  uselistorder i64 %rdi.1.reload, { 3, 2, 4, 0, 1 }
  uselistorder i64 %0, { 0, 2, 1 }
  uselistorder i64* %rdi.0.reg2mem, { 2, 1, 0, 3 }
  uselistorder label %dec_label_pc_227f, { 1, 0, 2 }
}

define i64 @_ZN4llvm23SmallPtrSetIteratorImpl17RetreatIfNotValidEv(i64* %result) local_unnamed_addr {
dec_label_pc_22e6:
  %rdi.1.reg2mem = alloca i64, !insn.addr !591
  %.reg2mem = alloca i64, !insn.addr !591
  %rdi.0.reg2mem = alloca i64, !insn.addr !591
  %0 = ptrtoint i64* %result to i64
  %1 = add i64 %0, 8, !insn.addr !592
  %2 = inttoptr i64 %1 to i64*, !insn.addr !592
  %3 = load i64, i64* %2, align 8, !insn.addr !592
  %4 = icmp ugt i64 %3, %0, !insn.addr !593
  %5 = icmp eq i1 %4, false, !insn.addr !594
  store i64 %3, i64* %.reg2mem, !insn.addr !594
  store i64 %0, i64* %rdi.1.reg2mem, !insn.addr !594
  br i1 %5, label %dec_label_pc_2345, label %dec_label_pc_230b, !insn.addr !594

dec_label_pc_230b:                                ; preds = %dec_label_pc_22e6
  %6 = call i64 @__assert_fail(i64 ptrtoint ([14 x i8]* @global_var_1518 to i64), i64 ptrtoint ([44 x i8]* @global_var_1418 to i64), i64 305, i64 ptrtoint ([56 x i8]* @global_var_14e0 to i64)), !insn.addr !595
  store i64 ptrtoint ([14 x i8]* @global_var_1518 to i64), i64* %rdi.0.reg2mem, !insn.addr !595
  br label %dec_label_pc_2333, !insn.addr !595

dec_label_pc_2333:                                ; preds = %dec_label_pc_2359, %dec_label_pc_2371, %dec_label_pc_230b
  %rdi.0.reload = load i64, i64* %rdi.0.reg2mem
  %7 = add i64 %rdi.0.reload, -8, !insn.addr !596
  store i64 %7, i64* %result, align 8, !insn.addr !597
  %.pre = load i64, i64* %2, align 8
  store i64 %.pre, i64* %.reg2mem, !insn.addr !597
  store i64 %rdi.0.reload, i64* %rdi.1.reg2mem, !insn.addr !597
  br label %dec_label_pc_2345, !insn.addr !597

dec_label_pc_2345:                                ; preds = %dec_label_pc_2333, %dec_label_pc_22e6
  %rdi.1.reload = load i64, i64* %rdi.1.reg2mem
  %.reload = load i64, i64* %.reg2mem, !insn.addr !598
  %8 = icmp eq i64 %rdi.1.reload, %.reload, !insn.addr !599
  br i1 %8, label %dec_label_pc_2399, label %dec_label_pc_2359, !insn.addr !600

dec_label_pc_2359:                                ; preds = %dec_label_pc_2345
  %9 = add i64 %rdi.1.reload, -8, !insn.addr !601
  %10 = inttoptr i64 %9 to i64*, !insn.addr !602
  %11 = load i64, i64* %10, align 8, !insn.addr !602
  %12 = call i64 @_ZN4llvm19SmallPtrSetImplBase14getEmptyMarkerEv(), !insn.addr !603
  %13 = icmp eq i64 %11, %12, !insn.addr !604
  store i64 %rdi.1.reload, i64* %rdi.0.reg2mem, !insn.addr !605
  br i1 %13, label %dec_label_pc_2333, label %dec_label_pc_2371, !insn.addr !605

dec_label_pc_2371:                                ; preds = %dec_label_pc_2359
  %14 = load i64, i64* %10, align 8, !insn.addr !606
  %15 = call i64 @_ZN4llvm19SmallPtrSetImplBase18getTombstoneMarkerEv(), !insn.addr !607
  %16 = icmp eq i64 %14, %15, !insn.addr !608
  %17 = icmp eq i1 %16, false, !insn.addr !609
  store i64 %rdi.1.reload, i64* %rdi.0.reg2mem, !insn.addr !609
  br i1 %17, label %dec_label_pc_2399, label %dec_label_pc_2333, !insn.addr !609

dec_label_pc_2399:                                ; preds = %dec_label_pc_2371, %dec_label_pc_2345
  ret i64 0, !insn.addr !610

; uselistorder directives
  uselistorder i64 %rdi.1.reload, { 2, 3, 0, 1 }
  uselistorder i64* %rdi.0.reg2mem, { 2, 1, 0, 3 }
  uselistorder i64 ()* @_ZN4llvm19SmallPtrSetImplBase18getTombstoneMarkerEv, { 1, 0 }
  uselistorder i64 ()* @_ZN4llvm19SmallPtrSetImplBase14getEmptyMarkerEv, { 1, 0 }
  uselistorder label %dec_label_pc_2333, { 1, 0, 2 }
}

define i64 @_ZN4llvm17PreservedAnalysesC1Ev(i64* %result) local_unnamed_addr {
dec_label_pc_23a2:
  %0 = ptrtoint i64* %result to i64
  %1 = call i64 @_ZN4llvm11SmallPtrSetIPvLj2EEC1Ev(i64* %result), !insn.addr !611
  %2 = add i64 %0, 40, !insn.addr !612
  %3 = inttoptr i64 %2 to i64*, !insn.addr !613
  %4 = call i64 @_ZN4llvm11SmallPtrSetIPNS_11AnalysisKeyELj2EEC1Ev(i64* %3), !insn.addr !613
  ret i64 %4, !insn.addr !614
}

define i64 @_ZN4llvm17PreservedAnalyses4noneEv(i64* %result) local_unnamed_addr {
dec_label_pc_23d1:
  %0 = alloca i128
  %rdi = alloca i64, align 8
  %1 = load i128, i128* %0
  %2 = ptrtoint i64* %result to i64
  %3 = call i128 @__asm_pxor(i128 %1, i128 %1), !insn.addr !615
  %4 = bitcast i64* %rdi to i128*
  %5 = load i128, i128* %4, align 8, !insn.addr !616
  call void @__asm_movups(i128 %5, i128 %3), !insn.addr !616
  %6 = add i64 %2, 16, !insn.addr !617
  %7 = inttoptr i64 %6 to i128*, !insn.addr !617
  %8 = load i128, i128* %7, align 8, !insn.addr !617
  call void @__asm_movups(i128 %8, i128 %3), !insn.addr !617
  %9 = add i64 %2, 32, !insn.addr !618
  %10 = inttoptr i64 %9 to i128*, !insn.addr !618
  %11 = load i128, i128* %10, align 8, !insn.addr !618
  call void @__asm_movups(i128 %11, i128 %3), !insn.addr !618
  %12 = add i64 %2, 48, !insn.addr !619
  %13 = inttoptr i64 %12 to i128*, !insn.addr !619
  %14 = load i128, i128* %13, align 8, !insn.addr !619
  call void @__asm_movups(i128 %14, i128 %3), !insn.addr !619
  %15 = add i64 %2, ptrtoint (i128** @global_var_40 to i64), !insn.addr !620
  %16 = inttoptr i64 %15 to i128*, !insn.addr !620
  %17 = load i128, i128* %16, align 8, !insn.addr !620
  call void @__asm_movups(i128 %17, i128 %3), !insn.addr !620
  %18 = call i64 @_ZN4llvm17PreservedAnalysesC1Ev(i64* %result), !insn.addr !621
  ret i64 %2, !insn.addr !622

; uselistorder directives
  uselistorder i128 %3, { 4, 3, 2, 1, 0 }
  uselistorder i64 %2, { 0, 4, 3, 2, 1 }
  uselistorder i128 %1, { 1, 0 }
}

define i64 @_ZN4llvm17PreservedAnalyses3allEv(i64* %result) local_unnamed_addr {
dec_label_pc_240e:
  %stack_var_-40 = alloca i64, align 8
  %0 = call i64 @__readfsqword(i64 40), !insn.addr !623
  %1 = call i64 @_ZN4llvm17PreservedAnalysesC1Ev(i64* %result), !insn.addr !624
  %2 = load i64, i64* inttoptr (i64 9288 to i64*), align 8, !insn.addr !625
  %3 = inttoptr i64 %2 to i64*, !insn.addr !626
  %4 = call i64 @_ZN4llvm15SmallPtrSetImplIPvE6insertES1_(i64* nonnull %stack_var_-40, i64* %result, i64* %3), !insn.addr !626
  %5 = call i64 @__readfsqword(i64 40), !insn.addr !627
  %6 = icmp eq i64 %0, %5, !insn.addr !627
  br i1 %6, label %dec_label_pc_2468, label %dec_label_pc_2463, !insn.addr !628

dec_label_pc_2463:                                ; preds = %dec_label_pc_240e
  %7 = call i64 @__stack_chk_fail(), !insn.addr !629
  br label %dec_label_pc_2468, !insn.addr !629

dec_label_pc_2468:                                ; preds = %dec_label_pc_2463, %dec_label_pc_240e
  %8 = ptrtoint i64* %result to i64
  ret i64 %8, !insn.addr !630

; uselistorder directives
  uselistorder i64 (i64*)* @_ZN4llvm17PreservedAnalysesC1Ev, { 1, 0 }
  uselistorder i64* %result, { 2, 0, 1 }
}

define i64 @_ZN9__gnu_cxx11char_traitsIcE6lengthEPKc(i8* %arg1) local_unnamed_addr {
dec_label_pc_246e:
  %rax.0.reg2mem = alloca i64, !insn.addr !631
  %storemerge.reg2mem = alloca i64, !insn.addr !631
  %stack_var_-25 = alloca i8, align 1
  %0 = call i64 @__readfsqword(i64 40), !insn.addr !632
  %1 = ptrtoint i8* %arg1 to i64, !insn.addr !633
  store i64 0, i64* %storemerge.reg2mem, !insn.addr !634
  br label %dec_label_pc_249c, !insn.addr !634

dec_label_pc_249c:                                ; preds = %dec_label_pc_249c, %dec_label_pc_246e
  %storemerge.reload = load i64, i64* %storemerge.reg2mem
  store i8 0, i8* %stack_var_-25, align 1, !insn.addr !635
  %2 = add i64 %storemerge.reload, %1, !insn.addr !636
  %3 = inttoptr i64 %2 to i8*, !insn.addr !637
  %4 = call i64 @_ZN9__gnu_cxx11char_traitsIcE2eqERKcS3_(i8* %3, i8* nonnull %stack_var_-25), !insn.addr !637
  %5 = trunc i64 %4 to i8
  %6 = icmp eq i8 %5, 1, !insn.addr !638
  %7 = icmp eq i1 %6, false, !insn.addr !639
  %8 = add i64 %storemerge.reload, 1, !insn.addr !640
  store i64 %8, i64* %storemerge.reg2mem, !insn.addr !639
  br i1 %7, label %dec_label_pc_249c, label %dec_label_pc_24c1, !insn.addr !639

dec_label_pc_24c1:                                ; preds = %dec_label_pc_249c
  %9 = call i64 @__readfsqword(i64 40), !insn.addr !641
  %10 = icmp eq i64 %0, %9, !insn.addr !641
  store i64 %storemerge.reload, i64* %rax.0.reg2mem, !insn.addr !642
  br i1 %10, label %dec_label_pc_24d9, label %dec_label_pc_24d4, !insn.addr !642

dec_label_pc_24d4:                                ; preds = %dec_label_pc_24c1
  %11 = call i64 @__stack_chk_fail(), !insn.addr !643
  store i64 %11, i64* %rax.0.reg2mem, !insn.addr !643
  br label %dec_label_pc_24d9, !insn.addr !643

dec_label_pc_24d9:                                ; preds = %dec_label_pc_24d4, %dec_label_pc_24c1
  %rax.0.reload = load i64, i64* %rax.0.reg2mem
  ret i64 %rax.0.reload, !insn.addr !644

; uselistorder directives
  uselistorder i64* %storemerge.reg2mem, { 2, 0, 1 }
}

define i64 @_ZN9__gnu_cxx11char_traitsIcE2eqERKcS3_(i8* %arg1, i8* %arg2) local_unnamed_addr {
dec_label_pc_24db:
  %0 = alloca i64
  %1 = load i64, i64* %0
  %2 = load i64, i64* %0
  %3 = trunc i64 %1 to i8
  %4 = trunc i64 %2 to i8
  %5 = icmp eq i8 %3, %4, !insn.addr !645
  %6 = zext i1 %5 to i64, !insn.addr !646
  ret i64 %6, !insn.addr !647

; uselistorder directives
  uselistorder i64* %0, { 1, 0 }
}

define i64 @_ZN4llvm11PassBuilder31registerPipelineParsingCallbackERKSt8functionIFbNS_9StringRefERNS_11PassManagerINS_6ModuleENS_15AnalysisManagerIS4_JEEEJEEENS_8ArrayRefINS0_15PipelineElementEEEEE(i64* %result, i64* %arg2) local_unnamed_addr {
dec_label_pc_2508:
  %0 = ptrtoint i64* %result to i64
  %1 = add i64 %0, 1328, !insn.addr !648
  %2 = inttoptr i64 %1 to i64*, !insn.addr !649
  %3 = call i64 @_ZN4llvm23SmallVectorTemplateBaseISt8functionIFbNS_9StringRefERNS_11PassManagerINS_6ModuleENS_15AnalysisManagerIS4_JEEEJEEENS_8ArrayRefINS_11PassBuilder15PipelineElementEEEEELb0EE9push_backERKSE_(i64* %2, i64* %arg2), !insn.addr !649
  ret i64 %3, !insn.addr !650
}

define i64 @_ZNSt8functionIFbN4llvm9StringRefERNS0_11PassManagerINS0_6ModuleENS0_15AnalysisManagerIS3_JEEEJEEENS0_8ArrayRefINS0_11PassBuilder15PipelineElementEEEEED1Ev(i64* %result) local_unnamed_addr {
dec_label_pc_253a:
  %0 = call i64 @_ZNSt14_Function_baseD1Ev(i64* %result), !insn.addr !651
  ret i64 %0, !insn.addr !652
}

define i64* @_ZSt3maxImERKT_S2_S2_(i64* %arg1, i64* %arg2) local_unnamed_addr {
dec_label_pc_2559:
  %0 = icmp ult i64* %arg1, %arg2, !insn.addr !653
  %1 = icmp eq i1 %0, false, !insn.addr !654
  %storemerge.v = select i1 %1, i64* %arg1, i64* %arg2
  ret i64* %storemerge.v, !insn.addr !655
}

define i1 @_ZN4llvm14has_single_bitIjvEEbT_(i32 %arg1) local_unnamed_addr {
dec_label_pc_2588:
  %storemerge.reg2mem = alloca i1, !insn.addr !656
  %0 = icmp eq i32 %arg1, 0, !insn.addr !657
  br i1 %0, label %dec_label_pc_25ad, label %dec_label_pc_2599, !insn.addr !658

dec_label_pc_2599:                                ; preds = %dec_label_pc_2588
  %1 = add i32 %arg1, -1, !insn.addr !659
  %2 = and i32 %1, %arg1, !insn.addr !660
  %3 = icmp eq i32 %2, 0, !insn.addr !661
  %4 = icmp eq i1 %3, false, !insn.addr !662
  store i1 true, i1* %storemerge.reg2mem, !insn.addr !662
  br i1 %4, label %dec_label_pc_25ad, label %dec_label_pc_25b2, !insn.addr !662

dec_label_pc_25ad:                                ; preds = %dec_label_pc_2599, %dec_label_pc_2588
  store i1 false, i1* %storemerge.reg2mem, !insn.addr !663
  br label %dec_label_pc_25b2, !insn.addr !663

dec_label_pc_25b2:                                ; preds = %dec_label_pc_2599, %dec_label_pc_25ad
  %storemerge.reload = load i1, i1* %storemerge.reg2mem
  ret i1 %storemerge.reload, !insn.addr !664

; uselistorder directives
  uselistorder i1* %storemerge.reg2mem, { 0, 2, 1 }
  uselistorder i32 0, { 7, 8, 1, 9, 10, 6, 5, 2, 3, 0, 4 }
  uselistorder label %dec_label_pc_25b2, { 1, 0 }
}

define i64 @_ZNK4llvm14ilist_iteratorINS_12ilist_detail12node_optionsINS_9DbgRecordELb0ELb0EvLb0EvEELb0ELb0EEdeEv(i64* %result) local_unnamed_addr {
dec_label_pc_25b4:
  %rdi.0.reg2mem = alloca i64, !insn.addr !665
  %0 = ptrtoint i64* %result to i64
  %1 = call i64 @_ZNK4llvm12ilist_detail18node_base_prevnextINS_15ilist_node_baseILb0EvEELb0EE15isKnownSentinelEv(i64* %result), !insn.addr !666
  %2 = trunc i64 %1 to i8
  %3 = icmp eq i8 %2, 1, !insn.addr !667
  %4 = icmp eq i1 %3, false, !insn.addr !668
  store i64 %0, i64* %rdi.0.reg2mem, !insn.addr !668
  br i1 %4, label %dec_label_pc_2602, label %dec_label_pc_25da, !insn.addr !668

dec_label_pc_25da:                                ; preds = %dec_label_pc_25b4
  %5 = call i64 @__assert_fail(i64 ptrtoint ([28 x i8]* @global_var_1807 to i64), i64 ptrtoint ([47 x i8]* @global_var_17d8 to i64), i64 168, i64 ptrtoint ([309 x i8]* @global_var_16a0 to i64)), !insn.addr !669
  store i64 ptrtoint ([28 x i8]* @global_var_1807 to i64), i64* %rdi.0.reg2mem, !insn.addr !669
  br label %dec_label_pc_2602, !insn.addr !669

dec_label_pc_2602:                                ; preds = %dec_label_pc_25da, %dec_label_pc_25b4
  %rdi.0.reload = load i64, i64* %rdi.0.reg2mem
  %6 = inttoptr i64 %rdi.0.reload to i64*, !insn.addr !670
  %7 = call i64 @_ZN4llvm12ilist_detail18SpecificNodeAccessINS0_12node_optionsINS_9DbgRecordELb0ELb0EvLb0EvEEE11getValuePtrEPNS_15ilist_node_implIS4_EE(i64* %6), !insn.addr !670
  ret i64 %7, !insn.addr !671

; uselistorder directives
  uselistorder i64 (i64, i64, i64, i64)* @__assert_fail, { 3, 2, 1, 0 }
}

define i1 @_ZN4llvm3isaINS_17DbgVariableRecordENS_9DbgRecordEEEbRKT0_(i64* %arg1) local_unnamed_addr {
dec_label_pc_2613:
  %0 = call i64 @_ZN4llvm14CastIsPossibleINS_17DbgVariableRecordEKNS_9DbgRecordEvE10isPossibleERS3_(i64* %arg1), !insn.addr !672
  %1 = urem i64 %0, 2
  %2 = icmp ne i64 %1, 0, !insn.addr !673
  ret i1 %2, !insn.addr !673
}

define i64 @_ZN4llvmneERKNS_14ilist_iteratorINS_12ilist_detail12node_optionsINS_9DbgRecordELb0ELb0EvLb0EvEELb0ELb0EEES7_(i64* %arg1, i64* %arg2) local_unnamed_addr {
dec_label_pc_2631:
  %0 = ptrtoint i64* %arg2 to i64
  %1 = icmp eq i64* %arg1, %arg2, !insn.addr !674
  %2 = icmp eq i1 %1, false, !insn.addr !675
  %3 = zext i1 %2 to i64, !insn.addr !675
  %4 = and i64 %0, -256, !insn.addr !675
  %5 = or i64 %4, %3, !insn.addr !675
  ret i64 %5, !insn.addr !676
}

define i64 @_ZSt9make_pairIRPPKvbESt4pairINSt25__strip_reference_wrapperINSt5decayIT_E4typeEE6__typeENS5_INS6_IT0_E4typeEE6__typeEEOS7_OSC_(i64**** %arg1, i1* %arg2) local_unnamed_addr {
dec_label_pc_2657:
  %rax.0.reg2mem = alloca i64, !insn.addr !677
  %stack_var_-56 = alloca i64, align 8
  %0 = call i64 @__readfsqword(i64 40), !insn.addr !678
  %1 = bitcast i1* %arg2 to i64*
  %2 = call i1* @_ZSt7forwardIbEOT_RNSt16remove_referenceIS0_E4typeE(i64* %1), !insn.addr !679
  %3 = bitcast i64**** %arg1 to i64*, !insn.addr !680
  %4 = call i64**** @_ZSt7forwardIRPPKvEOT_RNSt16remove_referenceIS4_E4typeE(i64* %3), !insn.addr !680
  %5 = call i64 @_ZNSt4pairIPPKvbEC1IRS2_bLb1EEEOT_OT0_(i64* nonnull %stack_var_-56, i64**** %4, i1* %2), !insn.addr !681
  %6 = load i64, i64* %stack_var_-56, align 8, !insn.addr !682
  %7 = call i64 @__readfsqword(i64 40), !insn.addr !683
  %8 = icmp eq i64 %0, %7, !insn.addr !683
  store i64 %6, i64* %rax.0.reg2mem, !insn.addr !684
  br i1 %8, label %dec_label_pc_26c7, label %dec_label_pc_26c2, !insn.addr !684

dec_label_pc_26c2:                                ; preds = %dec_label_pc_2657
  %9 = call i64 @__stack_chk_fail(), !insn.addr !685
  store i64 %9, i64* %rax.0.reg2mem, !insn.addr !685
  br label %dec_label_pc_26c7, !insn.addr !685

dec_label_pc_26c7:                                ; preds = %dec_label_pc_26c2, %dec_label_pc_2657
  %rax.0.reload = load i64, i64* %rax.0.reg2mem
  ret i64 %rax.0.reload, !insn.addr !686

; uselistorder directives
  uselistorder i64* %stack_var_-56, { 1, 0 }
}

define i64 @_ZNSt4pairIPKPKvbEC1IPS1_bLb1EEEOS_IT_T0_E(i64* %result, i64* %arg2) local_unnamed_addr {
dec_label_pc_26ce:
  %0 = ptrtoint i64* %arg2 to i64
  %1 = ptrtoint i64* %result to i64
  %2 = call i64*** @_ZSt7forwardIPPKvEOT_RNSt16remove_referenceIS3_E4typeE(i64* %arg2), !insn.addr !687
  %3 = load i64**, i64*** %2, align 8, !insn.addr !688
  %4 = ptrtoint i64** %3 to i64, !insn.addr !688
  store i64 %4, i64* %result, align 8, !insn.addr !689
  %5 = add i64 %0, 8, !insn.addr !690
  %6 = inttoptr i64 %5 to i64*, !insn.addr !691
  %7 = call i1* @_ZSt7forwardIbEOT_RNSt16remove_referenceIS0_E4typeE(i64* %6), !insn.addr !691
  %8 = bitcast i1* %7 to i8*, !insn.addr !692
  %9 = load i8, i8* %8, align 1, !insn.addr !692
  %10 = add i64 %1, 8, !insn.addr !693
  %11 = inttoptr i64 %10 to i8*, !insn.addr !693
  store i8 %9, i8* %11, align 1, !insn.addr !693
  ret i64 %1, !insn.addr !694

; uselistorder directives
  uselistorder i64 %1, { 1, 0 }
}

define i64 @_ZSt9make_pairIPPKvbESt4pairINSt25__strip_reference_wrapperINSt5decayIT_E4typeEE6__typeENS4_INS5_IT0_E4typeEE6__typeEEOS6_OSB_(i64*** %arg1, i1* %arg2) local_unnamed_addr {
dec_label_pc_2715:
  %rax.0.reg2mem = alloca i64, !insn.addr !695
  %stack_var_-56 = alloca i64, align 8
  %0 = call i64 @__readfsqword(i64 40), !insn.addr !696
  %1 = bitcast i1* %arg2 to i64*
  %2 = call i1* @_ZSt7forwardIbEOT_RNSt16remove_referenceIS0_E4typeE(i64* %1), !insn.addr !697
  %3 = bitcast i64*** %arg1 to i64*, !insn.addr !698
  %4 = call i64*** @_ZSt7forwardIPPKvEOT_RNSt16remove_referenceIS3_E4typeE(i64* %3), !insn.addr !698
  %5 = call i64 @_ZNSt4pairIPPKvbEC1IS2_bLb1EEEOT_OT0_(i64* nonnull %stack_var_-56, i64*** %4, i1* %2), !insn.addr !699
  %6 = load i64, i64* %stack_var_-56, align 8, !insn.addr !700
  %7 = call i64 @__readfsqword(i64 40), !insn.addr !701
  %8 = icmp eq i64 %0, %7, !insn.addr !701
  store i64 %6, i64* %rax.0.reg2mem, !insn.addr !702
  br i1 %8, label %dec_label_pc_2785, label %dec_label_pc_2780, !insn.addr !702

dec_label_pc_2780:                                ; preds = %dec_label_pc_2715
  %9 = call i64 @__stack_chk_fail(), !insn.addr !703
  store i64 %9, i64* %rax.0.reg2mem, !insn.addr !703
  br label %dec_label_pc_2785, !insn.addr !703

dec_label_pc_2785:                                ; preds = %dec_label_pc_2780, %dec_label_pc_2715
  %rax.0.reload = load i64, i64* %rax.0.reg2mem
  ret i64 %rax.0.reload, !insn.addr !704

; uselistorder directives
  uselistorder i64* %stack_var_-56, { 1, 0 }
}

define i1 @_ZN4llvm20shouldReverseIterateIPvEEbv() local_unnamed_addr {
dec_label_pc_278b:
  ret i1 false, !insn.addr !705
}

define i64 @_ZN4llvm15SmallPtrSetImplIPvECI1NS_19SmallPtrSetImplBaseEEPPKvj(i64* %result, i64** %arg2, i32 %arg3) local_unnamed_addr {
dec_label_pc_279a:
  %0 = call i64 @_ZN4llvm19SmallPtrSetImplBaseC1EPPKvj(i64* %result, i64** %arg2, i32 %arg3), !insn.addr !706
  ret i64 %0, !insn.addr !707
}

define i64 @_ZN4llvm11SmallPtrSetIPvLj2EEC1Ev(i64* %result) local_unnamed_addr {
dec_label_pc_27ca:
  %0 = ptrtoint i64* %result to i64
  %1 = add i64 %0, 24, !insn.addr !708
  %2 = inttoptr i64 %1 to i64**, !insn.addr !709
  %3 = call i64 @_ZN4llvm15SmallPtrSetImplIPvECI1NS_19SmallPtrSetImplBaseEEPPKvj(i64* %result, i64** %2, i32 2), !insn.addr !709
  ret i64 %3, !insn.addr !710
}

define i64 @_ZN4llvm15SmallPtrSetImplIPNS_11AnalysisKeyEECI1NS_19SmallPtrSetImplBaseEEPPKvj(i64* %result, i64** %arg2, i32 %arg3) local_unnamed_addr {
dec_label_pc_27fa:
  %0 = call i64 @_ZN4llvm19SmallPtrSetImplBaseC1EPPKvj(i64* %result, i64** %arg2, i32 %arg3), !insn.addr !711
  ret i64 %0, !insn.addr !712

; uselistorder directives
  uselistorder i64 (i64*, i64**, i32)* @_ZN4llvm19SmallPtrSetImplBaseC1EPPKvj, { 1, 0 }
}

define i64 @_ZN4llvm11SmallPtrSetIPNS_11AnalysisKeyELj2EEC1Ev(i64* %result) local_unnamed_addr {
dec_label_pc_282a:
  %0 = ptrtoint i64* %result to i64
  %1 = add i64 %0, 24, !insn.addr !713
  %2 = inttoptr i64 %1 to i64**, !insn.addr !714
  %3 = call i64 @_ZN4llvm15SmallPtrSetImplIPNS_11AnalysisKeyEECI1NS_19SmallPtrSetImplBaseEEPPKvj(i64* %result, i64** %2, i32 2), !insn.addr !714
  ret i64 %3, !insn.addr !715

; uselistorder directives
  uselistorder i32 2, { 2, 3, 0, 1 }
}

define i64 @_ZN4llvm15SmallPtrSetImplIPvE6insertES1_(i64* %this, i64* %result, i64* %arg3) local_unnamed_addr {
dec_label_pc_285a:
  %0 = ptrtoint i64* %arg3 to i64
  %stack_var_-56 = alloca i64, align 8
  %stack_var_-64 = alloca i64, align 8
  %1 = call i64 @__readfsqword(i64 40), !insn.addr !716
  %2 = call i64 @_ZN4llvm21PointerLikeTypeTraitsIPvE16getAsVoidPointerES1_(i64* %arg3), !insn.addr !717
  %3 = inttoptr i64 %2 to i64*, !insn.addr !718
  %4 = call i64 @_ZN4llvm19SmallPtrSetImplBase10insert_impEPKv(i64* %result, i64* %3), !insn.addr !718
  %5 = inttoptr i64 %4 to i64**, !insn.addr !719
  store i64 %0, i64* %stack_var_-64, align 8, !insn.addr !720
  %6 = call i64 @_ZNK4llvm15SmallPtrSetImplIPvE12makeIteratorEPKPKv(i64* %result, i64** %5), !insn.addr !721
  store i64 %6, i64* %stack_var_-56, align 8, !insn.addr !722
  %7 = bitcast i64* %stack_var_-64 to i1**, !insn.addr !723
  %8 = call i64 @_ZSt9make_pairIN4llvm19SmallPtrSetIteratorIPvEERbESt4pairINSt25__strip_reference_wrapperINSt5decayIT_E4typeEE6__typeENS6_INS7_IT0_E4typeEE6__typeEEOS8_OSD_(i64* %this, i64* nonnull %stack_var_-56, i1** nonnull %7), !insn.addr !723
  %9 = call i64 @__readfsqword(i64 40), !insn.addr !724
  %10 = icmp eq i64 %1, %9, !insn.addr !724
  br i1 %10, label %dec_label_pc_28f0, label %dec_label_pc_28eb, !insn.addr !725

dec_label_pc_28eb:                                ; preds = %dec_label_pc_285a
  %11 = call i64 @__stack_chk_fail(), !insn.addr !726
  br label %dec_label_pc_28f0, !insn.addr !726

dec_label_pc_28f0:                                ; preds = %dec_label_pc_28eb, %dec_label_pc_285a
  %12 = ptrtoint i64* %this to i64
  ret i64 %12, !insn.addr !727

; uselistorder directives
  uselistorder i64* %this, { 1, 0 }
}

define i64 @_ZNSt14_Function_baseC1Ev(i64* %result) local_unnamed_addr {
dec_label_pc_28fa:
  %0 = ptrtoint i64* %result to i64
  store i64 0, i64* %result, align 8, !insn.addr !728
  %1 = add i64 %0, 8, !insn.addr !729
  %2 = inttoptr i64 %1 to i64*, !insn.addr !729
  store i64 0, i64* %2, align 8, !insn.addr !729
  %3 = add i64 %0, 16, !insn.addr !730
  %4 = inttoptr i64 %3 to i64*, !insn.addr !730
  store i64 0, i64* %4, align 8, !insn.addr !730
  ret i64 %0, !insn.addr !731

; uselistorder directives
  uselistorder i64 %0, { 1, 0, 2 }
}

define i64 @_ZN4llvm23SmallVectorTemplateBaseISt8functionIFbNS_9StringRefERNS_11PassManagerINS_6ModuleENS_15AnalysisManagerIS4_JEEEJEEENS_8ArrayRefINS_11PassBuilder15PipelineElementEEEEELb0EE9push_backERKSE_(i64* %result, i64* %arg2) local_unnamed_addr {
dec_label_pc_2928:
  %0 = call i64 @_ZN4llvm23SmallVectorTemplateBaseISt8functionIFbNS_9StringRefERNS_11PassManagerINS_6ModuleENS_15AnalysisManagerIS4_JEEEJEEENS_8ArrayRefINS_11PassBuilder15PipelineElementEEEEELb0EE28reserveForParamAndGetAddressERKSE_m(i64* %result, i64* %arg2, i64 1), !insn.addr !732
  %1 = call i64 @_ZN4llvm25SmallVectorTemplateCommonISt8functionIFbNS_9StringRefERNS_11PassManagerINS_6ModuleENS_15AnalysisManagerIS4_JEEEJEEENS_8ArrayRefINS_11PassBuilder15PipelineElementEEEEEvE3endEv(i64* %result), !insn.addr !733
  %2 = inttoptr i64 %1 to i64*, !insn.addr !734
  %3 = call i64 @_ZnwmPv(i64 32, i64* %2), !insn.addr !734
  %4 = inttoptr i64 %3 to i64*, !insn.addr !735
  %5 = inttoptr i64 %0 to i64*, !insn.addr !735
  %6 = call i64 @_ZNSt8functionIFbN4llvm9StringRefERNS0_11PassManagerINS0_6ModuleENS0_15AnalysisManagerIS3_JEEEJEEENS0_8ArrayRefINS0_11PassBuilder15PipelineElementEEEEEC1ERKSD_(i64* %4, i64* %5), !insn.addr !735
  %7 = call i64 @_ZNK4llvm15SmallVectorBaseIjE4sizeEv(i64* %result), !insn.addr !736
  %8 = add i64 %7, 1, !insn.addr !737
  %9 = call i64 @_ZN4llvm15SmallVectorBaseIjE8set_sizeEm(i64* %result, i64 %8), !insn.addr !738
  ret i64 %9, !insn.addr !739
}

define i64 @_ZN4llvm11PassManagerINS_6ModuleENS_15AnalysisManagerIS1_JEEEJEE7addPassIN22deobfuscate_opaque_mba24DeobfuscateOpaqueMBAPassEEENSt9enable_ifIXnt9is_same_vIT_S4_EEvE4typeEOS9_(i64* %result, i64* %arg2) local_unnamed_addr {
dec_label_pc_29aa:
  %rax.0.reg2mem = alloca i64, !insn.addr !740
  %stack_var_-40 = alloca i64, align 8
  %0 = call i64 @__readfsqword(i64 40), !insn.addr !741
  %1 = call i64 @_Znwm(i64 16), !insn.addr !742
  %2 = call i64* @_ZSt7forwardIN22deobfuscate_opaque_mba24DeobfuscateOpaqueMBAPassEEOT_RNSt16remove_referenceIS2_E4typeE(i64* %arg2), !insn.addr !743
  %3 = call i64 @_ZN4llvm6detail9PassModelINS_6ModuleEN22deobfuscate_opaque_mba24DeobfuscateOpaqueMBAPassENS_15AnalysisManagerIS2_JEEEJEEC1ES4_(i64 %1), !insn.addr !744
  %4 = inttoptr i64 %1 to i64*, !insn.addr !745
  %5 = call i64 @_ZNSt10unique_ptrIN4llvm6detail11PassConceptINS0_6ModuleENS0_15AnalysisManagerIS3_JEEEJEEESt14default_deleteIS6_EEC1IS8_vEEPS6_(i64* nonnull %stack_var_-40, i64* %4), !insn.addr !745
  %6 = call i64 @_ZNSt6vectorISt10unique_ptrIN4llvm6detail11PassConceptINS1_6ModuleENS1_15AnalysisManagerIS4_JEEEJEEESt14default_deleteIS7_EESaISA_EE9push_backEOSA_(i64* %result, i64* nonnull %stack_var_-40), !insn.addr !746
  %7 = call i64 @_ZNSt10unique_ptrIN4llvm6detail11PassConceptINS0_6ModuleENS0_15AnalysisManagerIS3_JEEEJEEESt14default_deleteIS6_EED1Ev(i64* nonnull %stack_var_-40), !insn.addr !747
  %8 = call i64 @__readfsqword(i64 40), !insn.addr !748
  %9 = icmp eq i64 %0, %8, !insn.addr !748
  store i64 0, i64* %rax.0.reg2mem, !insn.addr !749
  br i1 %9, label %dec_label_pc_2a34, label %dec_label_pc_2a2f, !insn.addr !749

dec_label_pc_2a2f:                                ; preds = %dec_label_pc_29aa
  %10 = call i64 @__stack_chk_fail(), !insn.addr !750
  store i64 %10, i64* %rax.0.reg2mem, !insn.addr !750
  br label %dec_label_pc_2a34, !insn.addr !750

dec_label_pc_2a34:                                ; preds = %dec_label_pc_2a2f, %dec_label_pc_29aa
  %rax.0.reload = load i64, i64* %rax.0.reg2mem
  ret i64 %rax.0.reload, !insn.addr !751
}

define i1* @_ZSt7forwardIbEOT_RNSt16remove_referenceIS0_E4typeE(i64* %arg1) local_unnamed_addr {
dec_label_pc_2a3d:
  %0 = bitcast i64* %arg1 to i1*, !insn.addr !752
  ret i1* %0, !insn.addr !752
}

define i64* @_ZSt7forwardIN4llvm9StringRefEEOT_RNSt16remove_referenceIS2_E4typeE(i64* %arg1) local_unnamed_addr {
dec_label_pc_2a4f:
  ret i64* %arg1, !insn.addr !753
}

define i64 @_ZNK4llvm12ilist_detail18node_base_prevnextINS_15ilist_node_baseILb0EvEELb0EE15isKnownSentinelEv(i64* %result) local_unnamed_addr {
dec_label_pc_2a62:
  ret i64 0, !insn.addr !754
}

define i64 @_ZN4llvm12ilist_detail18SpecificNodeAccessINS0_12node_optionsINS_9DbgRecordELb0ELb0EvLb0EvEEE11getValuePtrEPNS_15ilist_node_implIS4_EE(i64* %arg1) local_unnamed_addr {
dec_label_pc_2a75:
  %0 = call i64 @_ZN4llvm12ilist_detail10NodeAccess11getValuePtrINS0_12node_optionsINS_9DbgRecordELb0ELb0EvLb0EvEEEENT_7pointerEPNS_15ilist_node_implIS6_EE(i64* %arg1), !insn.addr !755
  ret i64 %0, !insn.addr !756
}

define i64 @_ZN4llvm14CastIsPossibleINS_17DbgVariableRecordEKNS_9DbgRecordEvE10isPossibleERS3_(i64* %arg1) local_unnamed_addr {
dec_label_pc_2a93:
  %0 = call i64 @_ZN4llvm13isa_impl_wrapINS_17DbgVariableRecordEKNS_9DbgRecordES3_E4doitERS3_(i64* %arg1), !insn.addr !757
  ret i64 %0, !insn.addr !758
}

define i64 @_ZN4llvm9adl_beginIRNS_14iterator_rangeINS_14ilist_iteratorINS_12ilist_detail12node_optionsINS_9DbgRecordELb0ELb0EvLb0EvEELb0ELb0EEEEEEEDTcl10begin_implcl7forwardIT_Efp_EEEOSA_(i64** %arg1) local_unnamed_addr {
dec_label_pc_2ab1:
  %0 = bitcast i64** %arg1 to i64*, !insn.addr !759
  %1 = call i64** @_ZSt7forwardIRN4llvm14iterator_rangeINS0_14ilist_iteratorINS0_12ilist_detail12node_optionsINS0_9DbgRecordELb0ELb0EvLb0EvEELb0ELb0EEEEEEOT_RNSt16remove_referenceISA_E4typeE(i64* %0), !insn.addr !759
  %2 = call i64 @_ZN4llvm10adl_detail10begin_implIRNS_14iterator_rangeINS_14ilist_iteratorINS_12ilist_detail12node_optionsINS_9DbgRecordELb0ELb0EvLb0EvEELb0ELb0EEEEEEEDTcl5begincl7forwardIT_Efp_EEEOSB_(i64** %1), !insn.addr !760
  ret i64 %2, !insn.addr !761
}

define i64 @_ZN4llvm7adl_endIRNS_14iterator_rangeINS_14ilist_iteratorINS_12ilist_detail12node_optionsINS_9DbgRecordELb0ELb0EvLb0EvEELb0ELb0EEEEEEEDTcl8end_implcl7forwardIT_Efp_EEEOSA_(i64** %arg1) local_unnamed_addr {
dec_label_pc_2ad7:
  %0 = bitcast i64** %arg1 to i64*, !insn.addr !762
  %1 = call i64** @_ZSt7forwardIRN4llvm14iterator_rangeINS0_14ilist_iteratorINS0_12ilist_detail12node_optionsINS0_9DbgRecordELb0ELb0EvLb0EvEELb0ELb0EEEEEEOT_RNSt16remove_referenceISA_E4typeE(i64* %0), !insn.addr !762
  %2 = call i64 @_ZN4llvm10adl_detail8end_implIRNS_14iterator_rangeINS_14ilist_iteratorINS_12ilist_detail12node_optionsINS_9DbgRecordELb0ELb0EvLb0EvEELb0ELb0EEEEEEEDTcl3endcl7forwardIT_Efp_EEEOSB_(i64** %1), !insn.addr !763
  ret i64 %2, !insn.addr !764
}

define i64* @_ZSt4moveIRN4llvm14ilist_iteratorINS0_12ilist_detail12node_optionsINS0_9DbgRecordELb0ELb0EvLb0EvEELb0ELb0EEEEONSt16remove_referenceIT_E4typeEOS9_(i64** %arg1) local_unnamed_addr {
dec_label_pc_2afd:
  %0 = bitcast i64** %arg1 to i64*, !insn.addr !765
  ret i64* %0, !insn.addr !765
}

define i64**** @_ZSt7forwardIRPPKvEOT_RNSt16remove_referenceIS4_E4typeE(i64* %arg1) local_unnamed_addr {
dec_label_pc_2b0f:
  %0 = bitcast i64* %arg1 to i64****, !insn.addr !766
  ret i64**** %0, !insn.addr !766
}

define i64 @_ZNSt4pairIPPKvbEC1IRS2_bLb1EEEOT_OT0_(i64* %result, i64**** %arg2, i1* %arg3) local_unnamed_addr {
dec_label_pc_2b22:
  %0 = ptrtoint i64* %result to i64
  %1 = bitcast i64**** %arg2 to i64*, !insn.addr !767
  %2 = call i64**** @_ZSt7forwardIRPPKvEOT_RNSt16remove_referenceIS4_E4typeE(i64* %1), !insn.addr !767
  %3 = load i64***, i64**** %2, align 8, !insn.addr !768
  %4 = ptrtoint i64*** %3 to i64, !insn.addr !768
  store i64 %4, i64* %result, align 8, !insn.addr !769
  %5 = bitcast i1* %arg3 to i64*, !insn.addr !770
  %6 = call i1* @_ZSt7forwardIbEOT_RNSt16remove_referenceIS0_E4typeE(i64* %5), !insn.addr !770
  %7 = bitcast i1* %6 to i8*, !insn.addr !771
  %8 = load i8, i8* %7, align 1, !insn.addr !771
  %9 = add i64 %0, 8, !insn.addr !772
  %10 = inttoptr i64 %9 to i8*, !insn.addr !772
  store i8 %8, i8* %10, align 1, !insn.addr !772
  ret i64 %0, !insn.addr !773

; uselistorder directives
  uselistorder i64 %0, { 1, 0 }
  uselistorder i64**** (i64*)* @_ZSt7forwardIRPPKvEOT_RNSt16remove_referenceIS4_E4typeE, { 1, 0 }
}

define i64*** @_ZSt7forwardIPPKvEOT_RNSt16remove_referenceIS3_E4typeE(i64* %arg1) local_unnamed_addr {
dec_label_pc_2b69:
  %0 = bitcast i64* %arg1 to i64***, !insn.addr !774
  ret i64*** %0, !insn.addr !774
}

define i64 @_ZNSt4pairIPPKvbEC1IS2_bLb1EEEOT_OT0_(i64* %result, i64*** %arg2, i1* %arg3) local_unnamed_addr {
dec_label_pc_2b7c:
  %0 = ptrtoint i64* %result to i64
  %1 = bitcast i64*** %arg2 to i64*, !insn.addr !775
  %2 = call i64*** @_ZSt7forwardIPPKvEOT_RNSt16remove_referenceIS3_E4typeE(i64* %1), !insn.addr !775
  %3 = load i64**, i64*** %2, align 8, !insn.addr !776
  %4 = ptrtoint i64** %3 to i64, !insn.addr !776
  store i64 %4, i64* %result, align 8, !insn.addr !777
  %5 = bitcast i1* %arg3 to i64*, !insn.addr !778
  %6 = call i1* @_ZSt7forwardIbEOT_RNSt16remove_referenceIS0_E4typeE(i64* %5), !insn.addr !778
  %7 = bitcast i1* %6 to i8*, !insn.addr !779
  %8 = load i8, i8* %7, align 1, !insn.addr !779
  %9 = add i64 %0, 8, !insn.addr !780
  %10 = inttoptr i64 %9 to i8*, !insn.addr !780
  store i8 %8, i8* %10, align 1, !insn.addr !780
  ret i64 %0, !insn.addr !781

; uselistorder directives
  uselistorder i64 %0, { 1, 0 }
  uselistorder i1* (i64*)* @_ZSt7forwardIbEOT_RNSt16remove_referenceIS0_E4typeE, { 4, 3, 2, 1, 0 }
  uselistorder i64*** (i64*)* @_ZSt7forwardIPPKvEOT_RNSt16remove_referenceIS3_E4typeE, { 2, 1, 0 }
}

define i64 @_ZNK4llvm15SmallPtrSetImplIPvE12makeIteratorEPKPKv(i64* %result, i64** %arg2) local_unnamed_addr {
dec_label_pc_2bc4:
  %rax.0.reg2mem = alloca i64, !insn.addr !782
  %stack_var_-56 = alloca i64, align 8
  %0 = call i64 @__readfsqword(i64 40), !insn.addr !783
  %1 = call i1 @_ZN4llvm20shouldReverseIterateIPvEEbv(), !insn.addr !784
  %2 = icmp eq i1 %1, false, !insn.addr !785
  br i1 %2, label %dec_label_pc_2c3b, label %dec_label_pc_2bf1, !insn.addr !786

dec_label_pc_2bf1:                                ; preds = %dec_label_pc_2bc4
  %3 = ptrtoint i64* %result to i64
  %4 = call i64 @_ZNK4llvm19SmallPtrSetImplBase10EndPointerEv(i64* %result), !insn.addr !787
  %5 = ptrtoint i64** %arg2 to i64, !insn.addr !788
  %6 = icmp eq i64 %4, %5, !insn.addr !788
  %7 = icmp eq i1 %6, false, !insn.addr !789
  %8 = add i64 %5, 8
  %storemerge = select i1 %7, i64 %8, i64 %3
  %9 = inttoptr i64 %storemerge to i64**, !insn.addr !790
  %10 = bitcast i64* %result to i64**, !insn.addr !790
  %11 = call i64 @_ZN4llvm19SmallPtrSetIteratorIPvEC1EPKPKvS6_RKNS_14DebugEpochBaseE(i64* nonnull %stack_var_-56, i64** %9, i64** %10, i64* %result), !insn.addr !790
  br label %dec_label_pc_2c6c, !insn.addr !791

dec_label_pc_2c3b:                                ; preds = %dec_label_pc_2bc4
  %12 = call i64 @_ZNK4llvm19SmallPtrSetImplBase10EndPointerEv(i64* %result), !insn.addr !792
  %13 = inttoptr i64 %12 to i64**, !insn.addr !793
  %14 = call i64 @_ZN4llvm19SmallPtrSetIteratorIPvEC1EPKPKvS6_RKNS_14DebugEpochBaseE(i64* nonnull %stack_var_-56, i64** %arg2, i64** %13, i64* %result), !insn.addr !793
  br label %dec_label_pc_2c6c, !insn.addr !794

dec_label_pc_2c6c:                                ; preds = %dec_label_pc_2c3b, %dec_label_pc_2bf1
  %storemerge2 = load i64, i64* %stack_var_-56, align 8
  %15 = call i64 @__readfsqword(i64 40), !insn.addr !795
  %16 = icmp eq i64 %0, %15, !insn.addr !795
  store i64 %storemerge2, i64* %rax.0.reg2mem, !insn.addr !796
  br i1 %16, label %dec_label_pc_2c80, label %dec_label_pc_2c7b, !insn.addr !796

dec_label_pc_2c7b:                                ; preds = %dec_label_pc_2c6c
  %17 = call i64 @__stack_chk_fail(), !insn.addr !797
  store i64 %17, i64* %rax.0.reg2mem, !insn.addr !797
  br label %dec_label_pc_2c80, !insn.addr !797

dec_label_pc_2c80:                                ; preds = %dec_label_pc_2c7b, %dec_label_pc_2c6c
  %rax.0.reload = load i64, i64* %rax.0.reg2mem
  ret i64 %rax.0.reload, !insn.addr !798

; uselistorder directives
  uselistorder i64 (i64*, i64**, i64**, i64*)* @_ZN4llvm19SmallPtrSetIteratorIPvEC1EPKPKvS6_RKNS_14DebugEpochBaseE, { 1, 0 }
  uselistorder i64 (i64*)* @_ZNK4llvm19SmallPtrSetImplBase10EndPointerEv, { 1, 0 }
  uselistorder i64** %arg2, { 1, 0 }
}

define i64 @_ZSt9make_pairIN4llvm19SmallPtrSetIteratorIPvEERbESt4pairINSt25__strip_reference_wrapperINSt5decayIT_E4typeEE6__typeENS6_INS7_IT0_E4typeEE6__typeEEOS8_OSD_(i64* %result, i64* %arg2, i1** %arg3) local_unnamed_addr {
dec_label_pc_2c86:
  %0 = ptrtoint i64* %result to i64
  %1 = bitcast i1** %arg3 to i64*, !insn.addr !799
  %2 = call i1** @_ZSt7forwardIRbEOT_RNSt16remove_referenceIS1_E4typeE(i64* %1), !insn.addr !799
  %3 = call i64* @_ZSt7forwardIN4llvm19SmallPtrSetIteratorIPvEEEOT_RNSt16remove_referenceIS4_E4typeE(i64* %arg2), !insn.addr !800
  %4 = call i64 @_ZNSt4pairIN4llvm19SmallPtrSetIteratorIPvEEbEC1IS3_RbLb1EEEOT_OT0_(i64* %result, i64* %3, i1** %2), !insn.addr !801
  ret i64 %0, !insn.addr !802
}

define i64 @_ZN4llvm23SmallVectorTemplateBaseISt8functionIFbNS_9StringRefERNS_11PassManagerINS_6ModuleENS_15AnalysisManagerIS4_JEEEJEEENS_8ArrayRefINS_11PassBuilder15PipelineElementEEEEELb0EE28reserveForParamAndGetAddressERKSE_m(i64* %result, i64* %arg2, i64 %arg3) local_unnamed_addr {
dec_label_pc_2cda:
  %0 = call i64* @_ZN4llvm25SmallVectorTemplateCommonISt8functionIFbNS_9StringRefERNS_11PassManagerINS_6ModuleENS_15AnalysisManagerIS4_JEEEJEEENS_8ArrayRefINS_11PassBuilder15PipelineElementEEEEEvE32reserveForParamAndGetAddressImplINS_23SmallVectorTemplateBaseISE_Lb0EEEEEPKSE_PT_RSJ_m(i64* %result, i64* %arg2, i64 %arg3), !insn.addr !803
  %1 = ptrtoint i64* %0 to i64, !insn.addr !803
  ret i64 %1, !insn.addr !804
}

define i64 @_ZN4llvm25SmallVectorTemplateCommonISt8functionIFbNS_9StringRefERNS_11PassManagerINS_6ModuleENS_15AnalysisManagerIS4_JEEEJEEENS_8ArrayRefINS_11PassBuilder15PipelineElementEEEEEvE3endEv(i64* %result) local_unnamed_addr {
dec_label_pc_2d0c:
  %0 = call i64 @_ZN4llvm25SmallVectorTemplateCommonISt8functionIFbNS_9StringRefERNS_11PassManagerINS_6ModuleENS_15AnalysisManagerIS4_JEEEJEEENS_8ArrayRefINS_11PassBuilder15PipelineElementEEEEEvE5beginEv(i64* %result), !insn.addr !805
  %1 = call i64 @_ZNK4llvm15SmallVectorBaseIjE4sizeEv(i64* %result), !insn.addr !806
  %2 = mul i64 %1, 32, !insn.addr !807
  %3 = add i64 %2, %0, !insn.addr !808
  ret i64 %3, !insn.addr !809
}

define i64 @_ZNSt8functionIFbN4llvm9StringRefERNS0_11PassManagerINS0_6ModuleENS0_15AnalysisManagerIS3_JEEEJEEENS0_8ArrayRefINS0_11PassBuilder15PipelineElementEEEEEC1ERKSD_(i64* %result, i64* %arg2) local_unnamed_addr {
dec_label_pc_2d46:
  %0 = alloca i128
  %rax.0.reg2mem = alloca i64, !insn.addr !810
  %rdi = alloca i64, align 8
  %1 = load i128, i128* %0
  %2 = ptrtoint i64* %result to i64
  %3 = call i128 @__asm_pxor(i128 %1, i128 %1), !insn.addr !811
  %4 = bitcast i64* %rdi to i128*
  %5 = load i128, i128* %4, align 8, !insn.addr !812
  call void @__asm_movups(i128 %5, i128 %3), !insn.addr !812
  %6 = add i64 %2, 16, !insn.addr !813
  %7 = inttoptr i64 %6 to i64*, !insn.addr !813
  %8 = load i64, i64* %7, align 8, !insn.addr !813
  call void @__asm_movq(i64 %8, i128 %3), !insn.addr !813
  %9 = call i64 @_ZNSt14_Function_baseC1Ev(i64* %result), !insn.addr !814
  %10 = add i64 %2, 24, !insn.addr !815
  %11 = inttoptr i64 %10 to i64*, !insn.addr !815
  store i64 0, i64* %11, align 8, !insn.addr !815
  %12 = call i64 @_ZNKSt8functionIFbN4llvm9StringRefERNS0_11PassManagerINS0_6ModuleENS0_15AnalysisManagerIS3_JEEEJEEENS0_8ArrayRefINS0_11PassBuilder15PipelineElementEEEEEcvbEv(i64* %arg2), !insn.addr !816
  %13 = trunc i64 %12 to i8, !insn.addr !817
  %14 = icmp eq i8 %13, 0, !insn.addr !817
  store i64 %12, i64* %rax.0.reg2mem, !insn.addr !818
  br i1 %14, label %dec_label_pc_2dd0, label %dec_label_pc_2d92, !insn.addr !818

dec_label_pc_2d92:                                ; preds = %dec_label_pc_2d46
  %15 = ptrtoint i64* %arg2 to i64
  %16 = add i64 %15, 24, !insn.addr !819
  %17 = inttoptr i64 %16 to i64*, !insn.addr !819
  %18 = load i64, i64* %17, align 8, !insn.addr !819
  store i64 %18, i64* %11, align 8, !insn.addr !820
  %19 = add i64 %15, 16, !insn.addr !821
  %20 = inttoptr i64 %19 to i64*, !insn.addr !821
  %21 = load i64, i64* %20, align 8, !insn.addr !821
  store i64 %21, i64* %7, align 8, !insn.addr !822
  store i64 %2, i64* %rax.0.reg2mem, !insn.addr !822
  br label %dec_label_pc_2dd0, !insn.addr !822

dec_label_pc_2dd0:                                ; preds = %dec_label_pc_2d92, %dec_label_pc_2d46
  %rax.0.reload = load i64, i64* %rax.0.reg2mem
  ret i64 %rax.0.reload, !insn.addr !823

; uselistorder directives
  uselistorder i128 %3, { 1, 0 }
  uselistorder i64* %arg2, { 1, 0 }
}

define i64* @_ZSt7forwardIN22deobfuscate_opaque_mba24DeobfuscateOpaqueMBAPassEEOT_RNSt16remove_referenceIS2_E4typeE(i64* %arg1) local_unnamed_addr {
dec_label_pc_2dd3:
  ret i64* %arg1, !insn.addr !824
}

define i64 @_ZN4llvm6detail11PassConceptINS_6ModuleENS_15AnalysisManagerIS2_JEEEJEEC1Ev(i64* %result) local_unnamed_addr {
dec_label_pc_2de6:
  %0 = ptrtoint i64* %result to i64
  %1 = load i64, i64* inttoptr (i64 11769 to i64*), align 8, !insn.addr !825
  %2 = add i64 %1, 16, !insn.addr !826
  store i64 %2, i64* %result, align 8, !insn.addr !827
  ret i64 %0, !insn.addr !828
}

define i64 @_ZN4llvm6detail11PassConceptINS_6ModuleENS_15AnalysisManagerIS2_JEEEJEED1Ev(i64* %result) local_unnamed_addr {
dec_label_pc_2e08:
  %0 = ptrtoint i64* %result to i64
  %1 = load i64, i64* inttoptr (i64 11803 to i64*), align 8, !insn.addr !829
  %2 = add i64 %1, 16, !insn.addr !830
  store i64 %2, i64* %result, align 8, !insn.addr !831
  ret i64 %0, !insn.addr !832
}

define i64 @_ZN4llvm6detail11PassConceptINS_6ModuleENS_15AnalysisManagerIS2_JEEEJEED0Ev(i64* %result) local_unnamed_addr {
dec_label_pc_2e2a:
  %0 = call i64 @_ZN4llvm6detail11PassConceptINS_6ModuleENS_15AnalysisManagerIS2_JEEEJEED1Ev(i64* %result), !insn.addr !833
  %1 = call i64 @_ZdlPvm(i64* %result, i64 8), !insn.addr !834
  ret i64 %1, !insn.addr !835
}

define i64 @_ZN4llvm6detail9PassModelINS_6ModuleEN22deobfuscate_opaque_mba24DeobfuscateOpaqueMBAPassENS_15AnalysisManagerIS2_JEEEJEEC1ES4_(i64 %arg1) local_unnamed_addr {
dec_label_pc_2e5a:
  %stack_var_-17 = alloca i64, align 8
  %0 = inttoptr i64 %arg1 to i64*, !insn.addr !836
  %1 = call i64 @_ZN4llvm6detail11PassConceptINS_6ModuleENS_15AnalysisManagerIS2_JEEEJEEC1Ev(i64* %0), !insn.addr !836
  %2 = load i64, i64* inttoptr (i64 11901 to i64*), align 8, !insn.addr !837
  %3 = add i64 %2, 16, !insn.addr !838
  store i64 %3, i64* %0, align 8, !insn.addr !839
  %4 = bitcast i64* %stack_var_-17 to i64**, !insn.addr !840
  %5 = call i64* @_ZSt4moveIRN22deobfuscate_opaque_mba24DeobfuscateOpaqueMBAPassEEONSt16remove_referenceIT_E4typeEOS4_(i64** nonnull %4), !insn.addr !840
  %6 = ptrtoint i64* %5 to i64, !insn.addr !840
  ret i64 %6, !insn.addr !841
}

define i64 @_ZNSt15__uniq_ptr_dataIN4llvm6detail11PassConceptINS0_6ModuleENS0_15AnalysisManagerIS3_JEEEJEEESt14default_deleteIS6_ELb1ELb1EECI1St15__uniq_ptr_implIS6_S8_EEPS6_(i64* %result, i64* %arg2) local_unnamed_addr {
dec_label_pc_2e98:
  %0 = call i64 @_ZNSt15__uniq_ptr_implIN4llvm6detail11PassConceptINS0_6ModuleENS0_15AnalysisManagerIS3_JEEEJEEESt14default_deleteIS6_EEC1EPS6_(i64* %result, i64* %arg2), !insn.addr !842
  ret i64 %0, !insn.addr !843
}

define i64 @_ZNSt10unique_ptrIN4llvm6detail11PassConceptINS0_6ModuleENS0_15AnalysisManagerIS3_JEEEJEEESt14default_deleteIS6_EEC1IS8_vEEPS6_(i64* %result, i64* %arg2) local_unnamed_addr {
dec_label_pc_2ec2:
  %0 = call i64 @_ZNSt15__uniq_ptr_dataIN4llvm6detail11PassConceptINS0_6ModuleENS0_15AnalysisManagerIS3_JEEEJEEESt14default_deleteIS6_ELb1ELb1EECI1St15__uniq_ptr_implIS6_S8_EEPS6_(i64* %result, i64* %arg2), !insn.addr !844
  ret i64 %0, !insn.addr !845
}

define i64 @_ZNSt10unique_ptrIN4llvm6detail11PassConceptINS0_6ModuleENS0_15AnalysisManagerIS3_JEEEJEEESt14default_deleteIS6_EED1Ev(i64* %result) local_unnamed_addr {
dec_label_pc_2eec:
  %0 = call i64 @_ZNSt15__uniq_ptr_implIN4llvm6detail11PassConceptINS0_6ModuleENS0_15AnalysisManagerIS3_JEEEJEEESt14default_deleteIS6_EE6_M_ptrEv(i64* %result), !insn.addr !846
  %1 = inttoptr i64 %0 to i64*, !insn.addr !847
  %2 = load i64, i64* %1, align 8, !insn.addr !847
  %3 = icmp eq i64 %2, 0, !insn.addr !848
  br i1 %3, label %dec_label_pc_2f42, label %dec_label_pc_2f19, !insn.addr !849

dec_label_pc_2f19:                                ; preds = %dec_label_pc_2eec
  %4 = inttoptr i64 %0 to i64***, !insn.addr !850
  %5 = call i64 @_ZNSt10unique_ptrIN4llvm6detail11PassConceptINS0_6ModuleENS0_15AnalysisManagerIS3_JEEEJEEESt14default_deleteIS6_EE11get_deleterEv(i64* %result), !insn.addr !851
  %6 = call i64* @_ZSt4moveIRPN4llvm6detail11PassConceptINS0_6ModuleENS0_15AnalysisManagerIS3_JEEEJEEEEONSt16remove_referenceIT_E4typeEOSA_(i64*** %4), !insn.addr !852
  %7 = load i64, i64* %6, align 8, !insn.addr !853
  %8 = inttoptr i64 %5 to i64*, !insn.addr !854
  %9 = inttoptr i64 %7 to i64*, !insn.addr !854
  %10 = call i64 @_ZNKSt14default_deleteIN4llvm6detail11PassConceptINS0_6ModuleENS0_15AnalysisManagerIS3_JEEEJEEEEclEPS6_(i64* %8, i64* %9), !insn.addr !854
  br label %dec_label_pc_2f42, !insn.addr !854

dec_label_pc_2f42:                                ; preds = %dec_label_pc_2f19, %dec_label_pc_2eec
  store i64 0, i64* %1, align 8, !insn.addr !855
  ret i64 %0, !insn.addr !856
}

define i64 @_ZNSt6vectorISt10unique_ptrIN4llvm6detail11PassConceptINS1_6ModuleENS1_15AnalysisManagerIS4_JEEEJEEESt14default_deleteIS7_EESaISA_EE9push_backEOSA_(i64* %result, i64* %arg2) local_unnamed_addr {
dec_label_pc_2f54:
  %0 = bitcast i64* %arg2 to i64**, !insn.addr !857
  %1 = call i64* @_ZSt4moveIRSt10unique_ptrIN4llvm6detail11PassConceptINS1_6ModuleENS1_15AnalysisManagerIS4_JEEEJEEESt14default_deleteIS7_EEEONSt16remove_referenceIT_E4typeEOSD_(i64** %0), !insn.addr !857
  %2 = ptrtoint i64* %1 to i64, !insn.addr !857
  %3 = call i64* @_ZNSt6vectorISt10unique_ptrIN4llvm6detail11PassConceptINS1_6ModuleENS1_15AnalysisManagerIS4_JEEEJEEESt14default_deleteIS7_EESaISA_EE12emplace_backIJSA_EEERSA_DpOT_(i64* %result, i64 %2), !insn.addr !858
  %4 = ptrtoint i64* %3 to i64, !insn.addr !858
  ret i64 %4, !insn.addr !859
}

define i64 @_ZN4llvm12ilist_detail10NodeAccess11getValuePtrINS0_12node_optionsINS_9DbgRecordELb0ELb0EvLb0EvEEEENT_7pointerEPNS_15ilist_node_implIS6_EE(i64* %arg1) local_unnamed_addr {
dec_label_pc_2f89:
  %0 = ptrtoint i64* %arg1 to i64
  ret i64 %0, !insn.addr !860
}

define i64 @_ZN4llvm13isa_impl_wrapINS_17DbgVariableRecordEKNS_9DbgRecordES3_E4doitERS3_(i64* %arg1) local_unnamed_addr {
dec_label_pc_2f9b:
  %0 = call i64 @_ZN4llvm11isa_impl_clINS_17DbgVariableRecordEKNS_9DbgRecordEE4doitERS3_(i64* %arg1), !insn.addr !861
  ret i64 %0, !insn.addr !862
}

define i64** @_ZSt7forwardIRN4llvm14iterator_rangeINS0_14ilist_iteratorINS0_12ilist_detail12node_optionsINS0_9DbgRecordELb0ELb0EvLb0EvEELb0ELb0EEEEEEOT_RNSt16remove_referenceISA_E4typeE(i64* %arg1) local_unnamed_addr {
dec_label_pc_2fb9:
  %0 = bitcast i64* %arg1 to i64**, !insn.addr !863
  ret i64** %0, !insn.addr !863
}

define i64 @_ZN4llvm10adl_detail10begin_implIRNS_14iterator_rangeINS_14ilist_iteratorINS_12ilist_detail12node_optionsINS_9DbgRecordELb0ELb0EvLb0EvEELb0ELb0EEEEEEEDTcl5begincl7forwardIT_Efp_EEEOSB_(i64** %arg1) local_unnamed_addr {
dec_label_pc_2fcb:
  %0 = bitcast i64** %arg1 to i64*, !insn.addr !864
  %1 = call i64** @_ZSt7forwardIRN4llvm14iterator_rangeINS0_14ilist_iteratorINS0_12ilist_detail12node_optionsINS0_9DbgRecordELb0ELb0EvLb0EvEELb0ELb0EEEEEEOT_RNSt16remove_referenceISA_E4typeE(i64* %0), !insn.addr !864
  %2 = bitcast i64** %1 to i64*, !insn.addr !865
  %3 = call i64 @_ZNK4llvm14iterator_rangeINS_14ilist_iteratorINS_12ilist_detail12node_optionsINS_9DbgRecordELb0ELb0EvLb0EvEELb0ELb0EEEE5beginEv(i64* %2), !insn.addr !865
  ret i64 %3, !insn.addr !866
}

define i64 @_ZN4llvm10adl_detail8end_implIRNS_14iterator_rangeINS_14ilist_iteratorINS_12ilist_detail12node_optionsINS_9DbgRecordELb0ELb0EvLb0EvEELb0ELb0EEEEEEEDTcl3endcl7forwardIT_Efp_EEEOSB_(i64** %arg1) local_unnamed_addr {
dec_label_pc_2ffa:
  %0 = bitcast i64** %arg1 to i64*, !insn.addr !867
  %1 = call i64** @_ZSt7forwardIRN4llvm14iterator_rangeINS0_14ilist_iteratorINS0_12ilist_detail12node_optionsINS0_9DbgRecordELb0ELb0EvLb0EvEELb0ELb0EEEEEEOT_RNSt16remove_referenceISA_E4typeE(i64* %0), !insn.addr !867
  %2 = bitcast i64** %1 to i64*, !insn.addr !868
  %3 = call i64 @_ZNK4llvm14iterator_rangeINS_14ilist_iteratorINS_12ilist_detail12node_optionsINS_9DbgRecordELb0ELb0EvLb0EvEELb0ELb0EEEE3endEv(i64* %2), !insn.addr !868
  ret i64 %3, !insn.addr !869

; uselistorder directives
  uselistorder i64** (i64*)* @_ZSt7forwardIRN4llvm14iterator_rangeINS0_14ilist_iteratorINS0_12ilist_detail12node_optionsINS0_9DbgRecordELb0ELb0EvLb0EvEELb0ELb0EEEEEEOT_RNSt16remove_referenceISA_E4typeE, { 3, 2, 1, 0 }
}

define i64 @_ZNK4llvm12ilist_detail18node_base_prevnextINS_15ilist_node_baseILb0EvEELb0EE7getNextEv(i64* %result) local_unnamed_addr {
dec_label_pc_302a:
  %0 = ptrtoint i64* %result to i64
  %1 = add i64 %0, 8, !insn.addr !870
  %2 = inttoptr i64 %1 to i64*, !insn.addr !870
  %3 = load i64, i64* %2, align 8, !insn.addr !870
  ret i64 %3, !insn.addr !871
}

define i64 @_ZN4llvm19SmallPtrSetIteratorIPvEC1EPKPKvS6_RKNS_14DebugEpochBaseE(i64* %result, i64** %arg2, i64** %arg3, i64* %arg4) local_unnamed_addr {
dec_label_pc_3040:
  %0 = call i64 @_ZN4llvm23SmallPtrSetIteratorImplC1EPKPKvS4_(i64* %result, i64** %arg2, i64** %arg3), !insn.addr !872
  %1 = call i64 @_ZN4llvm14DebugEpochBase10HandleBaseC1EPKS0_(i64* %result, i64* %arg4), !insn.addr !873
  ret i64 %1, !insn.addr !874
}

define i64* @_ZSt7forwardIN4llvm19SmallPtrSetIteratorIPvEEEOT_RNSt16remove_referenceIS4_E4typeE(i64* %arg1) local_unnamed_addr {
dec_label_pc_3089:
  ret i64* %arg1, !insn.addr !875
}

define i1** @_ZSt7forwardIRbEOT_RNSt16remove_referenceIS1_E4typeE(i64* %arg1) local_unnamed_addr {
dec_label_pc_309b:
  %0 = bitcast i64* %arg1 to i1**, !insn.addr !876
  ret i1** %0, !insn.addr !876
}

define i64 @_ZNSt4pairIN4llvm19SmallPtrSetIteratorIPvEEbEC1IS3_RbLb1EEEOT_OT0_(i64* %result, i64* %arg2, i1** %arg3) local_unnamed_addr {
dec_label_pc_30ae:
  %0 = ptrtoint i64* %result to i64
  %1 = call i64* @_ZSt7forwardIN4llvm19SmallPtrSetIteratorIPvEEEOT_RNSt16remove_referenceIS4_E4typeE(i64* %arg2), !insn.addr !877
  %2 = ptrtoint i64* %1 to i64, !insn.addr !877
  %3 = add i64 %2, 8, !insn.addr !878
  %4 = inttoptr i64 %3 to i64*, !insn.addr !878
  %5 = load i64, i64* %4, align 8, !insn.addr !878
  %6 = load i64, i64* %1, align 8, !insn.addr !879
  store i64 %6, i64* %result, align 8, !insn.addr !880
  %7 = add i64 %0, 8, !insn.addr !881
  %8 = inttoptr i64 %7 to i64*, !insn.addr !881
  store i64 %5, i64* %8, align 8, !insn.addr !881
  %9 = bitcast i1** %arg3 to i64*, !insn.addr !882
  %10 = call i1** @_ZSt7forwardIRbEOT_RNSt16remove_referenceIS1_E4typeE(i64* %9), !insn.addr !882
  %11 = bitcast i1** %10 to i8*, !insn.addr !883
  %12 = load i8, i8* %11, align 1, !insn.addr !883
  %13 = add i64 %0, 16, !insn.addr !884
  %14 = inttoptr i64 %13 to i8*, !insn.addr !884
  store i8 %12, i8* %14, align 1, !insn.addr !884
  ret i64 %0, !insn.addr !885

; uselistorder directives
  uselistorder i64 %0, { 1, 0, 2 }
  uselistorder i1** (i64*)* @_ZSt7forwardIRbEOT_RNSt16remove_referenceIS1_E4typeE, { 1, 0 }
  uselistorder i64* (i64*)* @_ZSt7forwardIN4llvm19SmallPtrSetIteratorIPvEEEOT_RNSt16remove_referenceIS4_E4typeE, { 1, 0 }
}

define i64** @_ZNSt9_Any_data9_M_accessIPKSt9type_infoEERT_v(i64* %result) local_unnamed_addr {
dec_label_pc_30fe:
  %0 = call i64 @_ZNSt9_Any_data9_M_accessEv(i64* %result), !insn.addr !886
  %1 = inttoptr i64 %0 to i64**, !insn.addr !887
  ret i64** %1, !insn.addr !887

; uselistorder directives
  uselistorder i64 (i64*)* @_ZNSt9_Any_data9_M_accessEv, { 4, 3, 2, 1, 0 }
}

define i1 @_ZNKSt4lessIvEclIKvS2_EEbPT_PT0_(i64* %result, i64* %arg2, i64* %arg3) local_unnamed_addr {
dec_label_pc_311c:
  %rax.0.reg2mem = alloca i64, !insn.addr !888
  %stack_var_-17 = alloca i64, align 8
  %0 = call i64 @__readfsqword(i64 40), !insn.addr !889
  %1 = call i64 @_ZNKSt4lessIPKvEclES1_S1_(i64* nonnull %stack_var_-17, i64* %arg2, i64* %arg3), !insn.addr !890
  %2 = call i64 @__readfsqword(i64 40), !insn.addr !891
  %3 = icmp eq i64 %0, %2, !insn.addr !891
  store i64 %1, i64* %rax.0.reg2mem, !insn.addr !892
  br i1 %3, label %dec_label_pc_316e, label %dec_label_pc_3169, !insn.addr !892

dec_label_pc_3169:                                ; preds = %dec_label_pc_311c
  %4 = call i64 @__stack_chk_fail(), !insn.addr !893
  store i64 %4, i64* %rax.0.reg2mem, !insn.addr !893
  br label %dec_label_pc_316e, !insn.addr !893

dec_label_pc_316e:                                ; preds = %dec_label_pc_3169, %dec_label_pc_311c
  %rax.0.reload = load i64, i64* %rax.0.reg2mem
  %5 = urem i64 %rax.0.reload, 2
  %6 = icmp ne i64 %5, 0, !insn.addr !894
  ret i1 %6, !insn.addr !894

; uselistorder directives
  uselistorder i64 2, { 1, 2, 3, 0 }
}

define i64* @_ZN4llvm25SmallVectorTemplateCommonISt8functionIFbNS_9StringRefERNS_11PassManagerINS_6ModuleENS_15AnalysisManagerIS4_JEEEJEEENS_8ArrayRefINS_11PassBuilder15PipelineElementEEEEEvE32reserveForParamAndGetAddressImplINS_23SmallVectorTemplateBaseISE_Lb0EEEEEPKSE_PT_RSJ_m(i64* %arg1, i64* %arg2, i64 %arg3) local_unnamed_addr {
dec_label_pc_3170:
  %storemerge1.reg2mem = alloca i64, !insn.addr !895
  %0 = ptrtoint i64* %arg2 to i64
  %1 = call i64 @_ZNK4llvm15SmallVectorBaseIjE4sizeEv(i64* %arg1), !insn.addr !896
  %2 = add i64 %1, %arg3, !insn.addr !897
  %3 = call i64 @_ZNK4llvm15SmallVectorBaseIjE8capacityEv(i64* %arg1), !insn.addr !898
  %4 = icmp ult i64 %3, %2, !insn.addr !899
  %5 = icmp eq i1 %4, false, !insn.addr !900
  %6 = icmp eq i1 %5, false, !insn.addr !901
  %7 = icmp eq i1 %6, false, !insn.addr !902
  %8 = icmp eq i1 %7, false, !insn.addr !903
  store i64 %0, i64* %storemerge1.reg2mem, !insn.addr !904
  br i1 %8, label %dec_label_pc_31c8, label %dec_label_pc_324d, !insn.addr !904

dec_label_pc_31c8:                                ; preds = %dec_label_pc_3170
  %9 = call i64 @_ZNK4llvm25SmallVectorTemplateCommonISt8functionIFbNS_9StringRefERNS_11PassManagerINS_6ModuleENS_15AnalysisManagerIS4_JEEEJEEENS_8ArrayRefINS_11PassBuilder15PipelineElementEEEEEvE20isReferenceToStorageEPKv(i64* %arg1, i64* %arg2), !insn.addr !905
  %10 = urem i64 %9, 256, !insn.addr !906
  %11 = icmp eq i64 %10, 0, !insn.addr !907
  %12 = icmp eq i1 %11, false, !insn.addr !908
  %13 = icmp eq i1 %12, false, !insn.addr !909
  br i1 %13, label %dec_label_pc_3216.thread, label %dec_label_pc_322f, !insn.addr !910

dec_label_pc_3216.thread:                         ; preds = %dec_label_pc_31c8
  %14 = call i64 @_ZN4llvm23SmallVectorTemplateBaseISt8functionIFbNS_9StringRefERNS_11PassManagerINS_6ModuleENS_15AnalysisManagerIS4_JEEEJEEENS_8ArrayRefINS_11PassBuilder15PipelineElementEEEEELb0EE4growEm(i64* %arg1, i64 %2), !insn.addr !911
  store i64 %0, i64* %storemerge1.reg2mem
  br label %dec_label_pc_324d

dec_label_pc_322f:                                ; preds = %dec_label_pc_31c8
  %15 = call i64 @_ZN4llvm25SmallVectorTemplateCommonISt8functionIFbNS_9StringRefERNS_11PassManagerINS_6ModuleENS_15AnalysisManagerIS4_JEEEJEEENS_8ArrayRefINS_11PassBuilder15PipelineElementEEEEEvE5beginEv(i64* %arg1), !insn.addr !912
  %16 = sub i64 %0, %15, !insn.addr !913
  %17 = and i64 %16, -32
  %18 = call i64 @_ZN4llvm23SmallVectorTemplateBaseISt8functionIFbNS_9StringRefERNS_11PassManagerINS_6ModuleENS_15AnalysisManagerIS4_JEEEJEEENS_8ArrayRefINS_11PassBuilder15PipelineElementEEEEELb0EE4growEm(i64* %arg1, i64 %2), !insn.addr !911
  %19 = call i64 @_ZN4llvm25SmallVectorTemplateCommonISt8functionIFbNS_9StringRefERNS_11PassManagerINS_6ModuleENS_15AnalysisManagerIS4_JEEEJEEENS_8ArrayRefINS_11PassBuilder15PipelineElementEEEEEvE5beginEv(i64* %arg1), !insn.addr !914
  %20 = add i64 %19, %17, !insn.addr !915
  store i64 %20, i64* %storemerge1.reg2mem, !insn.addr !916
  br label %dec_label_pc_324d, !insn.addr !916

dec_label_pc_324d:                                ; preds = %dec_label_pc_3216.thread, %dec_label_pc_3170, %dec_label_pc_322f
  %storemerge1.reload = load i64, i64* %storemerge1.reg2mem
  %21 = inttoptr i64 %storemerge1.reload to i64*, !insn.addr !917
  ret i64* %21, !insn.addr !917

; uselistorder directives
  uselistorder i64 %2, { 1, 0, 2 }
  uselistorder i64 %0, { 2, 0, 1 }
  uselistorder i64* %storemerge1.reg2mem, { 0, 3, 1, 2 }
  uselistorder i64 (i64*, i64)* @_ZN4llvm23SmallVectorTemplateBaseISt8functionIFbNS_9StringRefERNS_11PassManagerINS_6ModuleENS_15AnalysisManagerIS4_JEEEJEEENS_8ArrayRefINS_11PassBuilder15PipelineElementEEEEELb0EE4growEm, { 1, 0 }
  uselistorder i64* %arg1, { 1, 2, 3, 0, 4, 5, 6 }
  uselistorder label %dec_label_pc_324d, { 2, 0, 1 }
}

define i64 @_ZN4llvm25SmallVectorTemplateCommonISt8functionIFbNS_9StringRefERNS_11PassManagerINS_6ModuleENS_15AnalysisManagerIS4_JEEEJEEENS_8ArrayRefINS_11PassBuilder15PipelineElementEEEEEvE5beginEv(i64* %result) local_unnamed_addr {
dec_label_pc_3250:
  %0 = ptrtoint i64* %result to i64
  ret i64 %0, !insn.addr !918
}

define i64 @_ZNKSt8functionIFbN4llvm9StringRefERNS0_11PassManagerINS0_6ModuleENS0_15AnalysisManagerIS3_JEEEJEEENS0_8ArrayRefINS0_11PassBuilder15PipelineElementEEEEEcvbEv(i64* %result) local_unnamed_addr {
dec_label_pc_3266:
  %0 = call i64 @_ZNKSt14_Function_base8_M_emptyEv(i64* %result), !insn.addr !919
  %1 = and i64 %0, 4294967295, !insn.addr !920
  %2 = xor i64 %1, 1, !insn.addr !920
  ret i64 %2, !insn.addr !921

; uselistorder directives
  uselistorder i64 4294967295, { 1, 0 }
}

define i64* @_ZSt4moveIRN22deobfuscate_opaque_mba24DeobfuscateOpaqueMBAPassEEONSt16remove_referenceIT_E4typeEOS4_(i64** %arg1) local_unnamed_addr {
dec_label_pc_3287:
  %0 = bitcast i64** %arg1 to i64*, !insn.addr !922
  ret i64* %0, !insn.addr !922
}

define i64 @_ZNSt15__uniq_ptr_implIN4llvm6detail11PassConceptINS0_6ModuleENS0_15AnalysisManagerIS3_JEEEJEEESt14default_deleteIS6_EEC1EPS6_(i64* %result, i64* %arg2) local_unnamed_addr {
dec_label_pc_329a:
  %0 = ptrtoint i64* %arg2 to i64
  %1 = call i64 @_ZNSt5tupleIJPN4llvm6detail11PassConceptINS0_6ModuleENS0_15AnalysisManagerIS3_JEEEJEEESt14default_deleteIS6_EEEC1ILb1ELb1EEEv(i64* %result), !insn.addr !923
  %2 = call i64 @_ZNSt15__uniq_ptr_implIN4llvm6detail11PassConceptINS0_6ModuleENS0_15AnalysisManagerIS3_JEEEJEEESt14default_deleteIS6_EE6_M_ptrEv(i64* %result), !insn.addr !924
  %3 = inttoptr i64 %2 to i64*, !insn.addr !925
  store i64 %0, i64* %3, align 8, !insn.addr !925
  ret i64 %2, !insn.addr !926

; uselistorder directives
  uselistorder i64 %2, { 1, 0 }
}

define i64 @_ZNSt15__uniq_ptr_implIN4llvm6detail11PassConceptINS0_6ModuleENS0_15AnalysisManagerIS3_JEEEJEEESt14default_deleteIS6_EE6_M_ptrEv(i64* %result) local_unnamed_addr {
dec_label_pc_32d6:
  %0 = call i64* @_ZSt3getILm0EJPN4llvm6detail11PassConceptINS0_6ModuleENS0_15AnalysisManagerIS3_JEEEJEEESt14default_deleteIS6_EEERNSt13tuple_elementIXT_ESt5tupleIJDpT0_EEE4typeERSE_(i64* %result), !insn.addr !927
  %1 = ptrtoint i64* %0 to i64, !insn.addr !927
  ret i64 %1, !insn.addr !928
}

define i64 @_ZNSt10unique_ptrIN4llvm6detail11PassConceptINS0_6ModuleENS0_15AnalysisManagerIS3_JEEEJEEESt14default_deleteIS6_EE11get_deleterEv(i64* %result) local_unnamed_addr {
dec_label_pc_32f4:
  %0 = call i64 @_ZNSt15__uniq_ptr_implIN4llvm6detail11PassConceptINS0_6ModuleENS0_15AnalysisManagerIS3_JEEEJEEESt14default_deleteIS6_EE10_M_deleterEv(i64* %result), !insn.addr !929
  ret i64 %0, !insn.addr !930
}

define i64* @_ZSt4moveIRPN4llvm6detail11PassConceptINS0_6ModuleENS0_15AnalysisManagerIS3_JEEEJEEEEONSt16remove_referenceIT_E4typeEOSA_(i64*** %arg1) local_unnamed_addr {
dec_label_pc_3312:
  %0 = bitcast i64*** %arg1 to i64*, !insn.addr !931
  ret i64* %0, !insn.addr !931
}

define i64 @_ZNKSt14default_deleteIN4llvm6detail11PassConceptINS0_6ModuleENS0_15AnalysisManagerIS3_JEEEJEEEEclEPS6_(i64* %result, i64* %arg2) local_unnamed_addr {
dec_label_pc_3324:
  %0 = ptrtoint i64* %arg2 to i64
  ret i64 %0, !insn.addr !932
}

define i64* @_ZSt4moveIRSt10unique_ptrIN4llvm6detail11PassConceptINS1_6ModuleENS1_15AnalysisManagerIS4_JEEEJEEESt14default_deleteIS7_EEEONSt16remove_referenceIT_E4typeEOSD_(i64** %arg1) local_unnamed_addr {
dec_label_pc_3353:
  %0 = bitcast i64** %arg1 to i64*, !insn.addr !933
  ret i64* %0, !insn.addr !933
}

define i64* @_ZNSt6vectorISt10unique_ptrIN4llvm6detail11PassConceptINS1_6ModuleENS1_15AnalysisManagerIS4_JEEEJEEESt14default_deleteIS7_EESaISA_EE12emplace_backIJSA_EEERSA_DpOT_(i64* %result, i64 %arg2) local_unnamed_addr {
dec_label_pc_3366:
  %0 = ptrtoint i64* %result to i64
  %1 = add i64 %0, 8, !insn.addr !934
  %2 = inttoptr i64 %1 to i64*, !insn.addr !934
  %3 = load i64, i64* %2, align 8, !insn.addr !934
  %4 = add i64 %0, 16, !insn.addr !935
  %5 = inttoptr i64 %4 to i64*, !insn.addr !935
  %6 = load i64, i64* %5, align 8, !insn.addr !935
  %7 = icmp eq i64 %3, %6, !insn.addr !936
  %8 = inttoptr i64 %arg2 to i64*
  %9 = call i64* @_ZSt7forwardISt10unique_ptrIN4llvm6detail11PassConceptINS1_6ModuleENS1_15AnalysisManagerIS4_JEEEJEEESt14default_deleteIS7_EEEOT_RNSt16remove_referenceISB_E4typeE(i64* %8)
  br i1 %7, label %dec_label_pc_341b, label %dec_label_pc_3394, !insn.addr !937

dec_label_pc_3394:                                ; preds = %dec_label_pc_3366
  %10 = load i64, i64* %2, align 8, !insn.addr !938
  %11 = call i64* @_ZSt7forwardISt10unique_ptrIN4llvm6detail11PassConceptINS1_6ModuleENS1_15AnalysisManagerIS4_JEEEJEEESt14default_deleteIS7_EEEOT_RNSt16remove_referenceISB_E4typeE(i64* %9), !insn.addr !939
  %12 = inttoptr i64 %10 to i64*, !insn.addr !940
  %13 = call i64 @_ZnwmPv(i64 8, i64* %12), !insn.addr !940
  %14 = call i64* @_ZSt7forwardISt10unique_ptrIN4llvm6detail11PassConceptINS1_6ModuleENS1_15AnalysisManagerIS4_JEEEJEEESt14default_deleteIS7_EEEOT_RNSt16remove_referenceISB_E4typeE(i64* %11), !insn.addr !941
  %15 = inttoptr i64 %13 to i64*, !insn.addr !942
  %16 = call i64 @_ZNSt10unique_ptrIN4llvm6detail11PassConceptINS0_6ModuleENS0_15AnalysisManagerIS3_JEEEJEEESt14default_deleteIS6_EEC1EOS9_(i64* %15, i64* %14), !insn.addr !942
  %17 = load i64, i64* %2, align 8, !insn.addr !943
  %18 = add i64 %17, 8, !insn.addr !944
  store i64 %18, i64* %2, align 8, !insn.addr !945
  br label %dec_label_pc_344b, !insn.addr !946

dec_label_pc_341b:                                ; preds = %dec_label_pc_3366
  %19 = ptrtoint i64* %9 to i64, !insn.addr !947
  %20 = call i64 @_ZNSt6vectorISt10unique_ptrIN4llvm6detail11PassConceptINS1_6ModuleENS1_15AnalysisManagerIS4_JEEEJEEESt14default_deleteIS7_EESaISA_EE3endEv(i64* %result), !insn.addr !948
  call void @_ZNSt6vectorISt10unique_ptrIN4llvm6detail11PassConceptINS1_6ModuleENS1_15AnalysisManagerIS4_JEEEJEEESt14default_deleteIS7_EESaISA_EE17_M_realloc_insertIJSA_EEEvN9__gnu_cxx17__normal_iteratorIPSA_SC_EEDpOT_(i64* %result, i64 %20, i64 %19), !insn.addr !949
  br label %dec_label_pc_344b, !insn.addr !949

dec_label_pc_344b:                                ; preds = %dec_label_pc_341b, %dec_label_pc_3394
  %21 = call i64 @_ZNSt6vectorISt10unique_ptrIN4llvm6detail11PassConceptINS1_6ModuleENS1_15AnalysisManagerIS4_JEEEJEEESt14default_deleteIS7_EESaISA_EE4backEv(i64* %result), !insn.addr !950
  %22 = inttoptr i64 %21 to i64*, !insn.addr !951
  ret i64* %22, !insn.addr !951

; uselistorder directives
  uselistorder i64* %9, { 1, 0 }
  uselistorder i64* %2, { 1, 0, 2, 3 }
  uselistorder i64* %result, { 2, 0, 1, 3 }
}

define i64** @_ZSt7forwardIRN4llvm11PassManagerINS0_6ModuleENS0_15AnalysisManagerIS2_JEEEJEEEEOT_RNSt16remove_referenceIS7_E4typeE(i64* %arg1) local_unnamed_addr {
dec_label_pc_345d:
  %0 = bitcast i64* %arg1 to i64**, !insn.addr !952
  ret i64** %0, !insn.addr !952
}

define i64* @_ZSt7forwardIN4llvm8ArrayRefINS0_11PassBuilder15PipelineElementEEEEOT_RNSt16remove_referenceIS5_E4typeE(i64* %arg1) local_unnamed_addr {
dec_label_pc_346f:
  ret i64* %arg1, !insn.addr !953
}

define i64 @_ZN4llvm14ilist_iteratorINS_12ilist_detail12node_optionsINS_9DbgRecordELb0ELb0EvLb0EvEELb0ELb0EEppEv(i64* %result) local_unnamed_addr {
dec_label_pc_3482:
  %0 = ptrtoint i64* %result to i64
  %1 = call i64 @_ZN4llvm15ilist_node_implINS_12ilist_detail12node_optionsINS_9DbgRecordELb0ELb0EvLb0EvEEE7getNextEv(i64* %result), !insn.addr !954
  store i64 %1, i64* %result, align 8, !insn.addr !955
  ret i64 %0, !insn.addr !956
}

define i64 @_ZN4llvm11isa_impl_clINS_17DbgVariableRecordEKNS_9DbgRecordEE4doitERS3_(i64* %arg1) local_unnamed_addr {
dec_label_pc_34ae:
  %0 = call i64 @_ZN4llvm8isa_implINS_17DbgVariableRecordENS_9DbgRecordEvE4doitERKS2_(i64* %arg1), !insn.addr !957
  ret i64 %0, !insn.addr !958
}

define i64 @_ZNKSt4lessIPKvEclES1_S1_(i64* %result, i64* %arg2, i64* %arg3) local_unnamed_addr {
dec_label_pc_34cc:
  %0 = call i64 @_ZSt23__is_constant_evaluatedv(), !insn.addr !959
  %1 = trunc i64 %0 to i8, !insn.addr !960
  %2 = icmp eq i8 %1, 0, !insn.addr !960
  %3 = icmp ult i64* %arg2, %arg3
  %4 = zext i1 %3 to i64
  %storemerge.v.v.v = select i1 %2, i64* %arg3, i64* %arg2
  %storemerge.v.v = ptrtoint i64* %storemerge.v.v.v to i64
  %storemerge.v = and i64 %storemerge.v.v, -256
  %storemerge = or i64 %storemerge.v, %4
  ret i64 %storemerge, !insn.addr !961

; uselistorder directives
  uselistorder i64 ()* @_ZSt23__is_constant_evaluatedv, { 1, 0 }
}

define i64 @_ZNK4llvm25SmallVectorTemplateCommonISt8functionIFbNS_9StringRefERNS_11PassManagerINS_6ModuleENS_15AnalysisManagerIS4_JEEEJEEENS_8ArrayRefINS_11PassBuilder15PipelineElementEEEEEvE20isReferenceToStorageEPKv(i64* %result, i64* %arg2) local_unnamed_addr {
dec_label_pc_350a:
  %0 = call i64 @_ZNK4llvm25SmallVectorTemplateCommonISt8functionIFbNS_9StringRefERNS_11PassManagerINS_6ModuleENS_15AnalysisManagerIS4_JEEEJEEENS_8ArrayRefINS_11PassBuilder15PipelineElementEEEEEvE3endEv(i64* %result), !insn.addr !962
  %1 = call i64 @_ZNK4llvm25SmallVectorTemplateCommonISt8functionIFbNS_9StringRefERNS_11PassManagerINS_6ModuleENS_15AnalysisManagerIS4_JEEEJEEENS_8ArrayRefINS_11PassBuilder15PipelineElementEEEEEvE5beginEv(i64* %result), !insn.addr !963
  %2 = inttoptr i64 %1 to i64*, !insn.addr !964
  %3 = inttoptr i64 %0 to i64*, !insn.addr !964
  %4 = call i64 @_ZNK4llvm25SmallVectorTemplateCommonISt8functionIFbNS_9StringRefERNS_11PassManagerINS_6ModuleENS_15AnalysisManagerIS4_JEEEJEEENS_8ArrayRefINS_11PassBuilder15PipelineElementEEEEEvE18isReferenceToRangeEPKvSH_SH_(i64* %result, i64* %arg2, i64* %2, i64* %3), !insn.addr !964
  ret i64 %4, !insn.addr !965
}

define i64 @_ZN4llvm23SmallVectorTemplateBaseISt8functionIFbNS_9StringRefERNS_11PassManagerINS_6ModuleENS_15AnalysisManagerIS4_JEEEJEEENS_8ArrayRefINS_11PassBuilder15PipelineElementEEEEELb0EE4growEm(i64* %result, i64 %arg2) local_unnamed_addr {
dec_label_pc_3556:
  %rax.0.reg2mem = alloca i64, !insn.addr !966
  %stack_var_-32 = alloca i64, align 8
  %0 = call i64 @__readfsqword(i64 40), !insn.addr !967
  %1 = call i64 @_ZN4llvm23SmallVectorTemplateBaseISt8functionIFbNS_9StringRefERNS_11PassManagerINS_6ModuleENS_15AnalysisManagerIS4_JEEEJEEENS_8ArrayRefINS_11PassBuilder15PipelineElementEEEEELb0EE13mallocForGrowEmRm(i64* %result, i64 %arg2, i64* nonnull %stack_var_-32), !insn.addr !968
  %2 = inttoptr i64 %1 to i64*, !insn.addr !969
  %3 = call i64 @_ZN4llvm23SmallVectorTemplateBaseISt8functionIFbNS_9StringRefERNS_11PassManagerINS_6ModuleENS_15AnalysisManagerIS4_JEEEJEEENS_8ArrayRefINS_11PassBuilder15PipelineElementEEEEELb0EE19moveElementsForGrowEPSE_(i64* %result, i64* %2), !insn.addr !969
  %4 = load i64, i64* %stack_var_-32, align 8, !insn.addr !970
  %5 = call i64 @_ZN4llvm23SmallVectorTemplateBaseISt8functionIFbNS_9StringRefERNS_11PassManagerINS_6ModuleENS_15AnalysisManagerIS4_JEEEJEEENS_8ArrayRefINS_11PassBuilder15PipelineElementEEEEELb0EE21takeAllocationForGrowEPSE_m(i64* %result, i64* %2, i64 %4), !insn.addr !971
  %6 = call i64 @__readfsqword(i64 40), !insn.addr !972
  %7 = icmp eq i64 %0, %6, !insn.addr !972
  store i64 0, i64* %rax.0.reg2mem, !insn.addr !973
  br i1 %7, label %dec_label_pc_35d3, label %dec_label_pc_35ce, !insn.addr !973

dec_label_pc_35ce:                                ; preds = %dec_label_pc_3556
  %8 = call i64 @__stack_chk_fail(), !insn.addr !974
  store i64 %8, i64* %rax.0.reg2mem, !insn.addr !974
  br label %dec_label_pc_35d3, !insn.addr !974

dec_label_pc_35d3:                                ; preds = %dec_label_pc_35ce, %dec_label_pc_3556
  %rax.0.reload = load i64, i64* %rax.0.reg2mem
  ret i64 %rax.0.reload, !insn.addr !975

; uselistorder directives
  uselistorder i64* %stack_var_-32, { 1, 0 }
}

define i64 @_ZNSt5tupleIJPN4llvm6detail11PassConceptINS0_6ModuleENS0_15AnalysisManagerIS3_JEEEJEEESt14default_deleteIS6_EEEC1ILb1ELb1EEEv(i64* %result) local_unnamed_addr {
dec_label_pc_35d6:
  %0 = call i64 @_ZNSt11_Tuple_implILm0EJPN4llvm6detail11PassConceptINS0_6ModuleENS0_15AnalysisManagerIS3_JEEEJEEESt14default_deleteIS6_EEEC1Ev(i64* %result), !insn.addr !976
  ret i64 %0, !insn.addr !977
}

define i64* @_ZSt3getILm0EJPN4llvm6detail11PassConceptINS0_6ModuleENS0_15AnalysisManagerIS3_JEEEJEEESt14default_deleteIS6_EEERNSt13tuple_elementIXT_ESt5tupleIJDpT0_EEE4typeERSE_(i64* %arg1) local_unnamed_addr {
dec_label_pc_35f5:
  %0 = call i64** @_ZSt12__get_helperILm0EPN4llvm6detail11PassConceptINS0_6ModuleENS0_15AnalysisManagerIS3_JEEEJEEEJSt14default_deleteIS6_EEERT0_RSt11_Tuple_implIXT_EJSA_DpT1_EE(i64* %arg1), !insn.addr !978
  %1 = bitcast i64** %0 to i64*, !insn.addr !979
  ret i64* %1, !insn.addr !979
}

define i64 @_ZNSt15__uniq_ptr_implIN4llvm6detail11PassConceptINS0_6ModuleENS0_15AnalysisManagerIS3_JEEEJEEESt14default_deleteIS6_EE10_M_deleterEv(i64* %result) local_unnamed_addr {
dec_label_pc_3614:
  %0 = call i64* @_ZSt3getILm1EJPN4llvm6detail11PassConceptINS0_6ModuleENS0_15AnalysisManagerIS3_JEEEJEEESt14default_deleteIS6_EEERNSt13tuple_elementIXT_ESt5tupleIJDpT0_EEE4typeERSE_(i64* %result), !insn.addr !980
  %1 = ptrtoint i64* %0 to i64, !insn.addr !980
  ret i64 %1, !insn.addr !981
}

define i64* @_ZSt7forwardISt10unique_ptrIN4llvm6detail11PassConceptINS1_6ModuleENS1_15AnalysisManagerIS4_JEEEJEEESt14default_deleteIS7_EEEOT_RNSt16remove_referenceISB_E4typeE(i64* %arg1) local_unnamed_addr {
dec_label_pc_3632:
  ret i64* %arg1, !insn.addr !982
}

define i64 @_ZNSt6vectorISt10unique_ptrIN4llvm6detail11PassConceptINS1_6ModuleENS1_15AnalysisManagerIS4_JEEEJEEESt14default_deleteIS7_EESaISA_EE3endEv(i64* %result) local_unnamed_addr {
dec_label_pc_3644:
  %rax.0.reg2mem = alloca i64, !insn.addr !983
  %0 = ptrtoint i64* %result to i64
  %stack_var_-24 = alloca i64, align 8
  %1 = call i64 @__readfsqword(i64 40), !insn.addr !984
  %2 = add i64 %0, 8, !insn.addr !985
  %3 = inttoptr i64 %2 to i64**, !insn.addr !986
  %4 = call i64 @_ZN9__gnu_cxx17__normal_iteratorIPSt10unique_ptrIN4llvm6detail11PassConceptINS2_6ModuleENS2_15AnalysisManagerIS5_JEEEJEEESt14default_deleteIS8_EESt6vectorISB_SaISB_EEEC1ERKSC_(i64* nonnull %stack_var_-24, i64** %3), !insn.addr !986
  %5 = load i64, i64* %stack_var_-24, align 8, !insn.addr !987
  %6 = call i64 @__readfsqword(i64 40), !insn.addr !988
  %7 = icmp eq i64 %1, %6, !insn.addr !988
  store i64 %5, i64* %rax.0.reg2mem, !insn.addr !989
  br i1 %7, label %dec_label_pc_3692, label %dec_label_pc_368d, !insn.addr !989

dec_label_pc_368d:                                ; preds = %dec_label_pc_3644
  %8 = call i64 @__stack_chk_fail(), !insn.addr !990
  store i64 %8, i64* %rax.0.reg2mem, !insn.addr !990
  br label %dec_label_pc_3692, !insn.addr !990

dec_label_pc_3692:                                ; preds = %dec_label_pc_368d, %dec_label_pc_3644
  %rax.0.reload = load i64, i64* %rax.0.reg2mem
  ret i64 %rax.0.reload, !insn.addr !991

; uselistorder directives
  uselistorder i64* %stack_var_-24, { 1, 0 }
}

define void @_ZNSt6vectorISt10unique_ptrIN4llvm6detail11PassConceptINS1_6ModuleENS1_15AnalysisManagerIS4_JEEEJEEESt14default_deleteIS7_EESaISA_EE17_M_realloc_insertIJSA_EEEvN9__gnu_cxx17__normal_iteratorIPSA_SC_EEDpOT_(i64* %result, i64 %arg2, i64 %arg3) local_unnamed_addr {
dec_label_pc_3694:
  %0 = ptrtoint i64* %result to i64
  %stack_var_-136 = alloca i64, align 8
  %stack_var_-152 = alloca i64, align 8
  store i64 %arg2, i64* %stack_var_-152, align 8, !insn.addr !992
  %1 = call i64 @__readfsqword(i64 40), !insn.addr !993
  %2 = call i64 @_ZNKSt6vectorISt10unique_ptrIN4llvm6detail11PassConceptINS1_6ModuleENS1_15AnalysisManagerIS4_JEEEJEEESt14default_deleteIS7_EESaISA_EE12_M_check_lenEmPKc(i64* %result, i64 1, i8* getelementptr inbounds ([26 x i8], [26 x i8]* @global_var_1828, i64 0, i64 0)), !insn.addr !994
  %3 = add i64 %0, 8, !insn.addr !995
  %4 = inttoptr i64 %3 to i64*, !insn.addr !995
  %5 = load i64, i64* %4, align 8, !insn.addr !995
  %6 = call i64 @_ZNSt6vectorISt10unique_ptrIN4llvm6detail11PassConceptINS1_6ModuleENS1_15AnalysisManagerIS4_JEEEJEEESt14default_deleteIS7_EESaISA_EE5beginEv(i64* %result), !insn.addr !996
  store i64 %6, i64* %stack_var_-136, align 8, !insn.addr !997
  %7 = call i64 @_ZN9__gnu_cxxmiIPSt10unique_ptrIN4llvm6detail11PassConceptINS2_6ModuleENS2_15AnalysisManagerIS5_JEEEJEEESt14default_deleteIS8_EESt6vectorISB_SaISB_EEEENS_17__normal_iteratorIT_T0_E15difference_typeERKSJ_SM_(i64* nonnull %stack_var_-152, i64* nonnull %stack_var_-136), !insn.addr !998
  %8 = call i64 @_ZNSt12_Vector_baseISt10unique_ptrIN4llvm6detail11PassConceptINS1_6ModuleENS1_15AnalysisManagerIS4_JEEEJEEESt14default_deleteIS7_EESaISA_EE11_M_allocateEm(i64* %result, i64 %2), !insn.addr !999
  %9 = inttoptr i64 %arg3 to i64*, !insn.addr !1000
  %10 = call i64* @_ZSt7forwardISt10unique_ptrIN4llvm6detail11PassConceptINS1_6ModuleENS1_15AnalysisManagerIS4_JEEEJEEESt14default_deleteIS7_EEEOT_RNSt16remove_referenceISB_E4typeE(i64* %9), !insn.addr !1000
  %11 = mul i64 %7, 8, !insn.addr !1001
  %12 = add i64 %11, %8, !insn.addr !1002
  %13 = call i64* @_ZSt7forwardISt10unique_ptrIN4llvm6detail11PassConceptINS1_6ModuleENS1_15AnalysisManagerIS4_JEEEJEEESt14default_deleteIS7_EEEOT_RNSt16remove_referenceISB_E4typeE(i64* %10), !insn.addr !1003
  %14 = inttoptr i64 %12 to i64*, !insn.addr !1004
  %15 = call i64 @_ZnwmPv(i64 8, i64* %14), !insn.addr !1004
  %16 = call i64* @_ZSt7forwardISt10unique_ptrIN4llvm6detail11PassConceptINS1_6ModuleENS1_15AnalysisManagerIS4_JEEEJEEESt14default_deleteIS7_EEEOT_RNSt16remove_referenceISB_E4typeE(i64* %13), !insn.addr !1005
  %17 = inttoptr i64 %15 to i64*, !insn.addr !1006
  %18 = call i64 @_ZNSt10unique_ptrIN4llvm6detail11PassConceptINS0_6ModuleENS0_15AnalysisManagerIS3_JEEEJEEESt14default_deleteIS6_EEC1EOS9_(i64* %17, i64* %16), !insn.addr !1006
  %19 = call i64 @_ZNSt12_Vector_baseISt10unique_ptrIN4llvm6detail11PassConceptINS1_6ModuleENS1_15AnalysisManagerIS4_JEEEJEEESt14default_deleteIS7_EESaISA_EE19_M_get_Tp_allocatorEv(i64* %result), !insn.addr !1007
  %20 = call i64 @_ZNK9__gnu_cxx17__normal_iteratorIPSt10unique_ptrIN4llvm6detail11PassConceptINS2_6ModuleENS2_15AnalysisManagerIS5_JEEEJEEESt14default_deleteIS8_EESt6vectorISB_SaISB_EEE4baseEv(i64* nonnull %stack_var_-152), !insn.addr !1008
  %21 = inttoptr i64 %20 to i64*, !insn.addr !1009
  %22 = load i64, i64* %21, align 8, !insn.addr !1009
  %23 = inttoptr i64 %22 to i64*, !insn.addr !1010
  %24 = inttoptr i64 %8 to i64*, !insn.addr !1010
  %25 = inttoptr i64 %19 to i64*, !insn.addr !1010
  %26 = call i64 @_ZNSt6vectorISt10unique_ptrIN4llvm6detail11PassConceptINS1_6ModuleENS1_15AnalysisManagerIS4_JEEEJEEESt14default_deleteIS7_EESaISA_EE11_S_relocateEPSA_SD_SD_RSB_(i64* %result, i64* %23, i64* %24, i64* %25), !insn.addr !1010
  %27 = add i64 %26, 8, !insn.addr !1011
  %28 = call i64 @_ZNSt12_Vector_baseISt10unique_ptrIN4llvm6detail11PassConceptINS1_6ModuleENS1_15AnalysisManagerIS4_JEEEJEEESt14default_deleteIS7_EESaISA_EE19_M_get_Tp_allocatorEv(i64* %result), !insn.addr !1012
  %29 = call i64 @_ZNK9__gnu_cxx17__normal_iteratorIPSt10unique_ptrIN4llvm6detail11PassConceptINS2_6ModuleENS2_15AnalysisManagerIS5_JEEEJEEESt14default_deleteIS8_EESt6vectorISB_SaISB_EEE4baseEv(i64* nonnull %stack_var_-152), !insn.addr !1013
  %30 = inttoptr i64 %29 to i64*, !insn.addr !1014
  %31 = load i64, i64* %30, align 8, !insn.addr !1014
  %32 = inttoptr i64 %31 to i64*, !insn.addr !1015
  %33 = inttoptr i64 %5 to i64*, !insn.addr !1015
  %34 = inttoptr i64 %27 to i64*, !insn.addr !1015
  %35 = inttoptr i64 %28 to i64*, !insn.addr !1015
  %36 = call i64 @_ZNSt6vectorISt10unique_ptrIN4llvm6detail11PassConceptINS1_6ModuleENS1_15AnalysisManagerIS4_JEEEJEEESt14default_deleteIS7_EESaISA_EE11_S_relocateEPSA_SD_SD_RSB_(i64* %32, i64* %33, i64* %34, i64* %35), !insn.addr !1015
  %37 = add i64 %0, 16, !insn.addr !1016
  %38 = inttoptr i64 %37 to i64*, !insn.addr !1016
  %39 = load i64, i64* %38, align 8, !insn.addr !1016
  %40 = sub i64 %39, %0, !insn.addr !1017
  %41 = ashr i64 %40, 3, !insn.addr !1018
  %42 = call i64 @_ZNSt12_Vector_baseISt10unique_ptrIN4llvm6detail11PassConceptINS1_6ModuleENS1_15AnalysisManagerIS4_JEEEJEEESt14default_deleteIS7_EESaISA_EE13_M_deallocateEPSA_m(i64* %result, i64* %result, i64 %41), !insn.addr !1019
  store i64 %8, i64* %result, align 8, !insn.addr !1020
  store i64 %36, i64* %4, align 8, !insn.addr !1021
  %43 = mul i64 %2, 8, !insn.addr !1022
  %44 = add i64 %8, %43, !insn.addr !1023
  store i64 %44, i64* %38, align 8, !insn.addr !1024
  %45 = call i64 @__readfsqword(i64 40), !insn.addr !1025
  %46 = icmp eq i64 %1, %45, !insn.addr !1025
  br i1 %46, label %dec_label_pc_38d1, label %dec_label_pc_38cc, !insn.addr !1026

dec_label_pc_38cc:                                ; preds = %dec_label_pc_3694
  %47 = call i64 @__stack_chk_fail(), !insn.addr !1027
  br label %dec_label_pc_38d1, !insn.addr !1027

dec_label_pc_38d1:                                ; preds = %dec_label_pc_38cc, %dec_label_pc_3694
  ret void, !insn.addr !1028

; uselistorder directives
  uselistorder i64 %0, { 2, 0, 1 }
  uselistorder i64 (i64*, i64*, i64*, i64*)* @_ZNSt6vectorISt10unique_ptrIN4llvm6detail11PassConceptINS1_6ModuleENS1_15AnalysisManagerIS4_JEEEJEEESt14default_deleteIS7_EESaISA_EE11_S_relocateEPSA_SD_SD_RSB_, { 1, 0 }
  uselistorder i64 (i64*)* @_ZNSt12_Vector_baseISt10unique_ptrIN4llvm6detail11PassConceptINS1_6ModuleENS1_15AnalysisManagerIS4_JEEEJEEESt14default_deleteIS7_EESaISA_EE19_M_get_Tp_allocatorEv, { 1, 0 }
  uselistorder i64 1, { 6, 5, 10, 7, 11, 0, 1, 2, 12, 8, 9, 3, 4 }
}

define i64 @_ZNSt6vectorISt10unique_ptrIN4llvm6detail11PassConceptINS1_6ModuleENS1_15AnalysisManagerIS4_JEEEJEEESt14default_deleteIS7_EESaISA_EE4backEv(i64* %result) local_unnamed_addr {
dec_label_pc_38d8:
  %rax.0.reg2mem = alloca i64, !insn.addr !1029
  %stack_var_-24 = alloca i64, align 8
  %stack_var_-32 = alloca i64, align 8
  %0 = call i64 @__readfsqword(i64 40), !insn.addr !1030
  %1 = call i64 @_ZNSt6vectorISt10unique_ptrIN4llvm6detail11PassConceptINS1_6ModuleENS1_15AnalysisManagerIS4_JEEEJEEESt14default_deleteIS7_EESaISA_EE3endEv(i64* %result), !insn.addr !1031
  store i64 %1, i64* %stack_var_-32, align 8, !insn.addr !1032
  %2 = call i64 @_ZNK9__gnu_cxx17__normal_iteratorIPSt10unique_ptrIN4llvm6detail11PassConceptINS2_6ModuleENS2_15AnalysisManagerIS5_JEEEJEEESt14default_deleteIS8_EESt6vectorISB_SaISB_EEEmiEl(i64* nonnull %stack_var_-32, i32 1), !insn.addr !1033
  store i64 %2, i64* %stack_var_-24, align 8, !insn.addr !1034
  %3 = call i64 @_ZNK9__gnu_cxx17__normal_iteratorIPSt10unique_ptrIN4llvm6detail11PassConceptINS2_6ModuleENS2_15AnalysisManagerIS5_JEEEJEEESt14default_deleteIS8_EESt6vectorISB_SaISB_EEEdeEv(i64* nonnull %stack_var_-24), !insn.addr !1035
  %4 = call i64 @__readfsqword(i64 40), !insn.addr !1036
  %5 = icmp eq i64 %0, %4, !insn.addr !1036
  store i64 %3, i64* %rax.0.reg2mem, !insn.addr !1037
  br i1 %5, label %dec_label_pc_393c, label %dec_label_pc_3937, !insn.addr !1037

dec_label_pc_3937:                                ; preds = %dec_label_pc_38d8
  %6 = call i64 @__stack_chk_fail(), !insn.addr !1038
  store i64 %6, i64* %rax.0.reg2mem, !insn.addr !1038
  br label %dec_label_pc_393c, !insn.addr !1038

dec_label_pc_393c:                                ; preds = %dec_label_pc_3937, %dec_label_pc_38d8
  %rax.0.reload = load i64, i64* %rax.0.reg2mem
  ret i64 %rax.0.reload, !insn.addr !1039

; uselistorder directives
  uselistorder i64 (i64*)* @_ZNSt6vectorISt10unique_ptrIN4llvm6detail11PassConceptINS1_6ModuleENS1_15AnalysisManagerIS4_JEEEJEEESt14default_deleteIS7_EESaISA_EE3endEv, { 1, 0 }
}

define i64 @_ZN4llvm15ilist_node_implINS_12ilist_detail12node_optionsINS_9DbgRecordELb0ELb0EvLb0EvEEE7getNextEv(i64* %result) local_unnamed_addr {
dec_label_pc_393e:
  %0 = call i64 @_ZNK4llvm12ilist_detail18node_base_prevnextINS_15ilist_node_baseILb0EvEELb0EE7getNextEv(i64* %result), !insn.addr !1040
  ret i64 %0, !insn.addr !1041
}

define i64 @_ZN4llvm8isa_implINS_17DbgVariableRecordENS_9DbgRecordEvE4doitERKS2_(i64* %arg1) local_unnamed_addr {
dec_label_pc_395c:
  %0 = call i64 @_ZN4llvm17DbgVariableRecord7classofEPKNS_9DbgRecordE(i64* %arg1), !insn.addr !1042
  ret i64 %0, !insn.addr !1043
}

define i64 @_ZNK4llvm14iterator_rangeINS_14ilist_iteratorINS_12ilist_detail12node_optionsINS_9DbgRecordELb0ELb0EvLb0EvEELb0ELb0EEEE5beginEv(i64* %result) local_unnamed_addr {
dec_label_pc_397a:
  %0 = ptrtoint i64* %result to i64
  ret i64 %0, !insn.addr !1044
}

define i64 @_ZNK4llvm14iterator_rangeINS_14ilist_iteratorINS_12ilist_detail12node_optionsINS_9DbgRecordELb0ELb0EvLb0EvEELb0ELb0EEEE3endEv(i64* %result) local_unnamed_addr {
dec_label_pc_3990:
  %0 = ptrtoint i64* %result to i64
  %1 = add i64 %0, 8, !insn.addr !1045
  %2 = inttoptr i64 %1 to i64*, !insn.addr !1045
  %3 = load i64, i64* %2, align 8, !insn.addr !1045
  ret i64 %3, !insn.addr !1046
}

define i64 @_ZNK4llvm25SmallVectorTemplateCommonISt8functionIFbNS_9StringRefERNS_11PassManagerINS_6ModuleENS_15AnalysisManagerIS4_JEEEJEEENS_8ArrayRefINS_11PassBuilder15PipelineElementEEEEEvE18isReferenceToRangeEPKvSH_SH_(i64* %result, i64* %arg2, i64* %arg3, i64* %arg4) local_unnamed_addr {
dec_label_pc_39a6:
  %rax.0.reg2mem = alloca i64, !insn.addr !1047
  %stack_var_-17 = alloca i64, align 8
  %0 = call i64 @__readfsqword(i64 40), !insn.addr !1048
  %1 = call i1 @_ZNKSt4lessIvEclIKvS2_EEbPT_PT0_(i64* nonnull %stack_var_-17, i64* %arg2, i64* %arg3), !insn.addr !1049
  %2 = call i1 @_ZNKSt4lessIvEclIKvS2_EEbPT_PT0_(i64* nonnull %stack_var_-17, i64* %arg2, i64* %arg4), !insn.addr !1050
  %storemerge = zext i1 %2 to i64
  %3 = call i64 @__readfsqword(i64 40), !insn.addr !1051
  %4 = icmp eq i64 %0, %3, !insn.addr !1051
  store i64 %storemerge, i64* %rax.0.reg2mem, !insn.addr !1052
  br i1 %4, label %dec_label_pc_3a2a, label %dec_label_pc_3a25, !insn.addr !1052

dec_label_pc_3a25:                                ; preds = %dec_label_pc_39a6
  %5 = call i64 @__stack_chk_fail(), !insn.addr !1053
  store i64 %5, i64* %rax.0.reg2mem, !insn.addr !1053
  br label %dec_label_pc_3a2a, !insn.addr !1053

dec_label_pc_3a2a:                                ; preds = %dec_label_pc_3a25, %dec_label_pc_39a6
  %rax.0.reload = load i64, i64* %rax.0.reg2mem
  ret i64 %rax.0.reload, !insn.addr !1054

; uselistorder directives
  uselistorder i1 (i64*, i64*, i64*)* @_ZNKSt4lessIvEclIKvS2_EEbPT_PT0_, { 1, 0 }
}

define i64 @_ZNK4llvm25SmallVectorTemplateCommonISt8functionIFbNS_9StringRefERNS_11PassManagerINS_6ModuleENS_15AnalysisManagerIS4_JEEEJEEENS_8ArrayRefINS_11PassBuilder15PipelineElementEEEEEvE5beginEv(i64* %result) local_unnamed_addr {
dec_label_pc_3a2c:
  %0 = ptrtoint i64* %result to i64
  ret i64 %0, !insn.addr !1055
}

define i64 @_ZNK4llvm25SmallVectorTemplateCommonISt8functionIFbNS_9StringRefERNS_11PassManagerINS_6ModuleENS_15AnalysisManagerIS4_JEEEJEEENS_8ArrayRefINS_11PassBuilder15PipelineElementEEEEEvE3endEv(i64* %result) local_unnamed_addr {
dec_label_pc_3a42:
  %0 = call i64 @_ZNK4llvm25SmallVectorTemplateCommonISt8functionIFbNS_9StringRefERNS_11PassManagerINS_6ModuleENS_15AnalysisManagerIS4_JEEEJEEENS_8ArrayRefINS_11PassBuilder15PipelineElementEEEEEvE5beginEv(i64* %result), !insn.addr !1056
  %1 = call i64 @_ZNK4llvm15SmallVectorBaseIjE4sizeEv(i64* %result), !insn.addr !1057
  %2 = mul i64 %1, 32, !insn.addr !1058
  %3 = add i64 %2, %0, !insn.addr !1059
  ret i64 %3, !insn.addr !1060

; uselistorder directives
  uselistorder i64 (i64*)* @_ZNK4llvm15SmallVectorBaseIjE4sizeEv, { 3, 2, 1, 0 }
  uselistorder i64 (i64*)* @_ZNK4llvm25SmallVectorTemplateCommonISt8functionIFbNS_9StringRefERNS_11PassManagerINS_6ModuleENS_15AnalysisManagerIS4_JEEEJEEENS_8ArrayRefINS_11PassBuilder15PipelineElementEEEEEvE5beginEv, { 1, 0 }
}

define i64 @_ZN4llvm23SmallVectorTemplateBaseISt8functionIFbNS_9StringRefERNS_11PassManagerINS_6ModuleENS_15AnalysisManagerIS4_JEEEJEEENS_8ArrayRefINS_11PassBuilder15PipelineElementEEEEELb0EE13mallocForGrowEmRm(i64* %result, i64 %arg2, i64* %arg3) local_unnamed_addr {
dec_label_pc_3a7c:
  %0 = call i64 @_ZNK4llvm25SmallVectorTemplateCommonISt8functionIFbNS_9StringRefERNS_11PassManagerINS_6ModuleENS_15AnalysisManagerIS4_JEEEJEEENS_8ArrayRefINS_11PassBuilder15PipelineElementEEEEEvE10getFirstElEv(i64* %result), !insn.addr !1061
  %1 = inttoptr i64 %0 to i64*, !insn.addr !1062
  %2 = call i64 @_ZN4llvm15SmallVectorBaseIjE13mallocForGrowEPvmmRm(i64* %result, i64* %1, i64 %arg2, i64 32, i64* %arg3), !insn.addr !1062
  ret i64 %2, !insn.addr !1063
}

define i64 @_ZN4llvm23SmallVectorTemplateBaseISt8functionIFbNS_9StringRefERNS_11PassManagerINS_6ModuleENS_15AnalysisManagerIS4_JEEEJEEENS_8ArrayRefINS_11PassBuilder15PipelineElementEEEEELb0EE19moveElementsForGrowEPSE_(i64* %result, i64* %arg2) local_unnamed_addr {
dec_label_pc_3aca:
  %0 = call i64 @_ZN4llvm25SmallVectorTemplateCommonISt8functionIFbNS_9StringRefERNS_11PassManagerINS_6ModuleENS_15AnalysisManagerIS4_JEEEJEEENS_8ArrayRefINS_11PassBuilder15PipelineElementEEEEEvE3endEv(i64* %result), !insn.addr !1064
  %1 = call i64 @_ZN4llvm25SmallVectorTemplateCommonISt8functionIFbNS_9StringRefERNS_11PassManagerINS_6ModuleENS_15AnalysisManagerIS4_JEEEJEEENS_8ArrayRefINS_11PassBuilder15PipelineElementEEEEEvE5beginEv(i64* %result), !insn.addr !1065
  %2 = inttoptr i64 %1 to i64*, !insn.addr !1066
  %3 = inttoptr i64 %0 to i64*, !insn.addr !1066
  call void @_ZN4llvm23SmallVectorTemplateBaseISt8functionIFbNS_9StringRefERNS_11PassManagerINS_6ModuleENS_15AnalysisManagerIS4_JEEEJEEENS_8ArrayRefINS_11PassBuilder15PipelineElementEEEEELb0EE18uninitialized_moveIPSE_SH_EEvT_SI_T0_(i64* %2, i64* %3, i64* %arg2), !insn.addr !1066
  %4 = call i64 @_ZN4llvm25SmallVectorTemplateCommonISt8functionIFbNS_9StringRefERNS_11PassManagerINS_6ModuleENS_15AnalysisManagerIS4_JEEEJEEENS_8ArrayRefINS_11PassBuilder15PipelineElementEEEEEvE3endEv(i64* %result), !insn.addr !1067
  %5 = call i64 @_ZN4llvm25SmallVectorTemplateCommonISt8functionIFbNS_9StringRefERNS_11PassManagerINS_6ModuleENS_15AnalysisManagerIS4_JEEEJEEENS_8ArrayRefINS_11PassBuilder15PipelineElementEEEEEvE5beginEv(i64* %result), !insn.addr !1068
  %6 = inttoptr i64 %5 to i64*, !insn.addr !1069
  %7 = inttoptr i64 %4 to i64*, !insn.addr !1069
  %8 = call i64 @_ZN4llvm23SmallVectorTemplateBaseISt8functionIFbNS_9StringRefERNS_11PassManagerINS_6ModuleENS_15AnalysisManagerIS4_JEEEJEEENS_8ArrayRefINS_11PassBuilder15PipelineElementEEEEELb0EE13destroy_rangeEPSE_SG_(i64* %6, i64* %7), !insn.addr !1069
  ret i64 %8, !insn.addr !1070

; uselistorder directives
  uselistorder i64 (i64*)* @_ZN4llvm25SmallVectorTemplateCommonISt8functionIFbNS_9StringRefERNS_11PassManagerINS_6ModuleENS_15AnalysisManagerIS4_JEEEJEEENS_8ArrayRefINS_11PassBuilder15PipelineElementEEEEEvE3endEv, { 2, 1, 0 }
}

define i64 @_ZN4llvm23SmallVectorTemplateBaseISt8functionIFbNS_9StringRefERNS_11PassManagerINS_6ModuleENS_15AnalysisManagerIS4_JEEEJEEENS_8ArrayRefINS_11PassBuilder15PipelineElementEEEEELb0EE21takeAllocationForGrowEPSE_m(i64* %result, i64* %arg2, i64 %arg3) local_unnamed_addr {
dec_label_pc_3b3c:
  %0 = call i64 @_ZNK4llvm25SmallVectorTemplateCommonISt8functionIFbNS_9StringRefERNS_11PassManagerINS_6ModuleENS_15AnalysisManagerIS4_JEEEJEEENS_8ArrayRefINS_11PassBuilder15PipelineElementEEEEEvE7isSmallEv(i64* %result), !insn.addr !1071
  %1 = trunc i64 %0 to i8
  %2 = icmp eq i8 %1, 1, !insn.addr !1072
  br i1 %2, label %dec_label_pc_3b7b, label %dec_label_pc_3b67, !insn.addr !1073

dec_label_pc_3b67:                                ; preds = %dec_label_pc_3b3c
  %3 = call i64 @_ZN4llvm25SmallVectorTemplateCommonISt8functionIFbNS_9StringRefERNS_11PassManagerINS_6ModuleENS_15AnalysisManagerIS4_JEEEJEEENS_8ArrayRefINS_11PassBuilder15PipelineElementEEEEEvE5beginEv(i64* %result), !insn.addr !1074
  %4 = call i64 @free(i64 %3), !insn.addr !1075
  br label %dec_label_pc_3b7b, !insn.addr !1075

dec_label_pc_3b7b:                                ; preds = %dec_label_pc_3b67, %dec_label_pc_3b3c
  %5 = call i64 @_ZN4llvm15SmallVectorBaseIjE20set_allocation_rangeEPvm(i64* %result, i64* %arg2, i64 %arg3), !insn.addr !1076
  ret i64 %5, !insn.addr !1077

; uselistorder directives
  uselistorder i64 (i64*)* @_ZN4llvm25SmallVectorTemplateCommonISt8functionIFbNS_9StringRefERNS_11PassManagerINS_6ModuleENS_15AnalysisManagerIS4_JEEEJEEENS_8ArrayRefINS_11PassBuilder15PipelineElementEEEEEvE5beginEv, { 5, 4, 3, 2, 1, 0 }
  uselistorder i8 1, { 0, 1, 2, 5, 6, 3, 7, 4 }
}

define i64 @_ZNSt11_Tuple_implILm0EJPN4llvm6detail11PassConceptINS0_6ModuleENS0_15AnalysisManagerIS3_JEEEJEEESt14default_deleteIS6_EEEC1Ev(i64* %result) local_unnamed_addr {
dec_label_pc_3b96:
  %0 = call i64 @_ZNSt11_Tuple_implILm1EJSt14default_deleteIN4llvm6detail11PassConceptINS1_6ModuleENS1_15AnalysisManagerIS4_JEEEJEEEEEEC1Ev(i64* %result), !insn.addr !1078
  %1 = call i64 @_ZNSt10_Head_baseILm0EPN4llvm6detail11PassConceptINS0_6ModuleENS0_15AnalysisManagerIS3_JEEEJEEELb0EEC1Ev(i64* %result), !insn.addr !1079
  ret i64 %1, !insn.addr !1080
}

define i64** @_ZSt12__get_helperILm0EPN4llvm6detail11PassConceptINS0_6ModuleENS0_15AnalysisManagerIS3_JEEEJEEEJSt14default_deleteIS6_EEERT0_RSt11_Tuple_implIXT_EJSA_DpT1_EE(i64* %arg1) local_unnamed_addr {
dec_label_pc_3bc1:
  %0 = call i64 @_ZNSt11_Tuple_implILm0EJPN4llvm6detail11PassConceptINS0_6ModuleENS0_15AnalysisManagerIS3_JEEEJEEESt14default_deleteIS6_EEE7_M_headERSA_(i64* %arg1), !insn.addr !1081
  %1 = inttoptr i64 %0 to i64**, !insn.addr !1082
  ret i64** %1, !insn.addr !1082
}

define i64* @_ZSt3getILm1EJPN4llvm6detail11PassConceptINS0_6ModuleENS0_15AnalysisManagerIS3_JEEEJEEESt14default_deleteIS6_EEERNSt13tuple_elementIXT_ESt5tupleIJDpT0_EEE4typeERSE_(i64* %arg1) local_unnamed_addr {
dec_label_pc_3bdf:
  %0 = call i64* @_ZSt12__get_helperILm1ESt14default_deleteIN4llvm6detail11PassConceptINS1_6ModuleENS1_15AnalysisManagerIS4_JEEEJEEEEJEERT0_RSt11_Tuple_implIXT_EJS9_DpT1_EE(i64* %arg1), !insn.addr !1083
  ret i64* %0, !insn.addr !1084
}

define i64 @_ZNSt15__uniq_ptr_dataIN4llvm6detail11PassConceptINS0_6ModuleENS0_15AnalysisManagerIS3_JEEEJEEESt14default_deleteIS6_ELb1ELb1EEC1EOS9_(i64* %result, i64* %arg2) local_unnamed_addr {
dec_label_pc_3bfe:
  %0 = call i64 @_ZNSt15__uniq_ptr_implIN4llvm6detail11PassConceptINS0_6ModuleENS0_15AnalysisManagerIS3_JEEEJEEESt14default_deleteIS6_EEC1EOS9_(i64* %result, i64* %arg2), !insn.addr !1085
  ret i64 %0, !insn.addr !1086
}

define i64 @_ZNSt10unique_ptrIN4llvm6detail11PassConceptINS0_6ModuleENS0_15AnalysisManagerIS3_JEEEJEEESt14default_deleteIS6_EEC1EOS9_(i64* %result, i64* %arg2) local_unnamed_addr {
dec_label_pc_3c28:
  %0 = call i64 @_ZNSt15__uniq_ptr_dataIN4llvm6detail11PassConceptINS0_6ModuleENS0_15AnalysisManagerIS3_JEEEJEEESt14default_deleteIS6_ELb1ELb1EEC1EOS9_(i64* %result, i64* %arg2), !insn.addr !1087
  ret i64 %0, !insn.addr !1088
}

define i64 @_ZN9__gnu_cxx17__normal_iteratorIPSt10unique_ptrIN4llvm6detail11PassConceptINS2_6ModuleENS2_15AnalysisManagerIS5_JEEEJEEESt14default_deleteIS8_EESt6vectorISB_SaISB_EEEC1ERKSC_(i64* %result, i64** %arg2) local_unnamed_addr {
dec_label_pc_3c52:
  %0 = ptrtoint i64** %arg2 to i64
  %1 = ptrtoint i64* %result to i64
  store i64 %0, i64* %result, align 8, !insn.addr !1089
  ret i64 %1, !insn.addr !1090
}

define i64 @_ZNKSt6vectorISt10unique_ptrIN4llvm6detail11PassConceptINS1_6ModuleENS1_15AnalysisManagerIS4_JEEEJEEESt14default_deleteIS7_EESaISA_EE12_M_check_lenEmPKc(i64* %result, i64 %arg2, i8* %arg3) local_unnamed_addr {
dec_label_pc_3c74:
  %rax.0.reg2mem = alloca i64, !insn.addr !1091
  %storemerge.reg2mem = alloca i64, !insn.addr !1091
  %stack_var_-48 = alloca i64, align 8
  %stack_var_-72 = alloca i64, align 8
  store i64 %arg2, i64* %stack_var_-72, align 8, !insn.addr !1092
  %0 = call i64 @__readfsqword(i64 40), !insn.addr !1093
  %1 = call i64 @_ZNKSt6vectorISt10unique_ptrIN4llvm6detail11PassConceptINS1_6ModuleENS1_15AnalysisManagerIS4_JEEEJEEESt14default_deleteIS7_EESaISA_EE8max_sizeEv(i64* %result), !insn.addr !1094
  %2 = call i64 @_ZNKSt6vectorISt10unique_ptrIN4llvm6detail11PassConceptINS1_6ModuleENS1_15AnalysisManagerIS4_JEEEJEEESt14default_deleteIS7_EESaISA_EE4sizeEv(i64* %result), !insn.addr !1095
  %3 = sub i64 %1, %2, !insn.addr !1096
  %4 = icmp ult i64 %3, %arg2, !insn.addr !1097
  %5 = icmp eq i1 %4, false, !insn.addr !1098
  br i1 %5, label %dec_label_pc_3cd7, label %dec_label_pc_3ccb, !insn.addr !1099

dec_label_pc_3ccb:                                ; preds = %dec_label_pc_3c74
  %6 = call i64 @_ZSt20__throw_length_errorPKc(i8* %arg3), !insn.addr !1100
  br label %dec_label_pc_3cd7, !insn.addr !1100

dec_label_pc_3cd7:                                ; preds = %dec_label_pc_3ccb, %dec_label_pc_3c74
  %7 = call i64 @_ZNKSt6vectorISt10unique_ptrIN4llvm6detail11PassConceptINS1_6ModuleENS1_15AnalysisManagerIS4_JEEEJEEESt14default_deleteIS7_EESaISA_EE4sizeEv(i64* %result), !insn.addr !1101
  %8 = call i64 @_ZNKSt6vectorISt10unique_ptrIN4llvm6detail11PassConceptINS1_6ModuleENS1_15AnalysisManagerIS4_JEEEJEEESt14default_deleteIS7_EESaISA_EE4sizeEv(i64* %result), !insn.addr !1102
  store i64 %8, i64* %stack_var_-48, align 8, !insn.addr !1103
  %9 = call i64* @_ZSt3maxImERKT_S2_S2_(i64* nonnull %stack_var_-48, i64* nonnull %stack_var_-72), !insn.addr !1104
  %10 = load i64, i64* %9, align 8, !insn.addr !1105
  %11 = add i64 %10, %7, !insn.addr !1106
  %12 = call i64 @_ZNKSt6vectorISt10unique_ptrIN4llvm6detail11PassConceptINS1_6ModuleENS1_15AnalysisManagerIS4_JEEEJEEESt14default_deleteIS7_EESaISA_EE4sizeEv(i64* %result), !insn.addr !1107
  %13 = icmp ult i64 %11, %12, !insn.addr !1108
  br i1 %13, label %dec_label_pc_3d37, label %dec_label_pc_3d25, !insn.addr !1109

dec_label_pc_3d25:                                ; preds = %dec_label_pc_3cd7
  %14 = call i64 @_ZNKSt6vectorISt10unique_ptrIN4llvm6detail11PassConceptINS1_6ModuleENS1_15AnalysisManagerIS4_JEEEJEEESt14default_deleteIS7_EESaISA_EE8max_sizeEv(i64* %result), !insn.addr !1110
  %15 = icmp ult i64 %14, %11, !insn.addr !1111
  %16 = icmp eq i1 %15, false, !insn.addr !1112
  store i64 %11, i64* %storemerge.reg2mem, !insn.addr !1112
  br i1 %16, label %dec_label_pc_3d49, label %dec_label_pc_3d37, !insn.addr !1112

dec_label_pc_3d37:                                ; preds = %dec_label_pc_3d25, %dec_label_pc_3cd7
  %17 = call i64 @_ZNKSt6vectorISt10unique_ptrIN4llvm6detail11PassConceptINS1_6ModuleENS1_15AnalysisManagerIS4_JEEEJEEESt14default_deleteIS7_EESaISA_EE8max_sizeEv(i64* %result), !insn.addr !1113
  store i64 %17, i64* %storemerge.reg2mem, !insn.addr !1114
  br label %dec_label_pc_3d49, !insn.addr !1114

dec_label_pc_3d49:                                ; preds = %dec_label_pc_3d25, %dec_label_pc_3d37
  %storemerge.reload = load i64, i64* %storemerge.reg2mem
  %18 = call i64 @__readfsqword(i64 40), !insn.addr !1115
  %19 = icmp eq i64 %0, %18, !insn.addr !1115
  store i64 %storemerge.reload, i64* %rax.0.reg2mem, !insn.addr !1116
  br i1 %19, label %dec_label_pc_3d5d, label %dec_label_pc_3d58, !insn.addr !1116

dec_label_pc_3d58:                                ; preds = %dec_label_pc_3d49
  %20 = call i64 @__stack_chk_fail(), !insn.addr !1117
  store i64 %20, i64* %rax.0.reg2mem, !insn.addr !1117
  br label %dec_label_pc_3d5d, !insn.addr !1117

dec_label_pc_3d5d:                                ; preds = %dec_label_pc_3d58, %dec_label_pc_3d49
  %rax.0.reload = load i64, i64* %rax.0.reg2mem
  ret i64 %rax.0.reload, !insn.addr !1118

; uselistorder directives
  uselistorder i64* %storemerge.reg2mem, { 0, 2, 1 }
  uselistorder i64 (i64*)* @_ZNKSt6vectorISt10unique_ptrIN4llvm6detail11PassConceptINS1_6ModuleENS1_15AnalysisManagerIS4_JEEEJEEESt14default_deleteIS7_EESaISA_EE4sizeEv, { 3, 2, 1, 0 }
  uselistorder i64 (i64*)* @_ZNKSt6vectorISt10unique_ptrIN4llvm6detail11PassConceptINS1_6ModuleENS1_15AnalysisManagerIS4_JEEEJEEESt14default_deleteIS7_EESaISA_EE8max_sizeEv, { 2, 1, 0 }
  uselistorder label %dec_label_pc_3d49, { 1, 0 }
}

define i64 @_ZNSt6vectorISt10unique_ptrIN4llvm6detail11PassConceptINS1_6ModuleENS1_15AnalysisManagerIS4_JEEEJEEESt14default_deleteIS7_EESaISA_EE5beginEv(i64* %result) local_unnamed_addr {
dec_label_pc_3d64:
  %rax.0.reg2mem = alloca i64, !insn.addr !1119
  %stack_var_-24 = alloca i64, align 8
  %0 = call i64 @__readfsqword(i64 40), !insn.addr !1120
  %1 = bitcast i64* %result to i64**, !insn.addr !1121
  %2 = call i64 @_ZN9__gnu_cxx17__normal_iteratorIPSt10unique_ptrIN4llvm6detail11PassConceptINS2_6ModuleENS2_15AnalysisManagerIS5_JEEEJEEESt14default_deleteIS8_EESt6vectorISB_SaISB_EEEC1ERKSC_(i64* nonnull %stack_var_-24, i64** %1), !insn.addr !1121
  %3 = load i64, i64* %stack_var_-24, align 8, !insn.addr !1122
  %4 = call i64 @__readfsqword(i64 40), !insn.addr !1123
  %5 = icmp eq i64 %0, %4, !insn.addr !1123
  store i64 %3, i64* %rax.0.reg2mem, !insn.addr !1124
  br i1 %5, label %dec_label_pc_3dae, label %dec_label_pc_3da9, !insn.addr !1124

dec_label_pc_3da9:                                ; preds = %dec_label_pc_3d64
  %6 = call i64 @__stack_chk_fail(), !insn.addr !1125
  store i64 %6, i64* %rax.0.reg2mem, !insn.addr !1125
  br label %dec_label_pc_3dae, !insn.addr !1125

dec_label_pc_3dae:                                ; preds = %dec_label_pc_3da9, %dec_label_pc_3d64
  %rax.0.reload = load i64, i64* %rax.0.reg2mem
  ret i64 %rax.0.reload, !insn.addr !1126

; uselistorder directives
  uselistorder i64* %stack_var_-24, { 1, 0 }
}

define i64 @_ZN9__gnu_cxxmiIPSt10unique_ptrIN4llvm6detail11PassConceptINS2_6ModuleENS2_15AnalysisManagerIS5_JEEEJEEESt14default_deleteIS8_EESt6vectorISB_SaISB_EEEENS_17__normal_iteratorIT_T0_E15difference_typeERKSJ_SM_(i64* %arg1, i64* %arg2) local_unnamed_addr {
dec_label_pc_3db0:
  %0 = call i64 @_ZNK9__gnu_cxx17__normal_iteratorIPSt10unique_ptrIN4llvm6detail11PassConceptINS2_6ModuleENS2_15AnalysisManagerIS5_JEEEJEEESt14default_deleteIS8_EESt6vectorISB_SaISB_EEE4baseEv(i64* %arg1), !insn.addr !1127
  %1 = inttoptr i64 %0 to i64*, !insn.addr !1128
  %2 = load i64, i64* %1, align 8, !insn.addr !1128
  %3 = call i64 @_ZNK9__gnu_cxx17__normal_iteratorIPSt10unique_ptrIN4llvm6detail11PassConceptINS2_6ModuleENS2_15AnalysisManagerIS5_JEEEJEEESt14default_deleteIS8_EESt6vectorISB_SaISB_EEE4baseEv(i64* %arg2), !insn.addr !1129
  %4 = inttoptr i64 %3 to i64*, !insn.addr !1130
  %5 = load i64, i64* %4, align 8, !insn.addr !1130
  %6 = sub i64 %2, %5, !insn.addr !1131
  %7 = ashr i64 %6, 3, !insn.addr !1132
  ret i64 %7, !insn.addr !1133

; uselistorder directives
  uselistorder i64 (i64*)* @_ZNK9__gnu_cxx17__normal_iteratorIPSt10unique_ptrIN4llvm6detail11PassConceptINS2_6ModuleENS2_15AnalysisManagerIS5_JEEEJEEESt14default_deleteIS8_EESt6vectorISB_SaISB_EEE4baseEv, { 3, 2, 1, 0 }
}

define i64 @_ZNSt12_Vector_baseISt10unique_ptrIN4llvm6detail11PassConceptINS1_6ModuleENS1_15AnalysisManagerIS4_JEEEJEEESt14default_deleteIS7_EESaISA_EE11_M_allocateEm(i64* %result, i64 %arg2) local_unnamed_addr {
dec_label_pc_3df6:
  %storemerge.reg2mem = alloca i64, !insn.addr !1134
  %0 = icmp eq i64 %arg2, 0, !insn.addr !1135
  store i64 0, i64* %storemerge.reg2mem, !insn.addr !1136
  br i1 %0, label %dec_label_pc_3e41, label %dec_label_pc_3e11, !insn.addr !1136

dec_label_pc_3e11:                                ; preds = %dec_label_pc_3df6
  %1 = call i64 @_ZNSt15__new_allocatorISt10unique_ptrIN4llvm6detail11PassConceptINS1_6ModuleENS1_15AnalysisManagerIS4_JEEEJEEESt14default_deleteIS7_EEE8allocateEmPKv(i64* %result, i64 %arg2, i64* null), !insn.addr !1137
  store i64 %1, i64* %storemerge.reg2mem, !insn.addr !1138
  br label %dec_label_pc_3e41, !insn.addr !1138

dec_label_pc_3e41:                                ; preds = %dec_label_pc_3df6, %dec_label_pc_3e11
  %storemerge.reload = load i64, i64* %storemerge.reg2mem
  ret i64 %storemerge.reload, !insn.addr !1139

; uselistorder directives
  uselistorder i64* %storemerge.reg2mem, { 0, 2, 1 }
  uselistorder label %dec_label_pc_3e41, { 1, 0 }
}

define i64 @_ZNSt6vectorISt10unique_ptrIN4llvm6detail11PassConceptINS1_6ModuleENS1_15AnalysisManagerIS4_JEEEJEEESt14default_deleteIS7_EESaISA_EE11_S_relocateEPSA_SD_SD_RSB_(i64* %arg1, i64* %arg2, i64* %arg3, i64* %arg4) local_unnamed_addr {
dec_label_pc_3e43:
  %0 = call i64* @_ZSt12__relocate_aIPSt10unique_ptrIN4llvm6detail11PassConceptINS1_6ModuleENS1_15AnalysisManagerIS4_JEEEJEEESt14default_deleteIS7_EESB_SaISA_EET0_T_SE_SD_RT1_(i64* %arg1, i64* %arg2, i64* %arg3, i64* %arg4), !insn.addr !1140
  %1 = ptrtoint i64* %0 to i64, !insn.addr !1140
  ret i64 %1, !insn.addr !1141
}

define i64 @_ZNK9__gnu_cxx17__normal_iteratorIPSt10unique_ptrIN4llvm6detail11PassConceptINS2_6ModuleENS2_15AnalysisManagerIS5_JEEEJEEESt14default_deleteIS8_EESt6vectorISB_SaISB_EEE4baseEv(i64* %result) local_unnamed_addr {
dec_label_pc_3e7a:
  %0 = ptrtoint i64* %result to i64
  ret i64 %0, !insn.addr !1142
}

define i64 @_ZNSt12_Vector_baseISt10unique_ptrIN4llvm6detail11PassConceptINS1_6ModuleENS1_15AnalysisManagerIS4_JEEEJEEESt14default_deleteIS7_EESaISA_EE19_M_get_Tp_allocatorEv(i64* %result) local_unnamed_addr {
dec_label_pc_3e8c:
  %0 = ptrtoint i64* %result to i64
  ret i64 %0, !insn.addr !1143
}

define i64 @_ZNSt12_Vector_baseISt10unique_ptrIN4llvm6detail11PassConceptINS1_6ModuleENS1_15AnalysisManagerIS4_JEEEJEEESt14default_deleteIS7_EESaISA_EE13_M_deallocateEPSA_m(i64* %result, i64* %arg2, i64 %arg3) local_unnamed_addr {
dec_label_pc_3e9e:
  %rax.0.reg2mem = alloca i64, !insn.addr !1144
  %0 = icmp eq i64* %arg2, null, !insn.addr !1145
  br i1 %0, label %dec_label_pc_3eed, label %dec_label_pc_3ebd, !insn.addr !1146

dec_label_pc_3ebd:                                ; preds = %dec_label_pc_3e9e
  %1 = call i64 @_ZNSt15__new_allocatorISt10unique_ptrIN4llvm6detail11PassConceptINS1_6ModuleENS1_15AnalysisManagerIS4_JEEEJEEESt14default_deleteIS7_EEE10deallocateEPSA_m(i64* %result, i64* nonnull %arg2, i64 %arg3), !insn.addr !1147
  store i64 %1, i64* %rax.0.reg2mem, !insn.addr !1148
  br label %dec_label_pc_3eed, !insn.addr !1148

dec_label_pc_3eed:                                ; preds = %dec_label_pc_3ebd, %dec_label_pc_3e9e
  %rax.0.reload = load i64, i64* %rax.0.reg2mem
  ret i64 %rax.0.reload, !insn.addr !1149
}

define i64 @_ZNK9__gnu_cxx17__normal_iteratorIPSt10unique_ptrIN4llvm6detail11PassConceptINS2_6ModuleENS2_15AnalysisManagerIS5_JEEEJEEESt14default_deleteIS8_EESt6vectorISB_SaISB_EEEmiEl(i64* %result, i32 %arg2) local_unnamed_addr {
dec_label_pc_3ef0:
  %rax.0.reg2mem = alloca i64, !insn.addr !1150
  %0 = ptrtoint i64* %result to i64
  %stack_var_-24 = alloca i64, align 8
  %stack_var_-32 = alloca i64, align 8
  %1 = call i64 @__readfsqword(i64 40), !insn.addr !1151
  %2 = sext i32 %arg2 to i64, !insn.addr !1152
  %3 = mul i64 %2, 8, !insn.addr !1153
  %4 = sub i64 %0, %3, !insn.addr !1154
  store i64 %4, i64* %stack_var_-32, align 8, !insn.addr !1155
  %5 = bitcast i64* %stack_var_-32 to i64**, !insn.addr !1156
  %6 = call i64 @_ZN9__gnu_cxx17__normal_iteratorIPSt10unique_ptrIN4llvm6detail11PassConceptINS2_6ModuleENS2_15AnalysisManagerIS5_JEEEJEEESt14default_deleteIS8_EESt6vectorISB_SaISB_EEEC1ERKSC_(i64* nonnull %stack_var_-24, i64** nonnull %5), !insn.addr !1156
  %7 = load i64, i64* %stack_var_-24, align 8, !insn.addr !1157
  %8 = call i64 @__readfsqword(i64 40), !insn.addr !1158
  %9 = icmp eq i64 %1, %8, !insn.addr !1158
  store i64 %7, i64* %rax.0.reg2mem, !insn.addr !1159
  br i1 %9, label %dec_label_pc_3f57, label %dec_label_pc_3f52, !insn.addr !1159

dec_label_pc_3f52:                                ; preds = %dec_label_pc_3ef0
  %10 = call i64 @__stack_chk_fail(), !insn.addr !1160
  store i64 %10, i64* %rax.0.reg2mem, !insn.addr !1160
  br label %dec_label_pc_3f57, !insn.addr !1160

dec_label_pc_3f57:                                ; preds = %dec_label_pc_3f52, %dec_label_pc_3ef0
  %rax.0.reload = load i64, i64* %rax.0.reg2mem
  ret i64 %rax.0.reload, !insn.addr !1161

; uselistorder directives
  uselistorder i64* %stack_var_-24, { 1, 0 }
  uselistorder i64 (i64*, i64**)* @_ZN9__gnu_cxx17__normal_iteratorIPSt10unique_ptrIN4llvm6detail11PassConceptINS2_6ModuleENS2_15AnalysisManagerIS5_JEEEJEEESt14default_deleteIS8_EESt6vectorISB_SaISB_EEEC1ERKSC_, { 2, 1, 0 }
}

define i64 @_ZNK9__gnu_cxx17__normal_iteratorIPSt10unique_ptrIN4llvm6detail11PassConceptINS2_6ModuleENS2_15AnalysisManagerIS5_JEEEJEEESt14default_deleteIS8_EESt6vectorISB_SaISB_EEEdeEv(i64* %result) local_unnamed_addr {
dec_label_pc_3f5a:
  %0 = ptrtoint i64* %result to i64
  ret i64 %0, !insn.addr !1162
}

define i64 @_ZNK4llvm25SmallVectorTemplateCommonISt8functionIFbNS_9StringRefERNS_11PassManagerINS_6ModuleENS_15AnalysisManagerIS4_JEEEJEEENS_8ArrayRefINS_11PassBuilder15PipelineElementEEEEEvE10getFirstElEv(i64* %result) local_unnamed_addr {
dec_label_pc_3f70:
  %0 = ptrtoint i64* %result to i64
  %1 = add i64 %0, 16, !insn.addr !1163
  ret i64 %1, !insn.addr !1164
}

define void @_ZN4llvm23SmallVectorTemplateBaseISt8functionIFbNS_9StringRefERNS_11PassManagerINS_6ModuleENS_15AnalysisManagerIS4_JEEEJEEENS_8ArrayRefINS_11PassBuilder15PipelineElementEEEEELb0EE18uninitialized_moveIPSE_SH_EEvT_SI_T0_(i64* %arg1, i64* %arg2, i64* %arg3) local_unnamed_addr {
dec_label_pc_3f86:
  %0 = call i64* @_ZSt18uninitialized_moveIPSt8functionIFbN4llvm9StringRefERNS1_11PassManagerINS1_6ModuleENS1_15AnalysisManagerIS4_JEEEJEEENS1_8ArrayRefINS1_11PassBuilder15PipelineElementEEEEESF_ET0_T_SH_SG_(i64* %arg1, i64* %arg2, i64* %arg3), !insn.addr !1165
  ret void, !insn.addr !1166
}

define i64 @_ZN4llvm23SmallVectorTemplateBaseISt8functionIFbNS_9StringRefERNS_11PassManagerINS_6ModuleENS_15AnalysisManagerIS4_JEEEJEEENS_8ArrayRefINS_11PassBuilder15PipelineElementEEEEELb0EE13destroy_rangeEPSE_SG_(i64* %arg1, i64* %arg2) local_unnamed_addr {
dec_label_pc_3fb8:
  %stack_var_-24.01.reg2mem = alloca i64, !insn.addr !1167
  %0 = ptrtoint i64* %arg1 to i64
  %1 = icmp eq i64* %arg2, %arg1, !insn.addr !1168
  %2 = icmp eq i1 %1, false, !insn.addr !1169
  br i1 %2, label %dec_label_pc_3fce.lr.ph, label %dec_label_pc_3fe9, !insn.addr !1169

dec_label_pc_3fce.lr.ph:                          ; preds = %dec_label_pc_3fb8
  %3 = ptrtoint i64* %arg2 to i64
  store i64 %3, i64* %stack_var_-24.01.reg2mem
  br label %dec_label_pc_3fce

dec_label_pc_3fce:                                ; preds = %dec_label_pc_3fce.lr.ph, %dec_label_pc_3fce
  %stack_var_-24.01.reload = load i64, i64* %stack_var_-24.01.reg2mem
  %4 = add i64 %stack_var_-24.01.reload, -32, !insn.addr !1170
  %5 = inttoptr i64 %4 to i64*, !insn.addr !1171
  %6 = call i64 @_ZNSt8functionIFbN4llvm9StringRefERNS0_11PassManagerINS0_6ModuleENS0_15AnalysisManagerIS3_JEEEJEEENS0_8ArrayRefINS0_11PassBuilder15PipelineElementEEEEED1Ev(i64* %5), !insn.addr !1171
  %7 = icmp eq i64 %4, %0, !insn.addr !1168
  %8 = icmp eq i1 %7, false, !insn.addr !1169
  store i64 %4, i64* %stack_var_-24.01.reg2mem, !insn.addr !1169
  br i1 %8, label %dec_label_pc_3fce, label %dec_label_pc_3fe9, !insn.addr !1169

dec_label_pc_3fe9:                                ; preds = %dec_label_pc_3fce, %dec_label_pc_3fb8
  ret i64 %0, !insn.addr !1172

; uselistorder directives
  uselistorder i64 %0, { 1, 0 }
  uselistorder i64* %stack_var_-24.01.reg2mem, { 1, 0, 2 }
  uselistorder i64 (i64*)* @_ZNSt8functionIFbN4llvm9StringRefERNS0_11PassManagerINS0_6ModuleENS0_15AnalysisManagerIS3_JEEEJEEENS0_8ArrayRefINS0_11PassBuilder15PipelineElementEEEEED1Ev, { 1, 0 }
  uselistorder i64 -32, { 1, 0 }
  uselistorder i64* %arg2, { 1, 0 }
  uselistorder label %dec_label_pc_3fce, { 1, 0 }
}

define i64 @_ZNK4llvm25SmallVectorTemplateCommonISt8functionIFbNS_9StringRefERNS_11PassManagerINS_6ModuleENS_15AnalysisManagerIS4_JEEEJEEENS_8ArrayRefINS_11PassBuilder15PipelineElementEEEEEvE7isSmallEv(i64* %result) local_unnamed_addr {
dec_label_pc_3fee:
  %0 = ptrtoint i64* %result to i64
  %1 = call i64 @_ZNK4llvm25SmallVectorTemplateCommonISt8functionIFbNS_9StringRefERNS_11PassManagerINS_6ModuleENS_15AnalysisManagerIS4_JEEEJEEENS_8ArrayRefINS_11PassBuilder15PipelineElementEEEEEvE10getFirstElEv(i64* %result), !insn.addr !1173
  %2 = icmp eq i64 %1, %0, !insn.addr !1174
  %3 = zext i1 %2 to i64, !insn.addr !1175
  %4 = and i64 %1, -256, !insn.addr !1175
  %5 = or i64 %4, %3, !insn.addr !1175
  ret i64 %5, !insn.addr !1176

; uselistorder directives
  uselistorder i64 %1, { 1, 0 }
  uselistorder i64 -256, { 2, 0, 1, 6, 5, 4, 3 }
  uselistorder i64 (i64*)* @_ZNK4llvm25SmallVectorTemplateCommonISt8functionIFbNS_9StringRefERNS_11PassManagerINS_6ModuleENS_15AnalysisManagerIS4_JEEEJEEENS_8ArrayRefINS_11PassBuilder15PipelineElementEEEEEvE10getFirstElEv, { 1, 0 }
}

define i64 @_ZNSt11_Tuple_implILm1EJSt14default_deleteIN4llvm6detail11PassConceptINS1_6ModuleENS1_15AnalysisManagerIS4_JEEEJEEEEEEC1Ev(i64* %result) local_unnamed_addr {
dec_label_pc_401e:
  %0 = call i64 @_ZNSt10_Head_baseILm1ESt14default_deleteIN4llvm6detail11PassConceptINS1_6ModuleENS1_15AnalysisManagerIS4_JEEEJEEEELb1EEC1Ev(i64* %result), !insn.addr !1177
  ret i64 %0, !insn.addr !1178
}

define i64 @_ZNSt10_Head_baseILm0EPN4llvm6detail11PassConceptINS0_6ModuleENS0_15AnalysisManagerIS3_JEEEJEEELb0EEC1Ev(i64* %result) local_unnamed_addr {
dec_label_pc_403e:
  %0 = ptrtoint i64* %result to i64
  store i64 0, i64* %result, align 8, !insn.addr !1179
  ret i64 %0, !insn.addr !1180
}

define i64 @_ZNSt11_Tuple_implILm0EJPN4llvm6detail11PassConceptINS0_6ModuleENS0_15AnalysisManagerIS3_JEEEJEEESt14default_deleteIS6_EEE7_M_headERSA_(i64* %arg1) local_unnamed_addr {
dec_label_pc_4058:
  %0 = call i64 @_ZNSt10_Head_baseILm0EPN4llvm6detail11PassConceptINS0_6ModuleENS0_15AnalysisManagerIS3_JEEEJEEELb0EE7_M_headERS8_(i64* %arg1), !insn.addr !1181
  ret i64 %0, !insn.addr !1182
}

define i64* @_ZSt12__get_helperILm1ESt14default_deleteIN4llvm6detail11PassConceptINS1_6ModuleENS1_15AnalysisManagerIS4_JEEEJEEEEJEERT0_RSt11_Tuple_implIXT_EJS9_DpT1_EE(i64* %arg1) local_unnamed_addr {
dec_label_pc_4076:
  %0 = call i64 @_ZNSt11_Tuple_implILm1EJSt14default_deleteIN4llvm6detail11PassConceptINS1_6ModuleENS1_15AnalysisManagerIS4_JEEEJEEEEEE7_M_headERS9_(i64* %arg1), !insn.addr !1183
  %1 = inttoptr i64 %0 to i64*, !insn.addr !1184
  ret i64* %1, !insn.addr !1184
}

define i64 @_ZNSt11_Tuple_implILm0EJPN4llvm6detail11PassConceptINS0_6ModuleENS0_15AnalysisManagerIS3_JEEEJEEESt14default_deleteIS6_EEEC1EOSA_(i64* %result, i64* %arg2) local_unnamed_addr {
dec_label_pc_4094:
  %0 = ptrtoint i64* %arg2 to i64
  %1 = ptrtoint i64* %result to i64
  %2 = call i64 @_ZNSt11_Tuple_implILm1EJSt14default_deleteIN4llvm6detail11PassConceptINS1_6ModuleENS1_15AnalysisManagerIS4_JEEEJEEEEEEC1EOS9_(i64* %result, i64* %arg2), !insn.addr !1185
  store i64 %0, i64* %result, align 8, !insn.addr !1186
  ret i64 %1, !insn.addr !1187
}

define i64 @_ZNSt5tupleIJPN4llvm6detail11PassConceptINS0_6ModuleENS0_15AnalysisManagerIS3_JEEEJEEESt14default_deleteIS6_EEEC1EOSA_(i64* %result, i64* %arg2) local_unnamed_addr {
dec_label_pc_40cc:
  %0 = call i64 @_ZNSt11_Tuple_implILm0EJPN4llvm6detail11PassConceptINS0_6ModuleENS0_15AnalysisManagerIS3_JEEEJEEESt14default_deleteIS6_EEEC1EOSA_(i64* %result, i64* %arg2), !insn.addr !1188
  ret i64 %0, !insn.addr !1189
}

define i64 @_ZNSt15__uniq_ptr_implIN4llvm6detail11PassConceptINS0_6ModuleENS0_15AnalysisManagerIS3_JEEEJEEESt14default_deleteIS6_EEC1EOS9_(i64* %result, i64* %arg2) local_unnamed_addr {
dec_label_pc_40f6:
  %0 = bitcast i64* %arg2 to i64**, !insn.addr !1190
  %1 = call i64* @_ZSt4moveIRSt5tupleIJPN4llvm6detail11PassConceptINS1_6ModuleENS1_15AnalysisManagerIS4_JEEEJEEESt14default_deleteIS7_EEEEONSt16remove_referenceIT_E4typeEOSE_(i64** %0), !insn.addr !1190
  %2 = call i64 @_ZNSt5tupleIJPN4llvm6detail11PassConceptINS0_6ModuleENS0_15AnalysisManagerIS3_JEEEJEEESt14default_deleteIS6_EEEC1EOSA_(i64* %result, i64* %1), !insn.addr !1191
  %3 = call i64 @_ZNSt15__uniq_ptr_implIN4llvm6detail11PassConceptINS0_6ModuleENS0_15AnalysisManagerIS3_JEEEJEEESt14default_deleteIS6_EE6_M_ptrEv(i64* %arg2), !insn.addr !1192
  %4 = inttoptr i64 %3 to i64*, !insn.addr !1193
  store i64 0, i64* %4, align 8, !insn.addr !1193
  ret i64 %3, !insn.addr !1194

; uselistorder directives
  uselistorder i64 %3, { 1, 0 }
  uselistorder i64 (i64*)* @_ZNSt15__uniq_ptr_implIN4llvm6detail11PassConceptINS0_6ModuleENS0_15AnalysisManagerIS3_JEEEJEEESt14default_deleteIS6_EE6_M_ptrEv, { 2, 1, 0 }
}

define i64 @_ZNKSt6vectorISt10unique_ptrIN4llvm6detail11PassConceptINS1_6ModuleENS1_15AnalysisManagerIS4_JEEEJEEESt14default_deleteIS7_EESaISA_EE8max_sizeEv(i64* %result) local_unnamed_addr {
dec_label_pc_4140:
  %0 = call i64 @_ZNKSt12_Vector_baseISt10unique_ptrIN4llvm6detail11PassConceptINS1_6ModuleENS1_15AnalysisManagerIS4_JEEEJEEESt14default_deleteIS7_EESaISA_EE19_M_get_Tp_allocatorEv(i64* %result), !insn.addr !1195
  %1 = inttoptr i64 %0 to i64*, !insn.addr !1196
  %2 = call i64 @_ZNSt6vectorISt10unique_ptrIN4llvm6detail11PassConceptINS1_6ModuleENS1_15AnalysisManagerIS4_JEEEJEEESt14default_deleteIS7_EESaISA_EE11_S_max_sizeERKSB_(i64* %1), !insn.addr !1196
  ret i64 %2, !insn.addr !1197
}

define i64 @_ZNKSt6vectorISt10unique_ptrIN4llvm6detail11PassConceptINS1_6ModuleENS1_15AnalysisManagerIS4_JEEEJEEESt14default_deleteIS7_EESaISA_EE4sizeEv(i64* %result) local_unnamed_addr {
dec_label_pc_4166:
  %0 = ptrtoint i64* %result to i64
  %1 = add i64 %0, 8, !insn.addr !1198
  %2 = inttoptr i64 %1 to i64*, !insn.addr !1198
  %3 = load i64, i64* %2, align 8, !insn.addr !1198
  %4 = sub i64 %3, %0, !insn.addr !1199
  %5 = ashr i64 %4, 3, !insn.addr !1200
  ret i64 %5, !insn.addr !1201

; uselistorder directives
  uselistorder i64 3, { 1, 2, 3, 0 }
}

define i64* @_ZSt12__relocate_aIPSt10unique_ptrIN4llvm6detail11PassConceptINS1_6ModuleENS1_15AnalysisManagerIS4_JEEEJEEESt14default_deleteIS7_EESB_SaISA_EET0_T_SE_SD_RT1_(i64* %arg1, i64* %arg2, i64* %arg3, i64* %arg4) local_unnamed_addr {
dec_label_pc_418d:
  %0 = call i64* @_ZSt12__niter_baseIPSt10unique_ptrIN4llvm6detail11PassConceptINS1_6ModuleENS1_15AnalysisManagerIS4_JEEEJEEESt14default_deleteIS7_EEET_SC_(i64* %arg3), !insn.addr !1202
  %1 = call i64* @_ZSt12__niter_baseIPSt10unique_ptrIN4llvm6detail11PassConceptINS1_6ModuleENS1_15AnalysisManagerIS4_JEEEJEEESt14default_deleteIS7_EEET_SC_(i64* %arg2), !insn.addr !1203
  %2 = call i64* @_ZSt12__niter_baseIPSt10unique_ptrIN4llvm6detail11PassConceptINS1_6ModuleENS1_15AnalysisManagerIS4_JEEEJEEESt14default_deleteIS7_EEET_SC_(i64* %arg1), !insn.addr !1204
  %3 = call i64* @_ZSt14__relocate_a_1IPSt10unique_ptrIN4llvm6detail11PassConceptINS1_6ModuleENS1_15AnalysisManagerIS4_JEEEJEEESt14default_deleteIS7_EESB_SaISA_EET0_T_SE_SD_RT1_(i64* %2, i64* %1, i64* %0, i64* %arg4), !insn.addr !1205
  ret i64* %3, !insn.addr !1206

; uselistorder directives
  uselistorder i64* (i64*)* @_ZSt12__niter_baseIPSt10unique_ptrIN4llvm6detail11PassConceptINS1_6ModuleENS1_15AnalysisManagerIS4_JEEEJEEESt14default_deleteIS7_EEET_SC_, { 2, 1, 0 }
}

define i64* @_ZSt18uninitialized_moveIPSt8functionIFbN4llvm9StringRefERNS1_11PassManagerINS1_6ModuleENS1_15AnalysisManagerIS4_JEEEJEEENS1_8ArrayRefINS1_11PassBuilder15PipelineElementEEEEESF_ET0_T_SH_SG_(i64* %arg1, i64* %arg2, i64* %arg3) local_unnamed_addr {
dec_label_pc_41f4:
  %0 = call i64 @_ZSt18make_move_iteratorIPSt8functionIFbN4llvm9StringRefERNS1_11PassManagerINS1_6ModuleENS1_15AnalysisManagerIS4_JEEEJEEENS1_8ArrayRefINS1_11PassBuilder15PipelineElementEEEEEESt13move_iteratorIT_ESH_(i64* %arg2), !insn.addr !1207
  %1 = call i64 @_ZSt18make_move_iteratorIPSt8functionIFbN4llvm9StringRefERNS1_11PassManagerINS1_6ModuleENS1_15AnalysisManagerIS4_JEEEJEEENS1_8ArrayRefINS1_11PassBuilder15PipelineElementEEEEEESt13move_iteratorIT_ESH_(i64* %arg1), !insn.addr !1208
  %2 = call i64* @_ZSt18uninitialized_copyISt13move_iteratorIPSt8functionIFbN4llvm9StringRefERNS2_11PassManagerINS2_6ModuleENS2_15AnalysisManagerIS5_JEEEJEEENS2_8ArrayRefINS2_11PassBuilder15PipelineElementEEEEEESG_ET0_T_SJ_SI_(i64 %1, i64 %0, i64* %arg3), !insn.addr !1209
  ret i64* %2, !insn.addr !1210

; uselistorder directives
  uselistorder i64 (i64*)* @_ZSt18make_move_iteratorIPSt8functionIFbN4llvm9StringRefERNS1_11PassManagerINS1_6ModuleENS1_15AnalysisManagerIS4_JEEEJEEENS1_8ArrayRefINS1_11PassBuilder15PipelineElementEEEEEESt13move_iteratorIT_ESH_, { 1, 0 }
}

define i64 @_ZNSt10_Head_baseILm1ESt14default_deleteIN4llvm6detail11PassConceptINS1_6ModuleENS1_15AnalysisManagerIS4_JEEEJEEEELb1EEC1Ev(i64* %result) local_unnamed_addr {
dec_label_pc_4244:
  %0 = alloca i64
  %1 = load i64, i64* %0
  ret i64 %1, !insn.addr !1211
}

define i64 @_ZNSt10_Head_baseILm0EPN4llvm6detail11PassConceptINS0_6ModuleENS0_15AnalysisManagerIS3_JEEEJEEELb0EE7_M_headERS8_(i64* %arg1) local_unnamed_addr {
dec_label_pc_4253:
  %0 = ptrtoint i64* %arg1 to i64
  ret i64 %0, !insn.addr !1212
}

define i64 @_ZNSt11_Tuple_implILm1EJSt14default_deleteIN4llvm6detail11PassConceptINS1_6ModuleENS1_15AnalysisManagerIS4_JEEEJEEEEEE7_M_headERS9_(i64* %arg1) local_unnamed_addr {
dec_label_pc_4265:
  %0 = call i64 @_ZNSt10_Head_baseILm1ESt14default_deleteIN4llvm6detail11PassConceptINS1_6ModuleENS1_15AnalysisManagerIS4_JEEEJEEEELb1EE7_M_headERS9_(i64* %arg1), !insn.addr !1213
  ret i64 %0, !insn.addr !1214
}

define i64* @_ZSt4moveIRSt5tupleIJPN4llvm6detail11PassConceptINS1_6ModuleENS1_15AnalysisManagerIS4_JEEEJEEESt14default_deleteIS7_EEEEONSt16remove_referenceIT_E4typeEOSE_(i64** %arg1) local_unnamed_addr {
dec_label_pc_4283:
  %0 = bitcast i64** %arg1 to i64*, !insn.addr !1215
  ret i64* %0, !insn.addr !1215
}

define i64 @_ZNSt11_Tuple_implILm1EJSt14default_deleteIN4llvm6detail11PassConceptINS1_6ModuleENS1_15AnalysisManagerIS4_JEEEJEEEEEEC1EOS9_(i64* %result, i64* %arg2) local_unnamed_addr {
dec_label_pc_4296:
  %0 = alloca i64
  %1 = load i64, i64* %0
  ret i64 %1, !insn.addr !1216
}

define i64 @_ZNSt6vectorISt10unique_ptrIN4llvm6detail11PassConceptINS1_6ModuleENS1_15AnalysisManagerIS4_JEEEJEEESt14default_deleteIS7_EESaISA_EE11_S_max_sizeERKSB_(i64* %arg1) local_unnamed_addr {
dec_label_pc_42a9:
  %rax.0.reg2mem = alloca i64, !insn.addr !1217
  %stack_var_-48 = alloca i64, align 8
  %stack_var_-56 = alloca i64, align 8
  %0 = call i64 @__readfsqword(i64 40), !insn.addr !1218
  store i64 1152921504606846975, i64* %stack_var_-56, align 8, !insn.addr !1219
  store i64 1152921504606846975, i64* %stack_var_-48, align 8, !insn.addr !1220
  %1 = call i64* @_ZSt3minImERKT_S2_S2_(i64* nonnull %stack_var_-56, i64* nonnull %stack_var_-48), !insn.addr !1221
  %2 = load i64, i64* %1, align 8, !insn.addr !1222
  %3 = call i64 @__readfsqword(i64 40), !insn.addr !1223
  %4 = icmp eq i64 %0, %3, !insn.addr !1223
  store i64 %2, i64* %rax.0.reg2mem, !insn.addr !1224
  br i1 %4, label %dec_label_pc_4328, label %dec_label_pc_4323, !insn.addr !1224

dec_label_pc_4323:                                ; preds = %dec_label_pc_42a9
  %5 = call i64 @__stack_chk_fail(), !insn.addr !1225
  store i64 %5, i64* %rax.0.reg2mem, !insn.addr !1225
  br label %dec_label_pc_4328, !insn.addr !1225

dec_label_pc_4328:                                ; preds = %dec_label_pc_4323, %dec_label_pc_42a9
  %rax.0.reload = load i64, i64* %rax.0.reg2mem
  ret i64 %rax.0.reload, !insn.addr !1226

; uselistorder directives
  uselistorder i64* (i64*, i64*)* @_ZSt3minImERKT_S2_S2_, { 0, 2, 1 }
}

define i64 @_ZNKSt12_Vector_baseISt10unique_ptrIN4llvm6detail11PassConceptINS1_6ModuleENS1_15AnalysisManagerIS4_JEEEJEEESt14default_deleteIS7_EESaISA_EE19_M_get_Tp_allocatorEv(i64* %result) local_unnamed_addr {
dec_label_pc_432a:
  %0 = ptrtoint i64* %result to i64
  ret i64 %0, !insn.addr !1227
}

define i64 @_ZNSt15__new_allocatorISt10unique_ptrIN4llvm6detail11PassConceptINS1_6ModuleENS1_15AnalysisManagerIS4_JEEEJEEESt14default_deleteIS7_EEE8allocateEmPKv(i64* %result, i64 %arg2, i64* %arg3) local_unnamed_addr {
dec_label_pc_433c:
  %0 = icmp ugt i64 %arg2, 1152921504606846975, !insn.addr !1228
  %1 = icmp eq i1 %0, false, !insn.addr !1229
  %2 = icmp eq i1 %1, false, !insn.addr !1230
  %3 = icmp eq i1 %2, false, !insn.addr !1231
  br i1 %3, label %dec_label_pc_4394, label %dec_label_pc_437a, !insn.addr !1232

dec_label_pc_437a:                                ; preds = %dec_label_pc_433c
  %4 = icmp ugt i64 %arg2, 2305843009213693951, !insn.addr !1233
  %5 = icmp eq i1 %4, false, !insn.addr !1234
  br i1 %5, label %dec_label_pc_438f, label %dec_label_pc_438a, !insn.addr !1234

dec_label_pc_438a:                                ; preds = %dec_label_pc_437a
  %6 = call i64 @_ZSt28__throw_bad_array_new_lengthv(), !insn.addr !1235
  br label %dec_label_pc_438f, !insn.addr !1235

dec_label_pc_438f:                                ; preds = %dec_label_pc_438a, %dec_label_pc_437a
  %7 = call i64 @_ZSt17__throw_bad_allocv(), !insn.addr !1236
  br label %dec_label_pc_4394, !insn.addr !1236

dec_label_pc_4394:                                ; preds = %dec_label_pc_438f, %dec_label_pc_433c
  %8 = mul i64 %arg2, 8, !insn.addr !1237
  %9 = call i64 @_Znwm(i64 %8), !insn.addr !1238
  ret i64 %9, !insn.addr !1239

; uselistorder directives
  uselistorder i64 (i64)* @_Znwm, { 1, 0 }
}

define i64* @_ZSt12__niter_baseIPSt10unique_ptrIN4llvm6detail11PassConceptINS1_6ModuleENS1_15AnalysisManagerIS4_JEEEJEEESt14default_deleteIS7_EEET_SC_(i64* %arg1) local_unnamed_addr {
dec_label_pc_43a7:
  ret i64* %arg1, !insn.addr !1240
}

define i64* @_ZSt14__relocate_a_1IPSt10unique_ptrIN4llvm6detail11PassConceptINS1_6ModuleENS1_15AnalysisManagerIS4_JEEEJEEESt14default_deleteIS7_EESB_SaISA_EET0_T_SE_SD_RT1_(i64* %arg1, i64* %arg2, i64* %arg3, i64* %arg4) local_unnamed_addr {
dec_label_pc_43b9:
  %storemerge.lcssa.reg2mem = alloca i64, !insn.addr !1241
  %stack_var_-48.01.reg2mem = alloca i64, !insn.addr !1241
  %storemerge2.reg2mem = alloca i64, !insn.addr !1241
  %0 = ptrtoint i64* %arg3 to i64
  %1 = icmp eq i64* %arg1, %arg2, !insn.addr !1242
  %2 = icmp eq i1 %1, false, !insn.addr !1243
  store i64 %0, i64* %storemerge.lcssa.reg2mem, !insn.addr !1243
  br i1 %2, label %dec_label_pc_43e0.lr.ph, label %dec_label_pc_4424, !insn.addr !1243

dec_label_pc_43e0.lr.ph:                          ; preds = %dec_label_pc_43b9
  %3 = ptrtoint i64* %arg2 to i64
  %4 = ptrtoint i64* %arg1 to i64
  store i64 %0, i64* %storemerge2.reg2mem
  store i64 %4, i64* %stack_var_-48.01.reg2mem
  br label %dec_label_pc_43e0

dec_label_pc_43e0:                                ; preds = %dec_label_pc_43e0.lr.ph, %dec_label_pc_43e0
  %stack_var_-48.01.reload = load i64, i64* %stack_var_-48.01.reg2mem
  %storemerge2.reload = load i64, i64* %storemerge2.reg2mem
  %5 = inttoptr i64 %stack_var_-48.01.reload to i64*, !insn.addr !1244
  %6 = call i64* @_ZSt11__addressofISt10unique_ptrIN4llvm6detail11PassConceptINS1_6ModuleENS1_15AnalysisManagerIS4_JEEEJEEESt14default_deleteIS7_EEEPT_RSB_(i64* %5), !insn.addr !1244
  %7 = inttoptr i64 %storemerge2.reload to i64*, !insn.addr !1245
  %8 = call i64* @_ZSt11__addressofISt10unique_ptrIN4llvm6detail11PassConceptINS1_6ModuleENS1_15AnalysisManagerIS4_JEEEJEEESt14default_deleteIS7_EEEPT_RSB_(i64* %7), !insn.addr !1245
  call void @_ZSt19__relocate_object_aISt10unique_ptrIN4llvm6detail11PassConceptINS1_6ModuleENS1_15AnalysisManagerIS4_JEEEJEEESt14default_deleteIS7_EESA_SaISA_EEvPT_PT0_RT1_(i64* %8, i64* %6, i64* %arg4), !insn.addr !1246
  %9 = add i64 %stack_var_-48.01.reload, 8, !insn.addr !1247
  %10 = add i64 %storemerge2.reload, 8, !insn.addr !1248
  %11 = icmp eq i64 %9, %3, !insn.addr !1242
  %12 = icmp eq i1 %11, false, !insn.addr !1243
  store i64 %10, i64* %storemerge2.reg2mem, !insn.addr !1243
  store i64 %9, i64* %stack_var_-48.01.reg2mem, !insn.addr !1243
  store i64 %10, i64* %storemerge.lcssa.reg2mem, !insn.addr !1243
  br i1 %12, label %dec_label_pc_43e0, label %dec_label_pc_4424, !insn.addr !1243

dec_label_pc_4424:                                ; preds = %dec_label_pc_43e0, %dec_label_pc_43b9
  %storemerge.lcssa.reload = load i64, i64* %storemerge.lcssa.reg2mem
  %13 = inttoptr i64 %storemerge.lcssa.reload to i64*, !insn.addr !1249
  ret i64* %13, !insn.addr !1249

; uselistorder directives
  uselistorder i64 %0, { 1, 0 }
  uselistorder i64* %storemerge2.reg2mem, { 1, 0, 2 }
  uselistorder i64* %stack_var_-48.01.reg2mem, { 1, 0, 2 }
  uselistorder i64* %arg2, { 1, 0 }
  uselistorder i64* %arg1, { 1, 0 }
  uselistorder label %dec_label_pc_43e0, { 1, 0 }
}

define i64 @_ZNSt15__new_allocatorISt10unique_ptrIN4llvm6detail11PassConceptINS1_6ModuleENS1_15AnalysisManagerIS4_JEEEJEEESt14default_deleteIS7_EEE10deallocateEPSA_m(i64* %result, i64* %arg2, i64 %arg3) local_unnamed_addr {
dec_label_pc_442e:
  %0 = mul i64 %arg3, 8, !insn.addr !1250
  %1 = call i64 @_ZdlPvm(i64* %arg2, i64 %0), !insn.addr !1251
  ret i64 %1, !insn.addr !1252
}

define i64 @_ZSt18make_move_iteratorIPSt8functionIFbN4llvm9StringRefERNS1_11PassManagerINS1_6ModuleENS1_15AnalysisManagerIS4_JEEEJEEENS1_8ArrayRefINS1_11PassBuilder15PipelineElementEEEEEESt13move_iteratorIT_ESH_(i64* %arg1) local_unnamed_addr {
dec_label_pc_4463:
  %rax.0.reg2mem = alloca i64, !insn.addr !1253
  %0 = ptrtoint i64* %arg1 to i64
  %stack_var_-24 = alloca i64, align 8
  %stack_var_-32 = alloca i64, align 8
  store i64 %0, i64* %stack_var_-32, align 8, !insn.addr !1254
  %1 = call i64 @__readfsqword(i64 40), !insn.addr !1255
  %2 = bitcast i64* %stack_var_-32 to i64***, !insn.addr !1256
  %3 = call i64* @_ZSt4moveIRPSt8functionIFbN4llvm9StringRefERNS1_11PassManagerINS1_6ModuleENS1_15AnalysisManagerIS4_JEEEJEEENS1_8ArrayRefINS1_11PassBuilder15PipelineElementEEEEEEONSt16remove_referenceIT_E4typeEOSI_(i64*** nonnull %2), !insn.addr !1256
  %4 = load i64, i64* %3, align 8, !insn.addr !1257
  %5 = inttoptr i64 %4 to i64*, !insn.addr !1258
  %6 = call i64 @_ZNSt13move_iteratorIPSt8functionIFbN4llvm9StringRefERNS1_11PassManagerINS1_6ModuleENS1_15AnalysisManagerIS4_JEEEJEEENS1_8ArrayRefINS1_11PassBuilder15PipelineElementEEEEEEC1ESF_(i64* nonnull %stack_var_-24, i64* %5), !insn.addr !1258
  %7 = load i64, i64* %stack_var_-24, align 8, !insn.addr !1259
  %8 = call i64 @__readfsqword(i64 40), !insn.addr !1260
  %9 = icmp eq i64 %1, %8, !insn.addr !1260
  store i64 %7, i64* %rax.0.reg2mem, !insn.addr !1261
  br i1 %9, label %dec_label_pc_44b8, label %dec_label_pc_44b3, !insn.addr !1261

dec_label_pc_44b3:                                ; preds = %dec_label_pc_4463
  %10 = call i64 @__stack_chk_fail(), !insn.addr !1262
  store i64 %10, i64* %rax.0.reg2mem, !insn.addr !1262
  br label %dec_label_pc_44b8, !insn.addr !1262

dec_label_pc_44b8:                                ; preds = %dec_label_pc_44b3, %dec_label_pc_4463
  %rax.0.reload = load i64, i64* %rax.0.reg2mem
  ret i64 %rax.0.reload, !insn.addr !1263

; uselistorder directives
  uselistorder i64* %stack_var_-24, { 1, 0 }
}

define i64* @_ZSt18uninitialized_copyISt13move_iteratorIPSt8functionIFbN4llvm9StringRefERNS2_11PassManagerINS2_6ModuleENS2_15AnalysisManagerIS5_JEEEJEEENS2_8ArrayRefINS2_11PassBuilder15PipelineElementEEEEEESG_ET0_T_SJ_SI_(i64 %arg1, i64 %arg2, i64* %arg3) local_unnamed_addr {
dec_label_pc_44ba:
  %0 = call i64* @_ZNSt20__uninitialized_copyILb0EE13__uninit_copyISt13move_iteratorIPSt8functionIFbN4llvm9StringRefERNS4_11PassManagerINS4_6ModuleENS4_15AnalysisManagerIS7_JEEEJEEENS4_8ArrayRefINS4_11PassBuilder15PipelineElementEEEEEESI_EET0_T_SL_SK_(i64 %arg1, i64 %arg2, i64* %arg3), !insn.addr !1264
  ret i64* %0, !insn.addr !1265
}

define i64 @_ZNSt10_Head_baseILm1ESt14default_deleteIN4llvm6detail11PassConceptINS1_6ModuleENS1_15AnalysisManagerIS4_JEEEJEEEELb1EE7_M_headERS9_(i64* %arg1) local_unnamed_addr {
dec_label_pc_44f3:
  %0 = ptrtoint i64* %arg1 to i64
  ret i64 %0, !insn.addr !1266
}

define i64* @_ZSt11__addressofISt10unique_ptrIN4llvm6detail11PassConceptINS1_6ModuleENS1_15AnalysisManagerIS4_JEEEJEEESt14default_deleteIS7_EEEPT_RSB_(i64* %arg1) local_unnamed_addr {
dec_label_pc_4505:
  ret i64* %arg1, !insn.addr !1267
}

define void @_ZSt19__relocate_object_aISt10unique_ptrIN4llvm6detail11PassConceptINS1_6ModuleENS1_15AnalysisManagerIS4_JEEEJEEESt14default_deleteIS7_EESA_SaISA_EEvPT_PT0_RT1_(i64* %arg1, i64* %arg2, i64* %arg3) local_unnamed_addr {
dec_label_pc_4517:
  %0 = bitcast i64* %arg2 to i64**, !insn.addr !1268
  %1 = call i64* @_ZSt4moveIRSt10unique_ptrIN4llvm6detail11PassConceptINS1_6ModuleENS1_15AnalysisManagerIS4_JEEEJEEESt14default_deleteIS7_EEEONSt16remove_referenceIT_E4typeEOSD_(i64** %0), !insn.addr !1268
  %2 = call i64* @_ZSt7forwardISt10unique_ptrIN4llvm6detail11PassConceptINS1_6ModuleENS1_15AnalysisManagerIS4_JEEEJEEESt14default_deleteIS7_EEEOT_RNSt16remove_referenceISB_E4typeE(i64* %1), !insn.addr !1269
  %3 = call i64 @_ZnwmPv(i64 8, i64* %arg1), !insn.addr !1270
  %4 = call i64* @_ZSt7forwardISt10unique_ptrIN4llvm6detail11PassConceptINS1_6ModuleENS1_15AnalysisManagerIS4_JEEEJEEESt14default_deleteIS7_EEEOT_RNSt16remove_referenceISB_E4typeE(i64* %2), !insn.addr !1271
  %5 = inttoptr i64 %3 to i64*, !insn.addr !1272
  %6 = call i64 @_ZNSt10unique_ptrIN4llvm6detail11PassConceptINS0_6ModuleENS0_15AnalysisManagerIS3_JEEEJEEESt14default_deleteIS6_EEC1EOS9_(i64* %5, i64* %4), !insn.addr !1272
  %7 = call i64* @_ZSt11__addressofISt10unique_ptrIN4llvm6detail11PassConceptINS1_6ModuleENS1_15AnalysisManagerIS4_JEEEJEEESt14default_deleteIS7_EEEPT_RSB_(i64* %arg2), !insn.addr !1273
  %8 = call i64 @_ZNSt10unique_ptrIN4llvm6detail11PassConceptINS0_6ModuleENS0_15AnalysisManagerIS3_JEEEJEEESt14default_deleteIS6_EED1Ev(i64* %7), !insn.addr !1274
  ret void, !insn.addr !1275

; uselistorder directives
  uselistorder i64 (i64*)* @_ZNSt10unique_ptrIN4llvm6detail11PassConceptINS0_6ModuleENS0_15AnalysisManagerIS3_JEEEJEEESt14default_deleteIS6_EED1Ev, { 1, 0 }
  uselistorder i64* (i64*)* @_ZSt11__addressofISt10unique_ptrIN4llvm6detail11PassConceptINS1_6ModuleENS1_15AnalysisManagerIS4_JEEEJEEESt14default_deleteIS7_EEEPT_RSB_, { 2, 1, 0 }
  uselistorder i64 (i64*, i64*)* @_ZNSt10unique_ptrIN4llvm6detail11PassConceptINS0_6ModuleENS0_15AnalysisManagerIS3_JEEEJEEESt14default_deleteIS6_EEC1EOS9_, { 2, 1, 0 }
  uselistorder i64* (i64*)* @_ZSt7forwardISt10unique_ptrIN4llvm6detail11PassConceptINS1_6ModuleENS1_15AnalysisManagerIS4_JEEEJEEESt14default_deleteIS7_EEEOT_RNSt16remove_referenceISB_E4typeE, { 7, 6, 5, 4, 3, 1, 0, 2 }
  uselistorder i64* (i64**)* @_ZSt4moveIRSt10unique_ptrIN4llvm6detail11PassConceptINS1_6ModuleENS1_15AnalysisManagerIS4_JEEEJEEESt14default_deleteIS7_EEEONSt16remove_referenceIT_E4typeEOSD_, { 1, 0 }
}

define i64* @_ZSt4moveIRPSt8functionIFbN4llvm9StringRefERNS1_11PassManagerINS1_6ModuleENS1_15AnalysisManagerIS4_JEEEJEEENS1_8ArrayRefINS1_11PassBuilder15PipelineElementEEEEEEONSt16remove_referenceIT_E4typeEOSI_(i64*** %arg1) local_unnamed_addr {
dec_label_pc_45da:
  %0 = bitcast i64*** %arg1 to i64*, !insn.addr !1276
  ret i64* %0, !insn.addr !1276
}

define i64 @_ZNSt13move_iteratorIPSt8functionIFbN4llvm9StringRefERNS1_11PassManagerINS1_6ModuleENS1_15AnalysisManagerIS4_JEEEJEEENS1_8ArrayRefINS1_11PassBuilder15PipelineElementEEEEEEC1ESF_(i64* %result, i64* %arg2) local_unnamed_addr {
dec_label_pc_45ec:
  %0 = ptrtoint i64* %arg2 to i64
  %1 = ptrtoint i64* %result to i64
  %stack_var_-24 = alloca i64, align 8
  store i64 %0, i64* %stack_var_-24, align 8, !insn.addr !1277
  %2 = bitcast i64* %stack_var_-24 to i64***, !insn.addr !1278
  %3 = call i64* @_ZSt4moveIRPSt8functionIFbN4llvm9StringRefERNS1_11PassManagerINS1_6ModuleENS1_15AnalysisManagerIS4_JEEEJEEENS1_8ArrayRefINS1_11PassBuilder15PipelineElementEEEEEEONSt16remove_referenceIT_E4typeEOSI_(i64*** nonnull %2), !insn.addr !1278
  %4 = load i64, i64* %3, align 8, !insn.addr !1279
  store i64 %4, i64* %result, align 8, !insn.addr !1280
  ret i64 %1, !insn.addr !1281

; uselistorder directives
  uselistorder i64* (i64***)* @_ZSt4moveIRPSt8functionIFbN4llvm9StringRefERNS1_11PassManagerINS1_6ModuleENS1_15AnalysisManagerIS4_JEEEJEEENS1_8ArrayRefINS1_11PassBuilder15PipelineElementEEEEEEONSt16remove_referenceIT_E4typeEOSI_, { 1, 0 }
}

define i64* @_ZNSt20__uninitialized_copyILb0EE13__uninit_copyISt13move_iteratorIPSt8functionIFbN4llvm9StringRefERNS4_11PassManagerINS4_6ModuleENS4_15AnalysisManagerIS7_JEEEJEEENS4_8ArrayRefINS4_11PassBuilder15PipelineElementEEEEEESI_EET0_T_SL_SK_(i64 %arg1, i64 %arg2, i64* %arg3) local_unnamed_addr {
dec_label_pc_4619:
