source_filename = "test"
target datalayout = "e-m:e-p:64:64-i64:64-f80:128-n8:16:32:64-S128"

@global_var_a4b4 = constant [46 x i8] c"/usr/include/llvm-21/llvm/IR/DiagnosticInfo.h\00"
@global_var_a4e2 = constant [28 x i8] c"unknown SourceMgr::DiagKind\00"
@global_var_a54e = constant [8 x i8] c".ptrint\00"
@global_var_a556 = constant [8 x i8] c".intptr\00"
@global_var_a55e = constant [6 x i8] c".zext\00"
@global_var_a564 = constant [7 x i8] c".trunc\00"
@global_var_3f = constant [3 x i8] c"%(\00"
@global_var_a64e = constant [3 x i8] c".t\00"
@global_var_a651 = constant [3 x i8] c".f\00"
@global_var_a654 = constant [5 x i8] c".sel\00"
@global_var_a6ff = constant [10 x i8] c".resolved\00"
@global_var_a709 = constant [5 x i8] c".idx\00"
@global_var_a70e = constant [4 x i8] c"val\00"
@global_var_a712 = constant [8 x i8] c"idx.cmp\00"
@global_var_a71a = constant [8 x i8] c"idx.sel\00"
@global_var_60 = constant i64 5237815616290685004
@global_var_ab04 = constant [31 x i8] c"deobfuscate-select-memory-pass\00"
@global_var_ab23 = constant [28 x i8] c"DeobfuscateSelectMemoryPass\00"
@global_var_ab3f = constant [6 x i8] c"0.1.0\00"
@global_var_b3f4 = constant [492 x i8] c"bool llvm::operator==(const DenseMapIterator<deobfuscate_select_memory::{anonymous}::ByteKey, unsigned char, deobfuscate_select_memory::{anonymous}::ByteKeyInfo, detail::DenseMapPair<deobfuscate_select_memory::{anonymous}::ByteKey, unsigned char>, false>&, const DenseMapIterator<deobfuscate_select_memory::{anonymous}::ByteKey, unsigned char, deobfuscate_select_memory::{anonymous}::ByteKeyInfo, detail::DenseMapPair<deobfuscate_select_memory::{anonymous}::ByteKey, unsigned char>, false>&)\00"
@global_var_b5e4 = constant [41 x i8] c"/usr/include/llvm-21/llvm/ADT/DenseMap.h\00"
@global_var_b614 = constant [60 x i8] c"(!LHS.Ptr || LHS.isHandleInSync()) && \22handle not in sync!\22\00"
@global_var_b654 = constant [60 x i8] c"(!RHS.Ptr || RHS.isHandleInSync()) && \22handle not in sync!\22\00"
@global_var_b694 = constant [86 x i8] c"LHS.getEpochAddress() == RHS.getEpochAddress() && \22comparing incomparable iterators!\22\00"
@global_var_b6ec = constant [537 x i8] c"llvm::DenseMapIterator<KeyT, ValueT, KeyInfoT, Bucket, IsConst>::value_type* llvm::DenseMapIterator<KeyT, ValueT, KeyInfoT, Bucket, IsConst>::operator->() const [with KeyT = deobfuscate_select_memory::{anonymous}::ByteKey; ValueT = unsigned char; KeyInfoT = deobfuscate_select_memory::{anonymous}::ByteKeyInfo; Bucket = llvm::detail::DenseMapPair<deobfuscate_select_memory::{anonymous}::ByteKey, unsigned char>; bool IsConst = false; pointer = llvm::detail::DenseMapPair<deobfuscate_select_memory::{anonymous}::ByteKey, unsigned char>*]\00"
@global_var_b90c = constant [47 x i8] c"isHandleInSync() && \22invalid iterator access!\22\00"
@global_var_b93c = constant [45 x i8] c"Ptr != End && \22dereferencing end() iterator\22\00"
@global_var_b96c = constant [648 x i8] c"bool llvm::operator==(const DenseMapIterator<deobfuscate_select_memory::{anonymous}::ByteKey, deobfuscate_select_memory::{anonymous}::ForwardValue, deobfuscate_select_memory::{anonymous}::ByteKeyInfo, detail::DenseMapPair<deobfuscate_select_memory::{anonymous}::ByteKey, deobfuscate_select_memory::{anonymous}::ForwardValue>, false>&, const DenseMapIterator<deobfuscate_select_memory::{anonymous}::ByteKey, deobfuscate_select_memory::{anonymous}::ForwardValue, deobfuscate_select_memory::{anonymous}::ByteKeyInfo, detail::DenseMapPair<deobfuscate_select_memory::{anonymous}::ByteKey, deobfuscate_select_memory::{anonymous}::ForwardValue>, false>&)\00"
@global_var_bbf4 = constant [654 x i8] c"llvm::DenseMapIterator<KeyT, ValueT, KeyInfoT, Bucket, IsConst>::value_type* llvm::DenseMapIterator<KeyT, ValueT, KeyInfoT, Bucket, IsConst>::operator->() const [with KeyT = deobfuscate_select_memory::{anonymous}::ByteKey; ValueT = deobfuscate_select_memory::{anonymous}::ForwardValue; KeyInfoT = deobfuscate_select_memory::{anonymous}::ByteKeyInfo; Bucket = llvm::detail::DenseMapPair<deobfuscate_select_memory::{anonymous}::ByteKey, deobfuscate_select_memory::{anonymous}::ForwardValue>; bool IsConst = false; pointer = llvm::detail::DenseMapPair<deobfuscate_select_memory::{anonymous}::ByteKey, deobfuscate_select_memory::{anonymous}::ForwardValue>*]\00"
@global_var_c19c = constant [572 x i8] c"bool llvm::DenseMapBase<DerivedT, KeyT, ValueT, KeyInfoT, BucketT>::LookupBucketFor(const LookupKeyT&, BucketT*&) [with LookupKeyT = deobfuscate_select_memory::{anonymous}::ByteKey; DerivedT = llvm::DenseMap<deobfuscate_select_memory::{anonymous}::ByteKey, unsigned char, deobfuscate_select_memory::{anonymous}::ByteKeyInfo>; KeyT = deobfuscate_select_memory::{anonymous}::ByteKey; ValueT = unsigned char; KeyInfoT = deobfuscate_select_memory::{anonymous}::ByteKeyInfo; BucketT = llvm::detail::DenseMapPair<deobfuscate_select_memory::{anonymous}::ByteKey, unsigned char>]\00"
@global_var_c3dc = constant [134 x i8] c"!KeyInfoT::isEqual(Val, EmptyKey) && !KeyInfoT::isEqual(Val, TombstoneKey) && \22Empty/Tombstone value shouldn't be inserted into map!\22\00"
@global_var_c464 = constant [689 x i8] c"bool llvm::DenseMapBase<DerivedT, KeyT, ValueT, KeyInfoT, BucketT>::LookupBucketFor(const LookupKeyT&, BucketT*&) [with LookupKeyT = deobfuscate_select_memory::{anonymous}::ByteKey; DerivedT = llvm::DenseMap<deobfuscate_select_memory::{anonymous}::ByteKey, deobfuscate_select_memory::{anonymous}::ForwardValue, deobfuscate_select_memory::{anonymous}::ByteKeyInfo>; KeyT = deobfuscate_select_memory::{anonymous}::ByteKey; ValueT = deobfuscate_select_memory::{anonymous}::ForwardValue; KeyInfoT = deobfuscate_select_memory::{anonymous}::ByteKeyInfo; BucketT = llvm::detail::DenseMapPair<deobfuscate_select_memory::{anonymous}::ByteKey, deobfuscate_select_memory::{anonymous}::ForwardValue>]\00"
@global_var_22c74 = global i64 0
@global_var_c764 = constant [476 x i8] c"void llvm::DenseMapBase<DerivedT, KeyT, ValueT, KeyInfoT, BucketT>::initEmpty() [with DerivedT = llvm::DenseMap<deobfuscate_select_memory::{anonymous}::ByteKey, unsigned char, deobfuscate_select_memory::{anonymous}::ByteKeyInfo>; KeyT = deobfuscate_select_memory::{anonymous}::ByteKey; ValueT = unsigned char; KeyInfoT = deobfuscate_select_memory::{anonymous}::ByteKeyInfo; BucketT = llvm::detail::DenseMapPair<deobfuscate_select_memory::{anonymous}::ByteKey, unsigned char>]\00"
@global_var_c944 = constant [94 x i8] c"(getNumBuckets() & (getNumBuckets() - 1)) == 0 && \22# initial buckets must be a power of two!\22\00"
@global_var_c9a4 = constant [580 x i8] c"BucketT* llvm::DenseMapBase<DerivedT, KeyT, ValueT, KeyInfoT, BucketT>::InsertIntoBucketImpl(const LookupKeyT&, BucketT*) [with LookupKeyT = deobfuscate_select_memory::{anonymous}::ByteKey; DerivedT = llvm::DenseMap<deobfuscate_select_memory::{anonymous}::ByteKey, unsigned char, deobfuscate_select_memory::{anonymous}::ByteKeyInfo>; KeyT = deobfuscate_select_memory::{anonymous}::ByteKey; ValueT = unsigned char; KeyInfoT = deobfuscate_select_memory::{anonymous}::ByteKeyInfo; BucketT = llvm::detail::DenseMapPair<deobfuscate_select_memory::{anonymous}::ByteKey, unsigned char>]\00"
@global_var_cbe8 = constant [10 x i8] c"TheBucket\00"
@global_var_cbf4 = constant [511 x i8] c"llvm::DenseMapIterator<KeyT, ValueT, KeyInfoT, Bucket, IsConst>::DenseMapIterator(pointer, pointer, const llvm::DebugEpochBase&, bool) [with KeyT = deobfuscate_select_memory::{anonymous}::ByteKey; ValueT = unsigned char; KeyInfoT = deobfuscate_select_memory::{anonymous}::ByteKeyInfo; Bucket = llvm::detail::DenseMapPair<deobfuscate_select_memory::{anonymous}::ByteKey, unsigned char>; bool IsConst = false; pointer = llvm::detail::DenseMapPair<deobfuscate_select_memory::{anonymous}::ByteKey, unsigned char>*]\00"
@global_var_cdf4 = constant [44 x i8] c"isHandleInSync() && \22invalid construction!\22\00"
@global_var_ce24 = constant [593 x i8] c"void llvm::DenseMapBase<DerivedT, KeyT, ValueT, KeyInfoT, BucketT>::initEmpty() [with DerivedT = llvm::DenseMap<deobfuscate_select_memory::{anonymous}::ByteKey, deobfuscate_select_memory::{anonymous}::ForwardValue, deobfuscate_select_memory::{anonymous}::ByteKeyInfo>; KeyT = deobfuscate_select_memory::{anonymous}::ByteKey; ValueT = deobfuscate_select_memory::{anonymous}::ForwardValue; KeyInfoT = deobfuscate_select_memory::{anonymous}::ByteKeyInfo; BucketT = llvm::detail::DenseMapPair<deobfuscate_select_memory::{anonymous}::ByteKey, deobfuscate_select_memory::{anonymous}::ForwardValue>]\00"
@global_var_d07c = constant [697 x i8] c"BucketT* llvm::DenseMapBase<DerivedT, KeyT, ValueT, KeyInfoT, BucketT>::InsertIntoBucketImpl(const LookupKeyT&, BucketT*) [with LookupKeyT = deobfuscate_select_memory::{anonymous}::ByteKey; DerivedT = llvm::DenseMap<deobfuscate_select_memory::{anonymous}::ByteKey, deobfuscate_select_memory::{anonymous}::ForwardValue, deobfuscate_select_memory::{anonymous}::ByteKeyInfo>; KeyT = deobfuscate_select_memory::{anonymous}::ByteKey; ValueT = deobfuscate_select_memory::{anonymous}::ForwardValue; KeyInfoT = deobfuscate_select_memory::{anonymous}::ByteKeyInfo; BucketT = llvm::detail::DenseMapPair<deobfuscate_select_memory::{anonymous}::ByteKey, deobfuscate_select_memory::{anonymous}::ForwardValue>]\00"
@global_var_d33c = constant [628 x i8] c"llvm::DenseMapIterator<KeyT, ValueT, KeyInfoT, Bucket, IsConst>::DenseMapIterator(pointer, pointer, const llvm::DebugEpochBase&, bool) [with KeyT = deobfuscate_select_memory::{anonymous}::ByteKey; ValueT = deobfuscate_select_memory::{anonymous}::ForwardValue; KeyInfoT = deobfuscate_select_memory::{anonymous}::ByteKeyInfo; Bucket = llvm::detail::DenseMapPair<deobfuscate_select_memory::{anonymous}::ByteKey, deobfuscate_select_memory::{anonymous}::ForwardValue>; bool IsConst = false; pointer = llvm::detail::DenseMapPair<deobfuscate_select_memory::{anonymous}::ByteKey, deobfuscate_select_memory::{anonymous}::ForwardValue>*]\00"
@global_var_d9fc = constant [369 x i8] c"void llvm::DenseMapIterator<KeyT, ValueT, KeyInfoT, Bucket, IsConst>::RetreatPastEmptyBuckets() [with KeyT = deobfuscate_select_memory::{anonymous}::ByteKey; ValueT = unsigned char; KeyInfoT = deobfuscate_select_memory::{anonymous}::ByteKeyInfo; Bucket = llvm::detail::DenseMapPair<deobfuscate_select_memory::{anonymous}::ByteKey, unsigned char>; bool IsConst = false]\00"
@global_var_db6d = constant [11 x i8] c"Ptr >= End\00"
@global_var_db7c = constant [369 x i8] c"void llvm::DenseMapIterator<KeyT, ValueT, KeyInfoT, Bucket, IsConst>::AdvancePastEmptyBuckets() [with KeyT = deobfuscate_select_memory::{anonymous}::ByteKey; ValueT = unsigned char; KeyInfoT = deobfuscate_select_memory::{anonymous}::ByteKeyInfo; Bucket = llvm::detail::DenseMapPair<deobfuscate_select_memory::{anonymous}::ByteKey, unsigned char>; bool IsConst = false]\00"
@global_var_dced = constant [11 x i8] c"Ptr <= End\00"
@global_var_dcfc = constant [447 x i8] c"void llvm::DenseMapIterator<KeyT, ValueT, KeyInfoT, Bucket, IsConst>::RetreatPastEmptyBuckets() [with KeyT = deobfuscate_select_memory::{anonymous}::ByteKey; ValueT = deobfuscate_select_memory::{anonymous}::ForwardValue; KeyInfoT = deobfuscate_select_memory::{anonymous}::ByteKeyInfo; Bucket = llvm::detail::DenseMapPair<deobfuscate_select_memory::{anonymous}::ByteKey, deobfuscate_select_memory::{anonymous}::ForwardValue>; bool IsConst = false]\00"
@global_var_debc = constant [447 x i8] c"void llvm::DenseMapIterator<KeyT, ValueT, KeyInfoT, Bucket, IsConst>::AdvancePastEmptyBuckets() [with KeyT = deobfuscate_select_memory::{anonymous}::ByteKey; ValueT = deobfuscate_select_memory::{anonymous}::ForwardValue; KeyInfoT = deobfuscate_select_memory::{anonymous}::ByteKeyInfo; Bucket = llvm::detail::DenseMapPair<deobfuscate_select_memory::{anonymous}::ByteKey, deobfuscate_select_memory::{anonymous}::ForwardValue>; bool IsConst = false]\00"
@global_var_ec14 = constant [325 x i8] c"void llvm::DenseMap<KeyT, ValueT, KeyInfoT, BucketT>::grow(unsigned int) [with KeyT = deobfuscate_select_memory::{anonymous}::ByteKey; ValueT = unsigned char; KeyInfoT = deobfuscate_select_memory::{anonymous}::ByteKeyInfo; BucketT = llvm::detail::DenseMapPair<deobfuscate_select_memory::{anonymous}::ByteKey, unsigned char>]\00"
@global_var_ed59 = constant [8 x i8] c"Buckets\00"
@global_var_ed64 = constant [403 x i8] c"void llvm::DenseMap<KeyT, ValueT, KeyInfoT, BucketT>::grow(unsigned int) [with KeyT = deobfuscate_select_memory::{anonymous}::ByteKey; ValueT = deobfuscate_select_memory::{anonymous}::ForwardValue; KeyInfoT = deobfuscate_select_memory::{anonymous}::ByteKeyInfo; BucketT = llvm::detail::DenseMapPair<deobfuscate_select_memory::{anonymous}::ByteKey, deobfuscate_select_memory::{anonymous}::ForwardValue>]\00"
@global_var_f2c4 = local_unnamed_addr constant [503 x i8] c"void llvm::DenseMapBase<DerivedT, KeyT, ValueT, KeyInfoT, BucketT>::moveFromOldBuckets(BucketT*, BucketT*) [with DerivedT = llvm::DenseMap<deobfuscate_select_memory::{anonymous}::ByteKey, unsigned char, deobfuscate_select_memory::{anonymous}::ByteKeyInfo>; KeyT = deobfuscate_select_memory::{anonymous}::ByteKey; ValueT = unsigned char; KeyInfoT = deobfuscate_select_memory::{anonymous}::ByteKeyInfo; BucketT = llvm::detail::DenseMapPair<deobfuscate_select_memory::{anonymous}::ByteKey, unsigned char>]\00"
@global_var_f4bc = local_unnamed_addr constant [39 x i8] c"!FoundVal && \22Key already in new map?\22\00"
@global_var_f4e4 = local_unnamed_addr constant [620 x i8] c"void llvm::DenseMapBase<DerivedT, KeyT, ValueT, KeyInfoT, BucketT>::moveFromOldBuckets(BucketT*, BucketT*) [with DerivedT = llvm::DenseMap<deobfuscate_select_memory::{anonymous}::ByteKey, deobfuscate_select_memory::{anonymous}::ForwardValue, deobfuscate_select_memory::{anonymous}::ByteKeyInfo>; KeyT = deobfuscate_select_memory::{anonymous}::ByteKey; ValueT = deobfuscate_select_memory::{anonymous}::ForwardValue; KeyInfoT = deobfuscate_select_memory::{anonymous}::ByteKeyInfo; BucketT = llvm::detail::DenseMapPair<deobfuscate_select_memory::{anonymous}::ByteKey, deobfuscate_select_memory::{anonymous}::ForwardValue>]\00"
@global_var_8a7c = constant [44 x i8] c"constexpr uint64_t llvm::maxUIntN(uint64_t)\00"
@global_var_8aac = constant [47 x i8] c"/usr/include/llvm-21/llvm/Support/MathExtras.h\00"
@global_var_8adc = constant [40 x i8] c"N <= 64 && \22integer width out of range\22\00"
@global_var_8b04 = constant [41 x i8] c"constexpr int64_t llvm::minIntN(int64_t)\00"
@global_var_8b34 = constant [41 x i8] c"constexpr int64_t llvm::maxIntN(int64_t)\00"
@global_var_8b64 = constant [51 x i8] c"int64_t llvm::SignExtend64(uint64_t, unsigned int)\00"
@global_var_8b9c = constant [37 x i8] c"B <= 64 && \22Bit width out of range.\22\00"
@global_var_8bc4 = constant [55 x i8] c"llvm::APInt::APInt(unsigned int, uint64_t, bool, bool)\00"
@global_var_8bfc = constant [38 x i8] c"/usr/include/llvm-21/llvm/ADT/APInt.h\00"
@global_var_8c24 = constant [84 x i8] c"(val == 0 || val == uint64_t(-1)) && \22Value must be 0 or -1 for signed 0-bit APInt\22\00"
@global_var_8c7c = constant [68 x i8] c"llvm::isIntN(BitWidth, val) && \22Value is not an N-bit signed value\22\00"
@global_var_8cc4 = constant [58 x i8] c"val == 0 && \22Value must be zero for unsigned 0-bit APInt\22\00"
@global_var_8d04 = constant [71 x i8] c"llvm::isUIntN(BitWidth, val) && \22Value is not an N-bit unsigned value\22\00"
@global_var_8d4c = constant [57 x i8] c"llvm::APInt& llvm::APInt::operator|=(const llvm::APInt&)\00"
@global_var_8d8c = constant [58 x i8] c"BitWidth == RHS.BitWidth && \22Bit widths must be the same\22\00"
@global_var_8dcc = constant [49 x i8] c"bool llvm::APInt::operator[](unsigned int) const\00"
@global_var_8e04 = constant [61 x i8] c"bitPosition < getBitWidth() && \22Bit position out of bounds!\22\00"
@global_var_8e44 = constant [39 x i8] c"void llvm::APInt::setBit(unsigned int)\00"
@global_var_8e6c = constant [53 x i8] c"BitPosition < BitWidth && \22BitPosition out of range\22\00"
@global_var_8ea4 = constant [43 x i8] c"uint64_t llvm::APInt::getZExtValue() const\00"
@global_var_8ed4 = constant [54 x i8] c"getActiveBits() <= 64 && \22Too many bits for uint64_t\22\00"
@global_var_8f0c = constant [42 x i8] c"int64_t llvm::APInt::getSExtValue() const\00"
@global_var_8f3c = constant [58 x i8] c"getSignificantBits() <= 64 && \22Too many bits for int64_t\22\00"
@global_var_8f9c = constant [75 x i8] c"llvm::SmallPtrSetImplBase::SmallPtrSetImplBase(const void**, unsigned int)\00"
@global_var_8fec = constant [44 x i8] c"/usr/include/llvm-21/llvm/ADT/SmallPtrSet.h\00"
@global_var_901c = constant [74 x i8] c"llvm::has_single_bit(SmallSize) && \22Initial size must be a power of two!\22\00"
@global_var_906c = constant [56 x i8] c"void llvm::SmallPtrSetIteratorImpl::AdvanceIfNotValid()\00"
@global_var_90a4 = constant [14 x i8] c"Bucket <= End\00"
@global_var_90b4 = constant [56 x i8] c"void llvm::SmallPtrSetIteratorImpl::RetreatIfNotValid()\00"
@global_var_90ec = constant [14 x i8] c"Bucket >= End\00"
@global_var_90fa = constant [29 x i8] c"llvm::Align::Align(uint64_t)\00"
@global_var_911c = constant [46 x i8] c"/usr/include/llvm-21/llvm/Support/Alignment.h\00"
@global_var_914c = constant [35 x i8] c"Value > 0 && \22Value must not be 0\22\00"
@global_var_9174 = constant [62 x i8] c"llvm::isPowerOf2_64(Value) && \22Alignment is not a power of 2\22\00"
@global_var_91b4 = constant [38 x i8] c"ShiftValue < 64 && \22Broken invariant\22\00"
@global_var_91da = constant [21 x i8] c"llvm::Twine::Twine()\00"
@global_var_91f4 = constant [38 x i8] c"/usr/include/llvm-21/llvm/ADT/Twine.h\00"
@global_var_921a = constant [30 x i8] c"isValid() && \22Invalid twine!\22\00"
@global_var_923c = constant [32 x i8] c"llvm::Twine::Twine(const char*)\00"
@global_var_925c = constant [56 x i8] c"llvm::Twine::Twine(const llvm::StringRef&, const char*)\00"
@global_var_92dc = constant [40 x i8] c"/usr/include/llvm-21/llvm/ADT/APFloat.h\00"
@global_var_9304 = constant [21 x i8] c"Unexpected semantics\00"
@global_var_932c = constant [61 x i8] c"llvm::Type* llvm::Type::getContainedType(unsigned int) const\00"
@global_var_936c = constant [36 x i8] c"/usr/include/llvm-21/llvm/IR/Type.h\00"
@global_var_9394 = constant [45 x i8] c"i < NumContainedTys && \22Index out of range!\22\00"
@global_var_93c4 = constant [76 x i8] c"decltype(auto) llvm::cast(From*) [with To = IntegerType; From = const Type]\00"
@global_var_9414 = constant [44 x i8] c"/usr/include/llvm-21/llvm/Support/Casting.h\00"
@global_var_9444 = constant [60 x i8] c"isa<To>(Val) && \22cast<Ty>() argument of incompatible type!\22\00"
@global_var_948c = constant [68 x i8] c"decltype(auto) llvm::cast(From*) [with To = Constant; From = Value]\00"
@global_var_94d4 = constant [56 x i8] c"void llvm::TrackingMDRef::retrack(llvm::TrackingMDRef&)\00"
@global_var_950c = constant [45 x i8] c"/usr/include/llvm-21/llvm/IR/TrackingMDRef.h\00"
@global_var_953c = constant [41 x i8] c"MD == X.MD && \22Expected values to match\22\00"
@global_var_9574 = constant [65 x i8] c"decltype(auto) llvm::cast(From*) [with To = Value; From = Value]\00"
@global_var_95bc = local_unnamed_addr constant [59 x i8] c"auto llvm::cast_if_present(Y*) [with X = Value; Y = Value]\00"
@global_var_95fc = local_unnamed_addr constant [70 x i8] c"isa<X>(Val) && \22cast_if_present<Ty>() argument of incompatible type!\22\00"
@global_var_9644 = constant [77 x i8] c"decltype(auto) llvm::cast(From*) [with To = Instruction; From = const Value]\00"
@global_var_9694 = constant [68 x i8] c"llvm::Value* llvm::UnaryInstruction::getOperand(unsigned int) const\00"
@global_var_5f = constant [3 x i8] c"\0DL\00"
@global_var_96dc = constant [42 x i8] c"/usr/include/llvm-21/llvm/IR/InstrTypes.h\00"
@global_var_970c = constant [94 x i8] c"i_nocapture < OperandTraits<UnaryInstruction>::operands(this) && \22getOperand() out of range!\22\00"
@global_var_976c = constant [66 x i8] c"llvm::Value* llvm::BinaryOperator::getOperand(unsigned int) const\00"
@global_var_97b4 = constant [92 x i8] c"i_nocapture < OperandTraits<BinaryOperator>::operands(this) && \22getOperand() out of range!\22\00"
@global_var_9814 = constant [73 x i8] c"decltype(auto) llvm::dyn_cast(From*) [with To = VectorType; From = Type]\00"
@global_var_9864 = constant [61 x i8] c"detail::isPresent(Val) && \22dyn_cast on a non-existent value\22\00"
@global_var_98a4 = constant [59 x i8] c"llvm::Value* llvm::CmpInst::getOperand(unsigned int) const\00"
@global_var_98e4 = constant [85 x i8] c"i_nocapture < OperandTraits<CmpInst>::operands(this) && \22getOperand() out of range!\22\00"
@global_var_9944 = local_unnamed_addr constant [62 x i8] c"auto llvm::cast_if_present(Y*) [with X = Constant; Y = Value]\00"
@global_var_9984 = constant [72 x i8] c"llvm::Constant* llvm::ConstantAggregate::getOperand(unsigned int) const\00"
@global_var_99cc = constant [41 x i8] c"/usr/include/llvm-21/llvm/IR/Constants.h\00"
@global_var_99fc = constant [95 x i8] c"i_nocapture < OperandTraits<ConstantAggregate>::operands(this) && \22getOperand() out of range!\22\00"
@global_var_9a5c = constant [68 x i8] c"decltype(auto) llvm::cast(From*) [with To = ArrayType; From = Type]\00"
@global_var_9aa4 = constant [67 x i8] c"llvm::Constant* llvm::ConstantExpr::getOperand(unsigned int) const\00"
@global_var_9aec = constant [90 x i8] c"i_nocapture < OperandTraits<ConstantExpr>::operands(this) && \22getOperand() out of range!\22\00"
@global_var_9b4c = constant [81 x i8] c"decltype(auto) llvm::dyn_cast(From*) [with To = Instruction; From = const Value]\00"
@global_var_9ba4 = constant [73 x i8] c"decltype(auto) llvm::dyn_cast(From*) [with To = StructType; From = Type]\00"
@global_var_9bf4 = constant [72 x i8] c"decltype(auto) llvm::dyn_cast(From*) [with To = ArrayType; From = Type]\00"
@global_var_9c3c = constant [63 x i8] c"llvm::Value* llvm::GEPOperator::getOperand(unsigned int) const\00"
@global_var_9c7c = constant [40 x i8] c"/usr/include/llvm-21/llvm/IR/Operator.h\00"
@global_var_9ca4 = constant [89 x i8] c"i_nocapture < OperandTraits<GEPOperator>::operands(this) && \22getOperand() out of range!\22\00"
@global_var_9d04 = constant [50 x i8] c"unsigned int llvm::KnownBits::getBitWidth() const\00"
@global_var_9d3c = constant [46 x i8] c"/usr/include/llvm-21/llvm/Support/KnownBits.h\00"
@global_var_9d6c = constant [86 x i8] c"Zero.getBitWidth() == One.getBitWidth() && \22Zero and One should have the same width!\22\00"
@global_var_9dc4 = constant [61 x i8] c"llvm::Value* llvm::StoreInst::getOperand(unsigned int) const\00"
@global_var_9e04 = constant [44 x i8] c"/usr/include/llvm-21/llvm/IR/Instructions.h\00"
@global_var_9e34 = constant [87 x i8] c"i_nocapture < OperandTraits<StoreInst>::operands(this) && \22getOperand() out of range!\22\00"
@global_var_9e8c = constant [163 x i8] c"static llvm::GetElementPtrInst* llvm::GetElementPtrInst::Create(llvm::Type*, llvm::Value*, llvm::ArrayRef<llvm::Value*>, const llvm::Twine&, llvm::InsertPosition)\00"
@global_var_9f34 = constant [43 x i8] c"PointeeType && \22Must specify element type\22\00"
@global_var_9f64 = constant [69 x i8] c"llvm::Value* llvm::GetElementPtrInst::getOperand(unsigned int) const\00"
@global_var_9fac = constant [95 x i8] c"i_nocapture < OperandTraits<GetElementPtrInst>::operands(this) && \22getOperand() out of range!\22\00"
@global_var_a00c = constant [32 x i8] c"void llvm::ICmpInst::AssertOK()\00"
@global_var_a02c = constant [51 x i8] c"isIntPredicate() && \22Invalid ICmp predicate value\22\00"
@global_var_a064 = constant [118 x i8] c"getOperand(0)->getType() == getOperand(1)->getType() && \22Both operands to ICmp instruction are not of the same type!\22\00"
@global_var_a0dc = constant [147 x i8] c"(getOperand(0)->getType()->isIntOrIntVectorTy() || getOperand(0)->getType()->isPtrOrPtrVectorTy()) && \22Invalid operand types for ICmp instruction\22\00"
@global_var_a174 = constant [72 x i8] c"decltype(auto) llvm::dyn_cast(From*) [with To = LoadInst; From = Value]\00"
@global_var_a1bc = constant [78 x i8] c"decltype(auto) llvm::dyn_cast(From*) [with To = LoadInst; From = Instruction]\00"
@global_var_a20c = constant [79 x i8] c"decltype(auto) llvm::dyn_cast(From*) [with To = StoreInst; From = Instruction]\00"
@global_var_a264 = constant [55 x i8] c"llvm::Constant* llvm::GlobalVariable::getInitializer()\00"
@global_var_a29c = constant [46 x i8] c"/usr/include/llvm-21/llvm/IR/GlobalVariable.h\00"
@global_var_a2cc = constant [51 x i8] c"hasInitializer() && \22GV doesn't have initializer!\22\00"
@global_var_a304 = constant [75 x i8] c"decltype(auto) llvm::dyn_cast(From*) [with To = Instruction; From = Value]\00"
@global_var_a354 = constant [61 x i8] c"void llvm::IRBuilderBase::SetInsertPoint(llvm::Instruction*)\00"
@global_var_a394 = constant [41 x i8] c"/usr/include/llvm-21/llvm/IR/IRBuilder.h\00"
@global_var_a3c4 = constant [59 x i8] c"InsertPt != BB->end() && \22Can't read debug loc from end()\22\00"
@global_var_a504 = constant [74 x i8] c"decltype(auto) llvm::dyn_cast(From*) [with To = IntegerType; From = Type]\00"
@global_var_a56c = constant [76 x i8] c"decltype(auto) llvm::dyn_cast(From*) [with To = ConstantExpr; From = Value]\00"
@global_var_a5bc = constant [71 x i8] c"decltype(auto) llvm::dyn_cast(From*) [with To = PHINode; From = Value]\00"
@global_var_a604 = constant [74 x i8] c"decltype(auto) llvm::dyn_cast(From*) [with To = SelectInst; From = Value]\00"
@global_var_a65c = constant [81 x i8] c"decltype(auto) llvm::dyn_cast(From*) [with To = GetElementPtrInst; From = Value]\00"
@global_var_a6b4 = constant [75 x i8] c"decltype(auto) llvm::dyn_cast(From*) [with To = LoadInst; From = LoadInst]\00"
@global_var_a724 = constant [78 x i8] c"decltype(auto) llvm::dyn_cast(From*) [with To = ConstantInt; From = Constant]\00"
@global_var_a774 = constant [78 x i8] c"decltype(auto) llvm::cast(From*) [with To = GEPOperator; From = ConstantExpr]\00"
@global_var_a7c4 = constant [76 x i8] c"decltype(auto) llvm::dyn_cast(From*) [with To = IntToPtrInst; From = Value]\00"
@global_var_a814 = constant [75 x i8] c"decltype(auto) llvm::dyn_cast(From*) [with To = ConstantInt; From = Value]\00"
@global_var_a864 = constant [78 x i8] c"decltype(auto) llvm::dyn_cast(From*) [with To = GlobalVariable; From = Value]\00"
@global_var_a8c4 = constant [78 x i8] c"decltype(auto) llvm::dyn_cast(From*) [with To = BinaryOperator; From = Value]\00"
@global_var_a914 = constant [74 x i8] c"decltype(auto) llvm::dyn_cast(From*) [with To = ConstantFP; From = Value]\00"
@global_var_a964 = constant [84 x i8] c"decltype(auto) llvm::dyn_cast(From*) [with To = ConstantDataArray; From = Constant]\00"
@global_var_a9bc = constant [77 x i8] c"decltype(auto) llvm::dyn_cast(From*) [with To = ConstantFP; From = Constant]\00"
@global_var_aa0c = constant [80 x i8] c"decltype(auto) llvm::dyn_cast(From*) [with To = ConstantArray; From = Constant]\00"
@global_var_aa64 = constant [78 x i8] c"decltype(auto) llvm::dyn_cast(From*) [with To = CallBase; From = Instruction]\00"
@global_var_aab4 = constant [80 x i8] c"decltype(auto) llvm::dyn_cast(From*) [with To = AllocaInst; From = Instruction]\00"
@global_var_ab4c = constant [81 x i8] c"constexpr llvm::ArrayRef<T>::ArrayRef(const T*, const T*) [with T = llvm::Type*]\00"
@global_var_aba4 = constant [41 x i8] c"/usr/include/llvm-21/llvm/ADT/ArrayRef.h\00"
@global_var_abcd = constant [13 x i8] c"begin <= end\00"
@global_var_abdc = constant [309 x i8] c"llvm::ilist_iterator<OptionsT, IsReverse, IsConst>::reference llvm::ilist_iterator<OptionsT, IsReverse, IsConst>::operator*() const [with OptionsT = llvm::ilist_detail::node_options<llvm::DbgRecord, false, false, void, false, void>; bool IsReverse = false; bool IsConst = false; reference = llvm::DbgRecord&]\00"
@global_var_ad14 = constant [47 x i8] c"/usr/include/llvm-21/llvm/ADT/ilist_iterator.h\00"
@global_var_ad43 = constant [28 x i8] c"!NodePtr->isKnownSentinel()\00"
@global_var_ad64 = constant [65 x i8] c"const T& llvm::ArrayRef<T>::front() const [with T = llvm::Type*]\00"
@global_var_ada5 = constant [9 x i8] c"!empty()\00"
@global_var_adb4 = constant [338 x i8] c"llvm::ilist_iterator_w_bits<OptionsT, IsReverse, IsConst>::reference llvm::ilist_iterator_w_bits<OptionsT, IsReverse, IsConst>::operator*() const [with OptionsT = llvm::ilist_detail::node_options<llvm::Instruction, false, false, void, true, llvm::BasicBlock>; bool IsReverse = false; bool IsConst = false; reference = llvm::Instruction&]\00"
@global_var_af0c = constant [203 x i8] c"T& llvm::SmallVectorTemplateCommon<T, <template-parameter-1-2> >::operator[](size_type) [with T = unsigned int; <template-parameter-1-2> = void; reference = unsigned int&; size_type = long unsigned int]\00"
@global_var_afdc = constant [44 x i8] c"/usr/include/llvm-21/llvm/ADT/SmallVector.h\00"
@global_var_b008 = constant [13 x i8] c"idx < size()\00"
@global_var_b01c = constant [201 x i8] c"T& llvm::SmallVectorTemplateCommon<T, <template-parameter-1-2> >::operator[](size_type) [with T = llvm::APInt; <template-parameter-1-2> = void; reference = llvm::APInt&; size_type = long unsigned int]\00"
@global_var_b0ec = constant [205 x i8] c"T& llvm::SmallVectorTemplateCommon<T, <template-parameter-1-2> >::back() [with T = std::pair<llvm::APInt, llvm::Value*>; <template-parameter-1-2> = void; reference = std::pair<llvm::APInt, llvm::Value*>&]\00"
@global_var_b1bc = constant [251 x i8] c"T& llvm::SmallVectorTemplateCommon<T, <template-parameter-1-2> >::operator[](size_type) [with T = std::pair<llvm::APInt, llvm::Value*>; <template-parameter-1-2> = void; reference = std::pair<llvm::APInt, llvm::Value*>&; size_type = long unsigned int]\00"
@global_var_b2bc = constant [311 x i8] c"llvm::ilist_iterator<OptionsT, IsReverse, IsConst>::reference llvm::ilist_iterator<OptionsT, IsReverse, IsConst>::operator*() const [with OptionsT = llvm::ilist_detail::node_options<llvm::BasicBlock, false, false, void, false, void>; bool IsReverse = false; bool IsConst = false; reference = llvm::BasicBlock&]\00"
@global_var_be84 = constant [236 x i8] c"typename PassT::Result& llvm::AnalysisManager<IRUnitT, ExtraArgTs>::getResult(IRUnitT&, ExtraArgTs ...) [with PassT = llvm::DominatorTreeAnalysis; IRUnitT = llvm::Function; ExtraArgTs = {}; typename PassT::Result = llvm::DominatorTree]\00"
@global_var_bf74 = constant [43 x i8] c"/usr/include/llvm-21/llvm/IR/PassManager.h\00"
@global_var_bfa4 = constant [100 x i8] c"AnalysisPasses.count(PassT::ID()) && \22This analysis pass was not registered prior to being queried\22\00"
@global_var_c00c = constant [235 x i8] c"typename PassT::Result& llvm::AnalysisManager<IRUnitT, ExtraArgTs>::getResult(IRUnitT&, ExtraArgTs ...) [with PassT = llvm::AssumptionAnalysis; IRUnitT = llvm::Function; ExtraArgTs = {}; typename PassT::Result = llvm::AssumptionCache]\00"
@global_var_c0fc = constant [157 x i8] c"T& llvm::SmallVectorTemplateCommon<T, <template-parameter-1-2> >::back() [with T = llvm::Value*; <template-parameter-1-2> = void; reference = llvm::Value*&]\00"
@global_var_c71c = constant [40 x i8] c"/usr/include/llvm-21/llvm/ADT/Hashing.h\00"
@global_var_c744 = constant [32 x i8] c"buffer smaller than stored type\00"
@global_var_d5b4 = constant [305 x i8] c"static intptr_t llvm::PointerIntPairInfo<PointerT, IntBits, PtrTraits>::updatePointer(intptr_t, PointerT) [with PointerT = void*; unsigned int IntBits = 2; PtrTraits = llvm::pointer_union_detail::PointerUnionUIntTraits<llvm::MetadataAsValue*, llvm::Metadata*, llvm::DebugValueUser*>; intptr_t = long int]\00"
@global_var_d6ec = constant [47 x i8] c"/usr/include/llvm-21/llvm/ADT/PointerIntPair.h\00"
@global_var_d71c = constant [74 x i8] c"(PtrWord & ~PointerBitMask) == 0 && \22Pointer is not sufficiently aligned\22\00"
@global_var_d76c = constant [301 x i8] c"static intptr_t llvm::PointerIntPairInfo<PointerT, IntBits, PtrTraits>::updateInt(intptr_t, intptr_t) [with PointerT = void*; unsigned int IntBits = 2; PtrTraits = llvm::pointer_union_detail::PointerUnionUIntTraits<llvm::MetadataAsValue*, llvm::Metadata*, llvm::DebugValueUser*>; intptr_t = long int]\00"
@global_var_d89c = constant [55 x i8] c"(Int & ~IntMask) == 0 && \22Integer too large for field\22\00"
@global_var_d8d4 = constant [152 x i8] c"static T llvm::bitfields_details::Compressor<T, Bits, <anonymous> >::pack(T, T) [with T = unsigned int; unsigned int Bits = 6; bool <anonymous> = true]\00"
@global_var_d96c = constant [42 x i8] c"/usr/include/llvm-21/llvm/ADT/Bitfields.h\00"
@global_var_d99c = constant [48 x i8] c"UserValue <= UserMaxValue && \22value is too big\22\00"
@global_var_d9cc = constant [44 x i8] c"UserValue <= BP::Umax && \22value is too big\22\00"
@global_var_e07b = constant [26 x i8] c"vector::_M_realloc_insert\00"
@global_var_e09c = constant [114 x i8] c"static bool llvm::isa_impl_cl<To, const From*>::doit(const From*) [with To = llvm::VectorType; From = llvm::Type]\00"
@global_var_e114 = constant [38 x i8] c"Val && \22isa<> used on a null pointer\22\00"
@global_var_e13c = constant [116 x i8] c"static bool llvm::isa_impl_cl<To, const From*>::doit(const From*) [with To = llvm::Instruction; From = llvm::Value]\00"
@global_var_e1b4 = constant [117 x i8] c"static bool llvm::isa_impl_cl<To, const From*>::doit(const From*) [with To = llvm::ConstantExpr; From = llvm::Value]\00"
@global_var_e22c = constant [114 x i8] c"static bool llvm::isa_impl_cl<To, const From*>::doit(const From*) [with To = llvm::StructType; From = llvm::Type]\00"
@global_var_e2a4 = constant [113 x i8] c"static bool llvm::isa_impl_cl<To, const From*>::doit(const From*) [with To = llvm::ArrayType; From = llvm::Type]\00"
@global_var_e31c = constant [116 x i8] c"static bool llvm::isa_impl_cl<To, const From*>::doit(const From*) [with To = llvm::ConstantInt; From = llvm::Value]\00"
@global_var_e394 = constant [113 x i8] c"static bool llvm::isa_impl_cl<To, const From*>::doit(const From*) [with To = llvm::LoadInst; From = llvm::Value]\00"
@global_var_e40c = constant [122 x i8] c"static bool llvm::isa_impl_cl<To, const From*>::doit(const From*) [with To = llvm::GetElementPtrInst; From = llvm::Value]\00"
@global_var_e48c = constant [119 x i8] c"static bool llvm::isa_impl_cl<To, const From*>::doit(const From*) [with To = llvm::LoadInst; From = llvm::Instruction]\00"
@global_var_e504 = constant [120 x i8] c"static bool llvm::isa_impl_cl<To, const From*>::doit(const From*) [with To = llvm::StoreInst; From = llvm::Instruction]\00"
@global_var_e57c = constant [113 x i8] c"static bool llvm::isa_impl_cl<To, const From*>::doit(const From*) [with To = llvm::Constant; From = llvm::Value]\00"
@global_var_e5f4 = constant [119 x i8] c"static bool llvm::isa_impl_cl<To, const From*>::doit(const From*) [with To = llvm::ConstantInt; From = llvm::Constant]\00"
@global_var_e66c = constant [115 x i8] c"static bool llvm::isa_impl_cl<To, const From*>::doit(const From*) [with To = llvm::IntegerType; From = llvm::Type]\00"
@global_var_e6e4 = constant [112 x i8] c"static bool llvm::isa_impl_cl<To, const From*>::doit(const From*) [with To = llvm::PHINode; From = llvm::Value]\00"
@global_var_e754 = constant [115 x i8] c"static bool llvm::isa_impl_cl<To, const From*>::doit(const From*) [with To = llvm::SelectInst; From = llvm::Value]\00"
@global_var_e7cc = constant [116 x i8] c"static bool llvm::isa_impl_cl<To, const From*>::doit(const From*) [with To = llvm::LoadInst; From = llvm::LoadInst]\00"
@global_var_e844 = constant [117 x i8] c"static bool llvm::isa_impl_cl<To, const From*>::doit(const From*) [with To = llvm::IntToPtrInst; From = llvm::Value]\00"
@global_var_e8bc = constant [119 x i8] c"static bool llvm::isa_impl_cl<To, const From*>::doit(const From*) [with To = llvm::GlobalVariable; From = llvm::Value]\00"
@global_var_e934 = constant [119 x i8] c"static bool llvm::isa_impl_cl<To, const From*>::doit(const From*) [with To = llvm::BinaryOperator; From = llvm::Value]\00"
@global_var_e9ac = constant [115 x i8] c"static bool llvm::isa_impl_cl<To, const From*>::doit(const From*) [with To = llvm::ConstantFP; From = llvm::Value]\00"
@global_var_ea24 = constant [125 x i8] c"static bool llvm::isa_impl_cl<To, const From*>::doit(const From*) [with To = llvm::ConstantDataArray; From = llvm::Constant]\00"
@global_var_eaa4 = constant [118 x i8] c"static bool llvm::isa_impl_cl<To, const From*>::doit(const From*) [with To = llvm::ConstantFP; From = llvm::Constant]\00"
@global_var_eb1c = constant [121 x i8] c"static bool llvm::isa_impl_cl<To, const From*>::doit(const From*) [with To = llvm::ConstantArray; From = llvm::Constant]\00"
@global_var_eb9c = constant [119 x i8] c"static bool llvm::isa_impl_cl<To, const From*>::doit(const From*) [with To = llvm::CallBase; From = llvm::Instruction]\00"
@global_var_eefc = constant [121 x i8] c"static bool llvm::isa_impl_cl<To, const From*>::doit(const From*) [with To = llvm::AllocaInst; From = llvm::Instruction]\00"
@global_var_ef7c = constant [128 x i8] c"static bool llvm::isa_impl_cl<To, const From*>::doit(const From*) [with To = llvm::ScalableVectorType; From = llvm::VectorType]\00"
@global_var_effc = constant [110 x i8] c"static bool llvm::isa_impl_cl<To, const From*>::doit(const From*) [with To = llvm::Value; From = llvm::Value]\00"
@global_var_f06c = constant [125 x i8] c"static bool llvm::isa_impl_cl<To, const From*>::doit(const From*) [with To = llvm::FPMathOperator; From = llvm::Instruction]\00"
@global_var_f0ec = constant [207 x i8] c"void llvm::SmallVectorTemplateCommon<T, <template-parameter-1-2> >::assertSafeToReferenceAfterResize(const void*, size_t) [with T = llvm::Value*; <template-parameter-1-2> = void; size_t = long unsigned int]\00"
@global_var_f1bc = constant [136 x i8] c"isSafeToReferenceAfterResize(Elt, NewSize) && \22Attempting to reference an element of the vector in an operation \22 \22that invalidates it\22\00"
@global_var_f244 = constant [123 x i8] c"static bool llvm::isa_impl_cl<To, const From*>::doit(const From*) [with To = llvm::GEPOperator; From = llvm::ConstantExpr]\00"
@global_var_f88a = constant [29 x i8] c"ModuleToFunctionPassAdaptor]\00"
@global_var_f8a7 = constant [7 x i8] c"llvm::\00"
@global_var_f8fa = constant [56 x i8] c"deobfuscate_select_memory::DeobfuscateSelectMemoryPass]\00"
@0 = external global i32
@global_var_40 = constant i128* inttoptr (i64 -556888036579737560 to i128*)
@global_var_a3ff = external constant i8*

define i64 @_GLOBAL_OFFSET_TABLE_.1(i64 %arg1, i64 %arg2) local_unnamed_addr {
dec_label_pc_0:
  %0 = inttoptr i64 %arg2 to i64*, !insn.addr !0
  %1 = call i1 @_ZN4llvm3isaINS_17DbgVariableRecordENS_9DbgRecordEEEbRKT0_(i64* %0), !insn.addr !0
  %2 = sext i1 %1 to i64, !insn.addr !0
  ret i64 %2, !insn.addr !1
}

define i64 @_ZN4llvm9map_rangeINS_14iterator_rangeINS_20filter_iterator_implINS_14ilist_iteratorINS_12ilist_detail12node_optionsINS_9DbgRecordELb0ELb0EvLb0EvEELb0ELb0EEEZNS_L13filterDbgVarsENS1_IS8_EEEUlRS6_E_St26bidirectional_iterator_tagEEEEZNS_L13filterDbgVarsES9_EUlSA_E0_EEDaOT_T0_(i64* %arg1, i64 %arg2) local_unnamed_addr {
dec_label_pc_1e:
  %0 = ptrtoint i64* %arg1 to i64
  %stack_var_-56 = alloca i64, align 8
  %stack_var_-120 = alloca i64, align 8
  %stack_var_-88 = alloca i64, align 8
  %stack_var_-152 = alloca i64, align 8
  %1 = call i64 @__readfsqword(i64 40), !insn.addr !2
  %2 = inttoptr i64 %arg2 to i64**, !insn.addr !3
  %3 = call i64 @_ZN4llvm7adl_endIRNS_14iterator_rangeINS_20filter_iterator_implINS_14ilist_iteratorINS_12ilist_detail12node_optionsINS_9DbgRecordELb0ELb0EvLb0EvEELb0ELb0EEEZNS_L13filterDbgVarsENS1_IS8_EEEUlRS6_E_St26bidirectional_iterator_tagEEEEEEDTcl8end_implcl7forwardIT_Efp_EEEOSG_(i64* nonnull %stack_var_-152, i64** %2), !insn.addr !3
  %4 = ptrtoint i64* %stack_var_-88 to i64, !insn.addr !4
  %5 = call i64 @_ZN4llvm12map_iteratorINS_20filter_iterator_implINS_14ilist_iteratorINS_12ilist_detail12node_optionsINS_9DbgRecordELb0ELb0EvLb0EvEELb0ELb0EEEZNS_L13filterDbgVarsENS_14iterator_rangeIS7_EEEUlRS5_E_St26bidirectional_iterator_tagEEZNS_L13filterDbgVarsES9_EUlSA_E0_EENS_15mapped_iteratorIT_T0_DTclcl7declvalISH_EEdecl7declvalISG_EEEEEESG_SH_(i64 %4, i64 ptrtoint (i32* @0 to i64)), !insn.addr !5
  %6 = call i64 @_ZN4llvm9adl_beginIRNS_14iterator_rangeINS_20filter_iterator_implINS_14ilist_iteratorINS_12ilist_detail12node_optionsINS_9DbgRecordELb0ELb0EvLb0EvEELb0ELb0EEEZNS_L13filterDbgVarsENS1_IS8_EEEUlRS6_E_St26bidirectional_iterator_tagEEEEEEDTcl10begin_implcl7forwardIT_Efp_EEEOSG_(i64* nonnull %stack_var_-120, i64** %2), !insn.addr !6
  %7 = ptrtoint i64* %stack_var_-56 to i64, !insn.addr !7
  %8 = call i64 @_ZN4llvm12map_iteratorINS_20filter_iterator_implINS_14ilist_iteratorINS_12ilist_detail12node_optionsINS_9DbgRecordELb0ELb0EvLb0EvEELb0ELb0EEEZNS_L13filterDbgVarsENS_14iterator_rangeIS7_EEEUlRS5_E_St26bidirectional_iterator_tagEEZNS_L13filterDbgVarsES9_EUlSA_E0_EENS_15mapped_iteratorIT_T0_DTclcl7declvalISH_EEdecl7declvalISG_EEEEEESG_SH_(i64 %7, i64 ptrtoint (i32* @0 to i64)), !insn.addr !8
  %9 = call i64 @_ZN4llvm10make_rangeINS_15mapped_iteratorINS_20filter_iterator_implINS_14ilist_iteratorINS_12ilist_detail12node_optionsINS_9DbgRecordELb0ELb0EvLb0EvEELb0ELb0EEEZNS_L13filterDbgVarsENS_14iterator_rangeIS8_EEEUlRS6_E_St26bidirectional_iterator_tagEEZNS_L13filterDbgVarsESA_EUlSB_E0_St17reference_wrapperINS_17DbgVariableRecordEEEEEENS9_IT_EESK_SK_(i64 %0, i64 ptrtoint (i32* @0 to i64)), !insn.addr !9
  %10 = call i64 @__readfsqword(i64 40), !insn.addr !10
  %11 = icmp eq i64 %1, %10, !insn.addr !10
  br i1 %11, label %dec_label_pc_157, label %dec_label_pc_152, !insn.addr !11

dec_label_pc_152:                                 ; preds = %dec_label_pc_1e
  %12 = call i64 @__stack_chk_fail(), !insn.addr !12
  br label %dec_label_pc_157, !insn.addr !12

dec_label_pc_157:                                 ; preds = %dec_label_pc_152, %dec_label_pc_1e
  ret i64 %0, !insn.addr !13

; uselistorder directives
  uselistorder i64 (i64, i64)* @_ZN4llvm12map_iteratorINS_20filter_iterator_implINS_14ilist_iteratorINS_12ilist_detail12node_optionsINS_9DbgRecordELb0ELb0EvLb0EvEELb0ELb0EEEZNS_L13filterDbgVarsENS_14iterator_rangeIS7_EEEUlRS5_E_St26bidirectional_iterator_tagEEZNS_L13filterDbgVarsES9_EUlSA_E0_EENS_15mapped_iteratorIT_T0_DTclcl7declvalISH_EEdecl7declvalISG_EEEEEESG_SH_, { 1, 0 }
}

define i64 @_ZN4llvmL21getDiagnosticSeverityENS_9SourceMgr8DiagKindE(i64 %arg1) local_unnamed_addr {
dec_label_pc_160:
  %rax.0.reg2mem = alloca i64, !insn.addr !14
  %0 = trunc i64 %arg1 to i32, !insn.addr !15
  %1 = icmp eq i32 %0, 3, !insn.addr !15
  store i64 3, i64* %rax.0.reg2mem, !insn.addr !16
  br i1 %1, label %dec_label_pc_1cb, label %dec_label_pc_177, !insn.addr !16

dec_label_pc_177:                                 ; preds = %dec_label_pc_160
  %2 = icmp sgt i32 %0, 3, !insn.addr !17
  br i1 %2, label %dec_label_pc_1ad, label %dec_label_pc_17c, !insn.addr !17

dec_label_pc_17c:                                 ; preds = %dec_label_pc_177
  store i64 2, i64* %rax.0.reg2mem
  switch i32 %0, label %dec_label_pc_1ad [
    i32 2, label %dec_label_pc_1cb
    i32 0, label %dec_label_pc_1cb.fold.split
    i32 1, label %dec_label_pc_198
  ]

dec_label_pc_198:                                 ; preds = %dec_label_pc_17c
  store i64 1, i64* %rax.0.reg2mem, !insn.addr !18
  br label %dec_label_pc_1cb, !insn.addr !18

dec_label_pc_1ad:                                 ; preds = %dec_label_pc_17c, %dec_label_pc_177
  %3 = call i64 @_ZN4llvm25llvm_unreachable_internalEPKcS1_j(i8* getelementptr inbounds ([28 x i8], [28 x i8]* @global_var_a4e2, i64 0, i64 0), i8* getelementptr inbounds ([46 x i8], [46 x i8]* @global_var_a4b4, i64 0, i64 0), i32 1138), !insn.addr !19
  store i64 %3, i64* %rax.0.reg2mem, !insn.addr !19
  br label %dec_label_pc_1cb, !insn.addr !19

dec_label_pc_1cb.fold.split:                      ; preds = %dec_label_pc_17c
  store i64 0, i64* %rax.0.reg2mem
  br label %dec_label_pc_1cb

dec_label_pc_1cb:                                 ; preds = %dec_label_pc_17c, %dec_label_pc_1cb.fold.split, %dec_label_pc_160, %dec_label_pc_1ad, %dec_label_pc_198
  %rax.0.reload = load i64, i64* %rax.0.reg2mem
  ret i64 %rax.0.reload, !insn.addr !20

; uselistorder directives
  uselistorder i64* %rax.0.reg2mem, { 0, 1, 5, 4, 2, 3 }
  uselistorder label %dec_label_pc_1cb, { 1, 3, 4, 0, 2 }
}

define i64 @_ZNK25deobfuscate_select_memory12_GLOBAL__N_17ByteKeyeqERKS1_(i64* %result, i64* %arg2) local_unnamed_addr {
dec_label_pc_1ce:
  %storemerge.reg2mem = alloca i64, !insn.addr !21
  %0 = icmp eq i64* %result, %arg2, !insn.addr !22
  %1 = icmp eq i1 %0, false, !insn.addr !23
  br i1 %1, label %dec_label_pc_209, label %dec_label_pc_1ed, !insn.addr !23

dec_label_pc_1ed:                                 ; preds = %dec_label_pc_1ce
  %2 = ptrtoint i64* %result to i64
  %3 = ptrtoint i64* %arg2 to i64
  %4 = add i64 %2, 8, !insn.addr !24
  %5 = inttoptr i64 %4 to i64*, !insn.addr !24
  %6 = load i64, i64* %5, align 8, !insn.addr !24
  %7 = add i64 %3, 8, !insn.addr !25
  %8 = inttoptr i64 %7 to i64*, !insn.addr !25
  %9 = load i64, i64* %8, align 8, !insn.addr !25
  %10 = icmp eq i64 %6, %9, !insn.addr !26
  %11 = icmp eq i1 %10, false, !insn.addr !27
  store i64 1, i64* %storemerge.reg2mem, !insn.addr !27
  br i1 %11, label %dec_label_pc_209, label %dec_label_pc_20e, !insn.addr !27

dec_label_pc_209:                                 ; preds = %dec_label_pc_1ed, %dec_label_pc_1ce
  store i64 0, i64* %storemerge.reg2mem, !insn.addr !28
  br label %dec_label_pc_20e, !insn.addr !28

dec_label_pc_20e:                                 ; preds = %dec_label_pc_1ed, %dec_label_pc_209
  %storemerge.reload = load i64, i64* %storemerge.reg2mem
  ret i64 %storemerge.reload, !insn.addr !29

; uselistorder directives
  uselistorder i64* %storemerge.reg2mem, { 0, 2, 1 }
  uselistorder i64* %arg2, { 1, 0 }
  uselistorder i64* %result, { 1, 0 }
  uselistorder label %dec_label_pc_20e, { 1, 0 }
}

define i64 @_ZN25deobfuscate_select_memory12_GLOBAL__N_111ByteKeyInfo11getEmptyKeyEv() local_unnamed_addr {
dec_label_pc_210:
  %0 = call i64 @_ZN4llvm12DenseMapInfoIPKNS_5ValueEvE11getEmptyKeyEv(), !insn.addr !30
  ret i64 %0, !insn.addr !31
}

define i64 @_ZN25deobfuscate_select_memory12_GLOBAL__N_111ByteKeyInfo15getTombstoneKeyEv() local_unnamed_addr {
dec_label_pc_232:
  %0 = call i64 @_ZN4llvm12DenseMapInfoIPKNS_5ValueEvE15getTombstoneKeyEv(), !insn.addr !32
  ret i64 %0, !insn.addr !33
}

define i64 @_ZN25deobfuscate_select_memory12_GLOBAL__N_111ByteKeyInfo12getHashValueERKNS0_7ByteKeyE(i64* %arg1) local_unnamed_addr {
dec_label_pc_254:
  %rax.0.reg2mem = alloca i64, !insn.addr !34
  %0 = ptrtoint i64* %arg1 to i64
  %stack_var_-24 = alloca i64, align 8
  %1 = call i64 @__readfsqword(i64 40), !insn.addr !35
  %2 = add i64 %0, 8, !insn.addr !36
  %3 = call i64 @_ZN4llvm12hash_combineIJPKNS_5ValueElEEENS_9hash_codeEDpRKT_(i64* %arg1, i64 %2), !insn.addr !37
  store i64 %3, i64* %stack_var_-24, align 8, !insn.addr !38
  %4 = call i64 @_ZNK4llvm9hash_codecvmEv(i64* nonnull %stack_var_-24), !insn.addr !39
  %5 = call i64 @__readfsqword(i64 40), !insn.addr !40
  %6 = icmp eq i64 %1, %5, !insn.addr !40
  store i64 %4, i64* %rax.0.reg2mem, !insn.addr !41
  br i1 %6, label %dec_label_pc_2aa, label %dec_label_pc_2a5, !insn.addr !41

dec_label_pc_2a5:                                 ; preds = %dec_label_pc_254
  %7 = call i64 @__stack_chk_fail(), !insn.addr !42
  store i64 %7, i64* %rax.0.reg2mem, !insn.addr !42
  br label %dec_label_pc_2aa, !insn.addr !42

dec_label_pc_2aa:                                 ; preds = %dec_label_pc_2a5, %dec_label_pc_254
  %rax.0.reload = load i64, i64* %rax.0.reg2mem
  ret i64 %rax.0.reload, !insn.addr !43
}

define i64 @_ZN25deobfuscate_select_memory12_GLOBAL__N_111ByteKeyInfo7isEqualERKNS0_7ByteKeyES4_(i64* %arg1, i64* %arg2) local_unnamed_addr {
dec_label_pc_2ac:
  %0 = call i64 @_ZNK25deobfuscate_select_memory12_GLOBAL__N_17ByteKeyeqERKS1_(i64* %arg1, i64* %arg2), !insn.addr !44
  ret i64 %0, !insn.addr !45
}

define i64 @_ZN25deobfuscate_select_memory12_GLOBAL__N_115castValueToTypeERN4llvm9IRBuilderINS1_14ConstantFolderENS1_24IRBuilderDefaultInserterEEEPNS1_5ValueEPNS1_4TypeE(i64* %arg1, i64* %arg2, i64* %arg3) local_unnamed_addr {
dec_label_pc_2d1:
  %rax.1.reg2mem = alloca i64, !insn.addr !46
  %rax.0.reg2mem = alloca i64, !insn.addr !46
  %stack_var_-72 = alloca i64, align 8
  %stack_var_-88 = alloca i64, align 8
  %0 = call i64 @__readfsqword(i64 40), !insn.addr !47
  %1 = icmp ne i64* %arg2, null, !insn.addr !48
  %2 = icmp eq i64* %arg3, null, !insn.addr !49
  %3 = icmp eq i1 %2, false, !insn.addr !50
  %or.cond = icmp eq i1 %1, %3
  store i64 0, i64* %rax.0.reg2mem, !insn.addr !51
  br i1 %or.cond, label %dec_label_pc_31a, label %dec_label_pc_567, !insn.addr !51

dec_label_pc_31a:                                 ; preds = %dec_label_pc_2d1
  %4 = ptrtoint i64* %arg2 to i64
  %5 = ptrtoint i64* %arg3 to i64
  %6 = call i64 @_ZNK4llvm5Value7getTypeEv(i64* nonnull %arg2), !insn.addr !52
  %7 = icmp eq i64 %6, %5, !insn.addr !53
  %8 = icmp eq i1 %7, false, !insn.addr !54
  store i64 %4, i64* %rax.0.reg2mem, !insn.addr !54
  br i1 %8, label %dec_label_pc_340, label %dec_label_pc_567, !insn.addr !54

dec_label_pc_340:                                 ; preds = %dec_label_pc_31a
  %9 = inttoptr i64 %6 to i64*, !insn.addr !55
  %10 = call i64 @_ZNK4llvm4Type11isPointerTyEv(i64* %9), !insn.addr !55
  %11 = trunc i64 %10 to i8, !insn.addr !56
  %12 = icmp eq i8 %11, 0, !insn.addr !56
  br i1 %12, label %dec_label_pc_36a, label %dec_label_pc_350, !insn.addr !57

dec_label_pc_350:                                 ; preds = %dec_label_pc_340
  %13 = call i64 @_ZNK4llvm4Type11isIntegerTyEv(i64* %arg3), !insn.addr !58
  %14 = trunc i64 %13 to i8, !insn.addr !59
  %15 = icmp eq i8 %14, 0, !insn.addr !59
  br i1 %15, label %dec_label_pc_36a, label %dec_label_pc_373, !insn.addr !60

dec_label_pc_36a:                                 ; preds = %dec_label_pc_350, %dec_label_pc_340
  %16 = call i64 @_ZNK4llvm4Type11isIntegerTyEv(i64* %9), !insn.addr !61
  %17 = trunc i64 %16 to i8, !insn.addr !62
  %18 = icmp eq i8 %17, 0, !insn.addr !62
  br i1 %18, label %dec_label_pc_3ee, label %dec_label_pc_3d4, !insn.addr !63

dec_label_pc_373:                                 ; preds = %dec_label_pc_350
  %19 = call i64 @_ZNK4llvm5Value7getNameEv(i64* nonnull %arg2), !insn.addr !64
  store i64 %19, i64* %stack_var_-88, align 8, !insn.addr !65
  %20 = call i64 @_ZN4llvmplERKNS_9StringRefEPKc(i64* nonnull %stack_var_-72, i64* nonnull %stack_var_-88, i8* getelementptr inbounds ([8 x i8], [8 x i8]* @global_var_a54e, i64 0, i64 0)), !insn.addr !66
  %21 = call i64 @_ZN4llvm13IRBuilderBase14CreatePtrToIntEPNS_5ValueEPNS_4TypeERKNS_5TwineE(i64* %arg1, i64* nonnull %arg2, i64* %arg3, i64* nonnull %stack_var_-72), !insn.addr !67
  store i64 %21, i64* %rax.0.reg2mem, !insn.addr !68
  br label %dec_label_pc_567, !insn.addr !68

dec_label_pc_3d4:                                 ; preds = %dec_label_pc_36a
  %22 = call i64 @_ZNK4llvm4Type11isPointerTyEv(i64* %arg3), !insn.addr !69
  %23 = trunc i64 %22 to i8, !insn.addr !70
  %24 = icmp eq i8 %23, 0, !insn.addr !70
  br i1 %24, label %dec_label_pc_3ee, label %dec_label_pc_3f7, !insn.addr !71

dec_label_pc_3ee:                                 ; preds = %dec_label_pc_3d4, %dec_label_pc_36a
  %25 = call i64 @_ZN4llvm8dyn_castINS_11IntegerTypeENS_4TypeEEEDcPT0_(i64* %9), !insn.addr !72
  %26 = call i64 @_ZN4llvm8dyn_castINS_11IntegerTypeENS_4TypeEEEDcPT0_(i64* %arg3), !insn.addr !73
  %27 = icmp ne i64 %25, 0, !insn.addr !74
  %28 = icmp eq i64 %26, 0, !insn.addr !75
  %29 = icmp eq i1 %28, false, !insn.addr !76
  %or.cond4 = icmp eq i1 %27, %29
  store i64 0, i64* %rax.0.reg2mem, !insn.addr !77
  br i1 %or.cond4, label %dec_label_pc_483, label %dec_label_pc_567, !insn.addr !77

dec_label_pc_3f7:                                 ; preds = %dec_label_pc_3d4
  %30 = call i64 @_ZNK4llvm5Value7getNameEv(i64* nonnull %arg2), !insn.addr !78
  store i64 %30, i64* %stack_var_-88, align 8, !insn.addr !79
  %31 = call i64 @_ZN4llvmplERKNS_9StringRefEPKc(i64* nonnull %stack_var_-72, i64* nonnull %stack_var_-88, i8* getelementptr inbounds ([8 x i8], [8 x i8]* @global_var_a556, i64 0, i64 0)), !insn.addr !80
  %32 = call i64 @_ZN4llvm13IRBuilderBase14CreateIntToPtrEPNS_5ValueEPNS_4TypeERKNS_5TwineE(i64* %arg1, i64* nonnull %arg2, i64* %arg3, i64* nonnull %stack_var_-72), !insn.addr !81
  store i64 %32, i64* %rax.0.reg2mem, !insn.addr !82
  br label %dec_label_pc_567, !insn.addr !82

dec_label_pc_483:                                 ; preds = %dec_label_pc_3ee
  %33 = inttoptr i64 %25 to i64*, !insn.addr !83
  %34 = call i64 @_ZNK4llvm11IntegerType11getBitWidthEv(i64* %33), !insn.addr !83
  %35 = trunc i64 %34 to i32, !insn.addr !84
  %36 = inttoptr i64 %26 to i64*, !insn.addr !85
  %37 = call i64 @_ZNK4llvm11IntegerType11getBitWidthEv(i64* %36), !insn.addr !85
  %38 = trunc i64 %37 to i32, !insn.addr !86
  %39 = icmp eq i32 %35, %38, !insn.addr !87
  %40 = icmp eq i1 %39, false, !insn.addr !88
  store i64 %4, i64* %rax.0.reg2mem, !insn.addr !88
  br i1 %40, label %dec_label_pc_4b2, label %dec_label_pc_567, !insn.addr !88

dec_label_pc_4b2:                                 ; preds = %dec_label_pc_483
  %41 = icmp ult i32 %35, %38, !insn.addr !89
  %42 = icmp eq i1 %41, false, !insn.addr !90
  %43 = call i64 @_ZNK4llvm5Value7getNameEv(i64* nonnull %arg2)
  store i64 %43, i64* %stack_var_-88, align 8
  br i1 %42, label %dec_label_pc_50e, label %dec_label_pc_4ba, !insn.addr !90

dec_label_pc_4ba:                                 ; preds = %dec_label_pc_4b2
  %44 = call i64 @_ZN4llvmplERKNS_9StringRefEPKc(i64* nonnull %stack_var_-72, i64* nonnull %stack_var_-88, i8* getelementptr inbounds ([6 x i8], [6 x i8]* @global_var_a55e, i64 0, i64 0)), !insn.addr !91
  %45 = call i64 @_ZN4llvm13IRBuilderBase10CreateZExtEPNS_5ValueEPNS_4TypeERKNS_5TwineEb(i64* %arg1, i64* nonnull %arg2, i64* %arg3, i64* nonnull %stack_var_-72, i1 false), !insn.addr !92
  store i64 %45, i64* %rax.0.reg2mem, !insn.addr !93
  br label %dec_label_pc_567, !insn.addr !93

dec_label_pc_50e:                                 ; preds = %dec_label_pc_4b2
  %46 = call i64 @_ZN4llvmplERKNS_9StringRefEPKc(i64* nonnull %stack_var_-72, i64* nonnull %stack_var_-88, i8* getelementptr inbounds ([7 x i8], [7 x i8]* @global_var_a564, i64 0, i64 0)), !insn.addr !94
  %47 = call i64 @_ZN4llvm13IRBuilderBase11CreateTruncEPNS_5ValueEPNS_4TypeERKNS_5TwineEbb(i64* %arg1, i64* nonnull %arg2, i64* %arg3, i64* nonnull %stack_var_-72, i1 false, i1 false), !insn.addr !95
  store i64 %47, i64* %rax.0.reg2mem, !insn.addr !96
  br label %dec_label_pc_567, !insn.addr !96

dec_label_pc_567:                                 ; preds = %dec_label_pc_483, %dec_label_pc_3ee, %dec_label_pc_31a, %dec_label_pc_2d1, %dec_label_pc_50e, %dec_label_pc_4ba, %dec_label_pc_3f7, %dec_label_pc_373
  %rax.0.reload = load i64, i64* %rax.0.reg2mem
  %48 = call i64 @__readfsqword(i64 40), !insn.addr !97
  %49 = icmp eq i64 %0, %48, !insn.addr !97
  store i64 %rax.0.reload, i64* %rax.1.reg2mem, !insn.addr !98
  br i1 %49, label %dec_label_pc_57b, label %dec_label_pc_576, !insn.addr !98

dec_label_pc_576:                                 ; preds = %dec_label_pc_567
  %50 = call i64 @__stack_chk_fail(), !insn.addr !99
  store i64 %50, i64* %rax.1.reg2mem, !insn.addr !99
  br label %dec_label_pc_57b, !insn.addr !99

dec_label_pc_57b:                                 ; preds = %dec_label_pc_576, %dec_label_pc_567
  %rax.1.reload = load i64, i64* %rax.1.reg2mem
  ret i64 %rax.1.reload, !insn.addr !100

; uselistorder directives
  uselistorder i64 %26, { 1, 0 }
  uselistorder i64* %stack_var_-88, { 0, 1, 4, 2, 5, 3, 6 }
  uselistorder i64* %rax.0.reg2mem, { 0, 8, 7, 1, 6, 2, 5, 3, 4 }
  uselistorder i64 (i64*)* @_ZN4llvm8dyn_castINS_11IntegerTypeENS_4TypeEEEDcPT0_, { 1, 0 }
  uselistorder i64* %arg3, { 1, 2, 4, 3, 5, 6, 7, 8, 0 }
  uselistorder i64* %arg2, { 1, 0, 2, 3, 4, 5, 6, 7, 9, 8 }
  uselistorder label %dec_label_pc_567, { 4, 5, 0, 6, 1, 7, 2, 3 }
}

define i64 @_ZN25deobfuscate_select_memory12_GLOBAL__N_114valueDependsOnEPN4llvm5ValueES3_RNS1_15SmallPtrSetImplIS3_EE(i64* %arg1, i64* %arg2, i64* %arg3) local_unnamed_addr {
dec_label_pc_581:
  %0 = alloca i32
  %rax.1.reg2mem = alloca i64, !insn.addr !101
  %rax.0.reg2mem = alloca i64, !insn.addr !101
  %stack_var_-112.04.reg2mem = alloca i64, !insn.addr !101
  %stack_var_-120.06.reg2mem = alloca i64, !insn.addr !101
  %1 = load i32, i32* %0
  %stack_var_-40 = alloca i64, align 8
  %2 = call i64 @__readfsqword(i64 40), !insn.addr !102
  %3 = icmp eq i64* %arg1, %arg2, !insn.addr !103
  %4 = icmp eq i1 %3, false, !insn.addr !104
  store i64 1, i64* %rax.0.reg2mem, !insn.addr !104
  br i1 %4, label %dec_label_pc_5c2, label %dec_label_pc_73e, !insn.addr !104

dec_label_pc_5c2:                                 ; preds = %dec_label_pc_581
  %5 = call i64 @_ZN4llvm15SmallPtrSetImplIPNS_5ValueEE6insertES2_(i64* nonnull %stack_var_-40, i64* %arg3, i64* %arg1), !insn.addr !105
  %6 = trunc i32 %1 to i8
  %7 = icmp eq i8 %6, 1, !insn.addr !106
  store i64 0, i64* %rax.0.reg2mem, !insn.addr !107
  br i1 %7, label %dec_label_pc_5f1, label %dec_label_pc_73e, !insn.addr !107

dec_label_pc_5f1:                                 ; preds = %dec_label_pc_5c2
  %8 = call i64 @_ZN4llvm8dyn_castINS_11InstructionENS_5ValueEEEDcPT0_(i64* %arg1), !insn.addr !108
  %9 = icmp eq i64 %8, 0, !insn.addr !109
  br i1 %9, label %dec_label_pc_699, label %dec_label_pc_60c, !insn.addr !110

dec_label_pc_60c:                                 ; preds = %dec_label_pc_5f1
  %10 = inttoptr i64 %8 to i64*, !insn.addr !111
  %11 = call i64 @_ZN4llvm4User8operandsEv(i64* %10), !insn.addr !111
  store i64 %11, i64* %stack_var_-40, align 8, !insn.addr !112
  %12 = call i64 @_ZNK4llvm14iterator_rangeIPNS_3UseEE5beginEv(i64* nonnull %stack_var_-40), !insn.addr !113
  %13 = call i64 @_ZNK4llvm14iterator_rangeIPNS_3UseEE3endEv(i64* nonnull %stack_var_-40), !insn.addr !114
  %14 = icmp eq i64 %12, %13, !insn.addr !115
  %15 = icmp eq i1 %14, false, !insn.addr !116
  store i64 %12, i64* %stack_var_-120.06.reg2mem, !insn.addr !116
  store i64 0, i64* %rax.0.reg2mem, !insn.addr !116
  br i1 %15, label %dec_label_pc_64a, label %dec_label_pc_73e, !insn.addr !116

dec_label_pc_64a:                                 ; preds = %dec_label_pc_60c, %dec_label_pc_68a
  %stack_var_-120.06.reload = load i64, i64* %stack_var_-120.06.reg2mem
  %16 = inttoptr i64 %stack_var_-120.06.reload to i64*, !insn.addr !117
  %17 = call i64 @_ZNK4llvm3Use3getEv(i64* %16), !insn.addr !117
  %18 = inttoptr i64 %17 to i64*, !insn.addr !118
  %19 = call i64 @_ZN25deobfuscate_select_memory12_GLOBAL__N_114valueDependsOnEPN4llvm5ValueES3_RNS1_15SmallPtrSetImplIS3_EE(i64* %18, i64* %arg2, i64* %arg3), !insn.addr !118
  %20 = trunc i64 %19 to i8, !insn.addr !119
  %21 = icmp eq i8 %20, 0, !insn.addr !119
  store i64 1, i64* %rax.0.reg2mem, !insn.addr !120
  br i1 %21, label %dec_label_pc_68a, label %dec_label_pc_73e, !insn.addr !120

dec_label_pc_68a:                                 ; preds = %dec_label_pc_64a
  %22 = add i64 %stack_var_-120.06.reload, 32, !insn.addr !121
  %23 = icmp eq i64 %22, %13, !insn.addr !115
  %24 = icmp eq i1 %23, false, !insn.addr !116
  store i64 %22, i64* %stack_var_-120.06.reg2mem, !insn.addr !116
  store i64 0, i64* %rax.0.reg2mem, !insn.addr !116
  br i1 %24, label %dec_label_pc_64a, label %dec_label_pc_73e, !insn.addr !116

dec_label_pc_699:                                 ; preds = %dec_label_pc_5f1
  %25 = call i64 @_ZN4llvm8dyn_castINS_12ConstantExprENS_5ValueEEEDcPT0_(i64* %arg1), !insn.addr !122
  %26 = icmp eq i64 %25, 0, !insn.addr !123
  store i64 0, i64* %rax.0.reg2mem, !insn.addr !124
  br i1 %26, label %dec_label_pc_73e, label %dec_label_pc_6b4, !insn.addr !124

dec_label_pc_6b4:                                 ; preds = %dec_label_pc_699
  %27 = inttoptr i64 %25 to i64*, !insn.addr !125
  %28 = call i64 @_ZN4llvm4User8operandsEv(i64* %27), !insn.addr !125
  store i64 %28, i64* %stack_var_-40, align 8, !insn.addr !126
  %29 = call i64 @_ZNK4llvm14iterator_rangeIPNS_3UseEE5beginEv(i64* nonnull %stack_var_-40), !insn.addr !127
  %30 = call i64 @_ZNK4llvm14iterator_rangeIPNS_3UseEE3endEv(i64* nonnull %stack_var_-40), !insn.addr !128
  %31 = icmp eq i64 %29, %30, !insn.addr !129
  %32 = icmp eq i1 %31, false, !insn.addr !130
  store i64 %29, i64* %stack_var_-112.04.reg2mem, !insn.addr !130
  store i64 0, i64* %rax.0.reg2mem, !insn.addr !130
  br i1 %32, label %dec_label_pc_6f2, label %dec_label_pc_73e, !insn.addr !130

dec_label_pc_6f2:                                 ; preds = %dec_label_pc_6b4, %dec_label_pc_72f
  %stack_var_-112.04.reload = load i64, i64* %stack_var_-112.04.reg2mem
  %33 = inttoptr i64 %stack_var_-112.04.reload to i64*, !insn.addr !131
  %34 = call i64 @_ZNK4llvm3Use3getEv(i64* %33), !insn.addr !131
  %35 = inttoptr i64 %34 to i64*, !insn.addr !132
  %36 = call i64 @_ZN25deobfuscate_select_memory12_GLOBAL__N_114valueDependsOnEPN4llvm5ValueES3_RNS1_15SmallPtrSetImplIS3_EE(i64* %35, i64* %arg2, i64* %arg3), !insn.addr !132
  %37 = trunc i64 %36 to i8, !insn.addr !133
  %38 = icmp eq i8 %37, 0, !insn.addr !133
  store i64 1, i64* %rax.0.reg2mem, !insn.addr !134
  br i1 %38, label %dec_label_pc_72f, label %dec_label_pc_73e, !insn.addr !134

dec_label_pc_72f:                                 ; preds = %dec_label_pc_6f2
  %39 = add i64 %stack_var_-112.04.reload, 32, !insn.addr !135
  %40 = icmp eq i64 %39, %30, !insn.addr !129
  %41 = icmp eq i1 %40, false, !insn.addr !130
  store i64 %39, i64* %stack_var_-112.04.reg2mem, !insn.addr !130
  store i64 0, i64* %rax.0.reg2mem, !insn.addr !130
  br i1 %41, label %dec_label_pc_6f2, label %dec_label_pc_73e, !insn.addr !130

dec_label_pc_73e:                                 ; preds = %dec_label_pc_64a, %dec_label_pc_68a, %dec_label_pc_6f2, %dec_label_pc_72f, %dec_label_pc_60c, %dec_label_pc_6b4, %dec_label_pc_699, %dec_label_pc_5c2, %dec_label_pc_581
  %rax.0.reload = load i64, i64* %rax.0.reg2mem
  %42 = call i64 @__readfsqword(i64 40), !insn.addr !136
  %43 = icmp eq i64 %2, %42, !insn.addr !136
  store i64 %rax.0.reload, i64* %rax.1.reg2mem, !insn.addr !137
  br i1 %43, label %dec_label_pc_752, label %dec_label_pc_74d, !insn.addr !137

dec_label_pc_74d:                                 ; preds = %dec_label_pc_73e
  %44 = call i64 @__stack_chk_fail(), !insn.addr !138
  store i64 %44, i64* %rax.1.reg2mem, !insn.addr !138
  br label %dec_label_pc_752, !insn.addr !138

dec_label_pc_752:                                 ; preds = %dec_label_pc_74d, %dec_label_pc_73e
  %rax.1.reload = load i64, i64* %rax.1.reg2mem
  ret i64 %rax.1.reload, !insn.addr !139

; uselistorder directives
  uselistorder i64 %30, { 1, 0 }
  uselistorder i64 %13, { 1, 0 }
  uselistorder i64* %stack_var_-40, { 0, 1, 5, 2, 3, 6, 4 }
  uselistorder i64* %stack_var_-120.06.reg2mem, { 2, 0, 1 }
  uselistorder i64* %stack_var_-112.04.reg2mem, { 2, 0, 1 }
  uselistorder i64* %rax.0.reg2mem, { 0, 4, 3, 6, 7, 2, 1, 5, 8, 9 }
  uselistorder label %dec_label_pc_73e, { 3, 2, 5, 6, 1, 0, 4, 7, 8 }
  uselistorder label %dec_label_pc_6f2, { 1, 0 }
  uselistorder label %dec_label_pc_64a, { 1, 0 }
}

define i64 @_ZN25deobfuscate_select_memory12_GLOBAL__N_118isSelfRecurrentPhiEPN4llvm7PHINodeE(i64* %this, i64* %result, i64* %arg3) local_unnamed_addr {
dec_label_pc_754:
  %rax.0.reg2mem = alloca i64, !insn.addr !140
  %r12.0.reg2mem = alloca i64, !insn.addr !140
  %stack_var_-232.01.reg2mem = alloca i64, !insn.addr !140
  %stack_var_-184 = alloca i64, align 8
  %stack_var_-200 = alloca i64, align 8
  %0 = call i64 @__readfsqword(i64 40), !insn.addr !141
  %1 = call i64 @_ZN4llvm7PHINode15incoming_valuesEv(i64* %this), !insn.addr !142
  store i64 %1, i64* %stack_var_-200, align 8, !insn.addr !143
  %2 = call i64 @_ZNK4llvm14iterator_rangeIPNS_3UseEE5beginEv(i64* nonnull %stack_var_-200), !insn.addr !144
  %3 = call i64 @_ZNK4llvm14iterator_rangeIPNS_3UseEE3endEv(i64* nonnull %stack_var_-200), !insn.addr !145
  %4 = icmp eq i64 %2, %3, !insn.addr !146
  %5 = icmp eq i1 %4, false, !insn.addr !147
  store i64 %2, i64* %stack_var_-232.01.reg2mem, !insn.addr !147
  store i64 0, i64* %r12.0.reg2mem, !insn.addr !147
  br i1 %5, label %dec_label_pc_7d5, label %dec_label_pc_866, !insn.addr !147

dec_label_pc_7d5:                                 ; preds = %dec_label_pc_754, %dec_label_pc_84c
  %stack_var_-232.01.reload = load i64, i64* %stack_var_-232.01.reg2mem
  %6 = inttoptr i64 %stack_var_-232.01.reload to i64*, !insn.addr !148
  %7 = call i64 @_ZNK4llvm3UsecvPNS_5ValueEEv(i64* %6), !insn.addr !148
  %8 = call i64 @_ZN4llvm11SmallPtrSetIPNS_5ValueELj16EEC1Ev(i64* nonnull %stack_var_-184), !insn.addr !149
  %9 = inttoptr i64 %7 to i64*, !insn.addr !150
  %10 = call i64 @_ZN25deobfuscate_select_memory12_GLOBAL__N_114valueDependsOnEPN4llvm5ValueES3_RNS1_15SmallPtrSetImplIS3_EE(i64* %9, i64* %this, i64* nonnull %stack_var_-184), !insn.addr !150
  %11 = trunc i64 %10 to i8, !insn.addr !151
  %12 = icmp eq i8 %11, 0, !insn.addr !151
  %13 = call i64 @_ZN4llvm11SmallPtrSetIPNS_5ValueELj16EED1Ev(i64* nonnull %stack_var_-184)
  store i64 1, i64* %r12.0.reg2mem, !insn.addr !152
  br i1 %12, label %dec_label_pc_84c, label %dec_label_pc_866, !insn.addr !152

dec_label_pc_84c:                                 ; preds = %dec_label_pc_7d5
  %14 = add i64 %stack_var_-232.01.reload, 32, !insn.addr !153
  %15 = icmp eq i64 %14, %3, !insn.addr !146
  %16 = icmp eq i1 %15, false, !insn.addr !147
  store i64 %14, i64* %stack_var_-232.01.reg2mem, !insn.addr !147
  store i64 0, i64* %r12.0.reg2mem, !insn.addr !147
  br i1 %16, label %dec_label_pc_7d5, label %dec_label_pc_866, !insn.addr !147

dec_label_pc_866:                                 ; preds = %dec_label_pc_7d5, %dec_label_pc_84c, %dec_label_pc_754
  %r12.0.reload = load i64, i64* %r12.0.reg2mem
  %17 = call i64 @__readfsqword(i64 40), !insn.addr !154
  %18 = icmp eq i64 %0, %17, !insn.addr !154
  store i64 %r12.0.reload, i64* %rax.0.reg2mem, !insn.addr !155
  br i1 %18, label %dec_label_pc_87d, label %dec_label_pc_878, !insn.addr !155

dec_label_pc_878:                                 ; preds = %dec_label_pc_866
  %19 = call i64 @__stack_chk_fail(), !insn.addr !156
  store i64 %19, i64* %rax.0.reg2mem, !insn.addr !156
  br label %dec_label_pc_87d, !insn.addr !156

dec_label_pc_87d:                                 ; preds = %dec_label_pc_878, %dec_label_pc_866
  %rax.0.reload = load i64, i64* %rax.0.reg2mem
  ret i64 %rax.0.reload, !insn.addr !157

; uselistorder directives
  uselistorder i64 %3, { 1, 0 }
  uselistorder i64* %stack_var_-232.01.reg2mem, { 2, 0, 1 }
  uselistorder i64 (i64*, i64*, i64*)* @_ZN25deobfuscate_select_memory12_GLOBAL__N_114valueDependsOnEPN4llvm5ValueES3_RNS1_15SmallPtrSetImplIS3_EE, { 2, 1, 0 }
  uselistorder label %dec_label_pc_866, { 1, 0, 2 }
  uselistorder label %dec_label_pc_7d5, { 1, 0 }
}

define i64 @_ZN25deobfuscate_select_memory12_GLOBAL__N_125dependsOnSelfRecurrentPhiEPN4llvm5ValueE(i64* %arg1) local_unnamed_addr {
dec_label_pc_889:
  %0 = alloca i32
  %rax.0.reg2mem = alloca i64, !insn.addr !158
  %storemerge.reg2mem = alloca i64, !insn.addr !158
  %stack_var_-448.04.reg2mem = alloca i64, !insn.addr !158
  %stack_var_-456.03.reg2mem = alloca i64, !insn.addr !158
  %1 = ptrtoint i64* %arg1 to i64
  %2 = load i32, i32* %0
  %stack_var_-360 = alloca i64, align 8
  %stack_var_-328 = alloca i64, align 8
  %stack_var_-184 = alloca i64, align 8
  %3 = call i64 @__readfsqword(i64 40), !insn.addr !159
  store i64 %1, i64* %stack_var_-184, align 8, !insn.addr !160
  %4 = call i64 @_ZN4llvm11SmallVectorIPNS_5ValueELj16EEC1ESt16initializer_listIS2_E(i64* nonnull %stack_var_-328, i64* nonnull %stack_var_-184, i64 1), !insn.addr !161
  %5 = call i64 @_ZN4llvm11SmallPtrSetIPNS_5ValueELj16EEC1Ev(i64* nonnull %stack_var_-184), !insn.addr !162
  %6 = call i64 @_ZNK4llvm15SmallVectorBaseIjE5emptyEv(i64* nonnull %stack_var_-328), !insn.addr !163
  %7 = trunc i64 %6 to i8
  %8 = icmp eq i8 %7, 1, !insn.addr !164
  %9 = icmp eq i1 %8, false, !insn.addr !165
  store i64 0, i64* %storemerge.reg2mem, !insn.addr !165
  br i1 %9, label %dec_label_pc_8f8.lr.ph, label %dec_label_pc_b32, !insn.addr !165

dec_label_pc_8f8.lr.ph:                           ; preds = %dec_label_pc_889
  %10 = trunc i32 %2 to i8
  %11 = icmp eq i8 %10, 1
  %12 = icmp eq i1 %11, false
  br label %dec_label_pc_8f8

dec_label_pc_8f8:                                 ; preds = %dec_label_pc_8f8.lr.ph, %dec_label_pc_b13.backedge
  %13 = call i64 @_ZN4llvm15SmallVectorImplIPNS_5ValueEE12pop_back_valEv(i64* nonnull %stack_var_-328), !insn.addr !166
  %14 = inttoptr i64 %13 to i64*, !insn.addr !167
  %15 = call i64 @_ZN4llvm15SmallPtrSetImplIPNS_5ValueEE6insertES2_(i64* nonnull %stack_var_-360, i64* nonnull %stack_var_-184, i64* %14), !insn.addr !167
  br i1 %12, label %dec_label_pc_b13.backedge, label %dec_label_pc_940, !insn.addr !168

dec_label_pc_940:                                 ; preds = %dec_label_pc_8f8
  %16 = call i64 @_ZN4llvm8dyn_castINS_7PHINodeENS_5ValueEEEDcPT0_(i64* %14), !insn.addr !169
  %17 = icmp eq i64 %16, 0, !insn.addr !170
  br i1 %17, label %dec_label_pc_97d, label %dec_label_pc_960, !insn.addr !171

dec_label_pc_960:                                 ; preds = %dec_label_pc_940
  %18 = inttoptr i64 %16 to i64*, !insn.addr !172
  %19 = call i64 @_ZN25deobfuscate_select_memory12_GLOBAL__N_118isSelfRecurrentPhiEPN4llvm7PHINodeE(i64* %18, i64* nonnull %stack_var_-184, i64* %14), !insn.addr !172
  %20 = trunc i64 %19 to i8, !insn.addr !173
  %21 = icmp eq i8 %20, 0, !insn.addr !173
  store i64 1, i64* %storemerge.reg2mem, !insn.addr !174
  br i1 %21, label %dec_label_pc_97d, label %dec_label_pc_b32, !insn.addr !174

dec_label_pc_97d:                                 ; preds = %dec_label_pc_960, %dec_label_pc_940
  %22 = call i64 @_ZN4llvm8dyn_castINS_11InstructionENS_5ValueEEEDcPT0_(i64* %14), !insn.addr !175
  %23 = icmp eq i64 %22, 0, !insn.addr !176
  br i1 %23, label %dec_label_pc_a49, label %dec_label_pc_9a1, !insn.addr !177

dec_label_pc_9a1:                                 ; preds = %dec_label_pc_97d
  %24 = inttoptr i64 %22 to i64*, !insn.addr !178
  %25 = call i64 @_ZN4llvm4User8operandsEv(i64* %24), !insn.addr !178
  store i64 %25, i64* %stack_var_-360, align 8, !insn.addr !179
  %26 = call i64 @_ZNK4llvm14iterator_rangeIPNS_3UseEE5beginEv(i64* nonnull %stack_var_-360), !insn.addr !180
  %27 = call i64 @_ZNK4llvm14iterator_rangeIPNS_3UseEE3endEv(i64* nonnull %stack_var_-360), !insn.addr !181
  %28 = icmp eq i64 %26, %27, !insn.addr !182
  %29 = icmp eq i1 %28, false, !insn.addr !183
  store i64 %26, i64* %stack_var_-456.03.reg2mem, !insn.addr !183
  br i1 %29, label %dec_label_pc_9fa, label %dec_label_pc_b13.backedge, !insn.addr !183

dec_label_pc_9fa:                                 ; preds = %dec_label_pc_9a1, %dec_label_pc_9fa
  %stack_var_-456.03.reload = load i64, i64* %stack_var_-456.03.reg2mem
  %30 = inttoptr i64 %stack_var_-456.03.reload to i64*, !insn.addr !184
  %31 = call i64 @_ZNK4llvm3Use3getEv(i64* %30), !insn.addr !184
  %32 = inttoptr i64 %31 to i64*, !insn.addr !185
  %33 = call i64 @_ZN4llvm23SmallVectorTemplateBaseIPNS_5ValueELb1EE9push_backES2_(i64* nonnull %stack_var_-328, i64* %32), !insn.addr !185
  %34 = add i64 %stack_var_-456.03.reload, 32, !insn.addr !186
  %35 = icmp eq i64 %34, %27, !insn.addr !182
  %36 = icmp eq i1 %35, false, !insn.addr !183
  store i64 %34, i64* %stack_var_-456.03.reg2mem, !insn.addr !183
  br i1 %36, label %dec_label_pc_9fa, label %dec_label_pc_b13.backedge, !insn.addr !183

dec_label_pc_a49:                                 ; preds = %dec_label_pc_97d
  %37 = call i64 @_ZN4llvm8dyn_castINS_12ConstantExprENS_5ValueEEEDcPT0_(i64* %14), !insn.addr !187
  %38 = icmp eq i64 %37, 0, !insn.addr !188
  br i1 %38, label %dec_label_pc_b13.backedge, label %dec_label_pc_a6d, !insn.addr !189

dec_label_pc_b13.backedge:                        ; preds = %dec_label_pc_9fa, %dec_label_pc_ac6, %dec_label_pc_9a1, %dec_label_pc_a6d, %dec_label_pc_a49, %dec_label_pc_8f8
  %39 = call i64 @_ZNK4llvm15SmallVectorBaseIjE5emptyEv(i64* nonnull %stack_var_-328), !insn.addr !163
  %40 = trunc i64 %39 to i8
  %41 = icmp eq i8 %40, 1, !insn.addr !164
  %42 = icmp eq i1 %41, false, !insn.addr !165
  store i64 0, i64* %storemerge.reg2mem, !insn.addr !165
  br i1 %42, label %dec_label_pc_8f8, label %dec_label_pc_b32, !insn.addr !165

dec_label_pc_a6d:                                 ; preds = %dec_label_pc_a49
  %43 = inttoptr i64 %37 to i64*, !insn.addr !190
  %44 = call i64 @_ZN4llvm4User8operandsEv(i64* %43), !insn.addr !190
  store i64 %44, i64* %stack_var_-360, align 8, !insn.addr !191
  %45 = call i64 @_ZNK4llvm14iterator_rangeIPNS_3UseEE5beginEv(i64* nonnull %stack_var_-360), !insn.addr !192
  %46 = call i64 @_ZNK4llvm14iterator_rangeIPNS_3UseEE3endEv(i64* nonnull %stack_var_-360), !insn.addr !193
  %47 = icmp eq i64 %45, %46, !insn.addr !194
  %48 = icmp eq i1 %47, false, !insn.addr !195
  store i64 %45, i64* %stack_var_-448.04.reg2mem, !insn.addr !195
  br i1 %48, label %dec_label_pc_ac6, label %dec_label_pc_b13.backedge, !insn.addr !195

dec_label_pc_ac6:                                 ; preds = %dec_label_pc_a6d, %dec_label_pc_ac6
  %stack_var_-448.04.reload = load i64, i64* %stack_var_-448.04.reg2mem
  %49 = inttoptr i64 %stack_var_-448.04.reload to i64*, !insn.addr !196
  %50 = call i64 @_ZNK4llvm3Use3getEv(i64* %49), !insn.addr !196
  %51 = inttoptr i64 %50 to i64*, !insn.addr !197
  %52 = call i64 @_ZN4llvm23SmallVectorTemplateBaseIPNS_5ValueELb1EE9push_backES2_(i64* nonnull %stack_var_-328, i64* %51), !insn.addr !197
  %53 = add i64 %stack_var_-448.04.reload, 32, !insn.addr !198
  %54 = icmp eq i64 %53, %46, !insn.addr !194
  %55 = icmp eq i1 %54, false, !insn.addr !195
  store i64 %53, i64* %stack_var_-448.04.reg2mem, !insn.addr !195
  br i1 %55, label %dec_label_pc_ac6, label %dec_label_pc_b13.backedge, !insn.addr !195

dec_label_pc_b32:                                 ; preds = %dec_label_pc_960, %dec_label_pc_b13.backedge, %dec_label_pc_889
  %storemerge.reload = load i64, i64* %storemerge.reg2mem
  %56 = call i64 @_ZN4llvm11SmallPtrSetIPNS_5ValueELj16EED1Ev(i64* nonnull %stack_var_-184), !insn.addr !199
  %57 = call i64 @_ZN4llvm11SmallVectorIPNS_5ValueELj16EED1Ev(i64* nonnull %stack_var_-328), !insn.addr !200
  %58 = call i64 @__readfsqword(i64 40), !insn.addr !201
  %59 = icmp eq i64 %3, %58, !insn.addr !201
  store i64 %storemerge.reload, i64* %rax.0.reg2mem, !insn.addr !202
  br i1 %59, label %dec_label_pc_b66, label %dec_label_pc_b61, !insn.addr !202

dec_label_pc_b61:                                 ; preds = %dec_label_pc_b32
  %60 = call i64 @__stack_chk_fail(), !insn.addr !203
  store i64 %60, i64* %rax.0.reg2mem, !insn.addr !203
  br label %dec_label_pc_b66, !insn.addr !203

dec_label_pc_b66:                                 ; preds = %dec_label_pc_b61, %dec_label_pc_b32
  %rax.0.reload = load i64, i64* %rax.0.reg2mem
  ret i64 %rax.0.reload, !insn.addr !204

; uselistorder directives
  uselistorder i64 %46, { 1, 0 }
  uselistorder i64 %27, { 1, 0 }
  uselistorder i64* %14, { 1, 2, 0, 3, 4 }
  uselistorder i64* %stack_var_-184, { 1, 0, 2, 3, 4, 5 }
  uselistorder i64* %stack_var_-328, { 1, 3, 2, 4, 5, 0, 6 }
  uselistorder i64* %stack_var_-360, { 0, 1, 5, 2, 3, 6, 4 }
  uselistorder i64* %stack_var_-456.03.reg2mem, { 2, 0, 1 }
  uselistorder i64* %stack_var_-448.04.reg2mem, { 2, 0, 1 }
  uselistorder i64 (i64*)* @_ZN4llvm11SmallPtrSetIPNS_5ValueELj16EED1Ev, { 1, 0 }
  uselistorder i64 (i64*)* @_ZNK4llvm14iterator_rangeIPNS_3UseEE3endEv, { 4, 3, 2, 1, 0 }
  uselistorder i64 (i64*)* @_ZNK4llvm14iterator_rangeIPNS_3UseEE5beginEv, { 4, 3, 2, 1, 0 }
  uselistorder i64 (i64*)* @_ZN4llvm8dyn_castINS_11InstructionENS_5ValueEEEDcPT0_, { 1, 0 }
  uselistorder i64 (i64*, i64*, i64*)* @_ZN4llvm15SmallPtrSetImplIPNS_5ValueEE6insertES2_, { 1, 0 }
  uselistorder i64 (i64*)* @_ZN4llvm11SmallPtrSetIPNS_5ValueELj16EEC1Ev, { 1, 0 }
  uselistorder label %dec_label_pc_b32, { 1, 0, 2 }
  uselistorder label %dec_label_pc_ac6, { 1, 0 }
  uselistorder label %dec_label_pc_b13.backedge, { 1, 3, 4, 0, 2, 5 }
  uselistorder label %dec_label_pc_9fa, { 1, 0 }
  uselistorder label %dec_label_pc_8f8, { 1, 0 }
}

define i64 @_ZN25deobfuscate_select_memory12_GLOBAL__N_123enumeratePossibleValuesERKN4llvm9KnownBitsEj(i64* %result, i64* %arg2, i32 %arg3) local_unnamed_addr {
dec_label_pc_b6c:
  %indvars.iv.reg2mem = alloca i64, !insn.addr !205
  %storemerge17.reg2mem = alloca i64, !insn.addr !205
  %storemerge49.reg2mem = alloca i32, !insn.addr !205
  %0 = ptrtoint i64* %arg2 to i64
  %stack_var_-88 = alloca i64, align 8
  %stack_var_-136 = alloca i64, align 8
  %stack_var_-104 = alloca i64, align 8
  %stack_var_-120 = alloca i64, align 8
  %1 = call i64 @__readfsqword(i64 40), !insn.addr !206
  %2 = call i64 @_ZN4llvm11SmallVectorINS_5APIntELj3EEC1Ev(i64* %result), !insn.addr !207
  %3 = call i64 @_ZNK4llvm9KnownBits11getBitWidthEv(i64* %arg2), !insn.addr !208
  %4 = trunc i64 %3 to i32, !insn.addr !209
  %5 = add i64 %0, 16, !insn.addr !210
  %6 = call i64 @_ZN4llvm5APIntC1ERKS0_(i64* nonnull %stack_var_-120, i64* %arg2), !insn.addr !211
  %7 = ptrtoint i64* %stack_var_-120 to i64, !insn.addr !212
  %8 = inttoptr i64 %5 to i64*, !insn.addr !213
  %9 = call i64 @_ZN4llvmorENS_5APIntERKS0_(i64* nonnull %stack_var_-104, i64 %7, i64* %8), !insn.addr !213
  %10 = ptrtoint i64* %stack_var_-104 to i64, !insn.addr !214
  %11 = call i64 @_ZN4llvmcoENS_5APIntE(i64* nonnull %stack_var_-136, i64 %10), !insn.addr !215
  %12 = call i64 @_ZN4llvm5APIntD1Ev(i64* nonnull %stack_var_-104), !insn.addr !216
  %13 = call i64 @_ZN4llvm5APIntD1Ev(i64* nonnull %stack_var_-120), !insn.addr !217
  %14 = call i64 @_ZN4llvm11SmallVectorIjLj8EEC1Ev(i64* nonnull %stack_var_-88), !insn.addr !218
  %15 = icmp eq i32 %4, 0, !insn.addr !219
  store i32 0, i32* %storemerge49.reg2mem, !insn.addr !220
  br i1 %15, label %dec_label_pc_c7e, label %dec_label_pc_c3d, !insn.addr !220

dec_label_pc_c3d:                                 ; preds = %dec_label_pc_b6c, %dec_label_pc_c69
  %storemerge49.reload = load i32, i32* %storemerge49.reg2mem
  %16 = call i64 @_ZNK4llvm5APIntixEj(i64* nonnull %stack_var_-136, i32 %storemerge49.reload), !insn.addr !221
  %17 = trunc i64 %16 to i8, !insn.addr !222
  %18 = icmp eq i8 %17, 0, !insn.addr !222
  br i1 %18, label %dec_label_pc_c69, label %dec_label_pc_c55, !insn.addr !223

dec_label_pc_c55:                                 ; preds = %dec_label_pc_c3d
  %19 = call i64 @_ZN4llvm23SmallVectorTemplateBaseIjLb1EE9push_backEj(i64* nonnull %stack_var_-88, i32 %storemerge49.reload), !insn.addr !224
  br label %dec_label_pc_c69, !insn.addr !224

dec_label_pc_c69:                                 ; preds = %dec_label_pc_c55, %dec_label_pc_c3d
  %20 = add nuw i32 %storemerge49.reload, 1, !insn.addr !225
  %exitcond11 = icmp eq i32 %20, %4
  store i32 %20, i32* %storemerge49.reg2mem, !insn.addr !220
  br i1 %exitcond11, label %dec_label_pc_c7e, label %dec_label_pc_c3d, !insn.addr !220

dec_label_pc_c7e:                                 ; preds = %dec_label_pc_c69, %dec_label_pc_b6c
  %21 = call i64 @_ZNK4llvm15SmallVectorBaseIjE4sizeEv(i64* nonnull %stack_var_-88), !insn.addr !226
  %22 = trunc i64 %21 to i32, !insn.addr !227
  %23 = icmp ult i32 %22, 63
  br i1 %23, label %dec_label_pc_c9d, label %dec_label_pc_dbb, !insn.addr !228

dec_label_pc_c9d:                                 ; preds = %dec_label_pc_c7e
  %24 = and i64 %21, and (i64 ptrtoint ([3 x i8]* @global_var_3f to i64), i64 255), !insn.addr !229
  %25 = shl i64 1, %24
  %26 = zext i32 %arg3 to i64, !insn.addr !230
  %27 = icmp ugt i64 %25, %26, !insn.addr !231
  br i1 %27, label %dec_label_pc_dbb, label %dec_label_pc_cca, !insn.addr !232

dec_label_pc_cca:                                 ; preds = %dec_label_pc_c9d
  %28 = call i64 @_ZN4llvm5APIntC1ERKS0_(i64* nonnull %stack_var_-120, i64* %8), !insn.addr !233
  %29 = icmp eq i32 %22, 0
  %wide.trip.count = and i64 %21, 4294967295
  store i64 0, i64* %storemerge17.reg2mem
  br label %dec_label_pc_cf4

dec_label_pc_cf4:                                 ; preds = %dec_label_pc_cca, %dec_label_pc_d6a
  %storemerge17.reload = load i64, i64* %storemerge17.reg2mem
  %30 = call i64 @_ZN4llvm5APIntC1ERKS0_(i64* nonnull %stack_var_-104, i64* nonnull %stack_var_-120), !insn.addr !234
  store i64 0, i64* %indvars.iv.reg2mem, !insn.addr !235
  br i1 %29, label %dec_label_pc_d6a, label %dec_label_pc_d13, !insn.addr !235

dec_label_pc_d13:                                 ; preds = %dec_label_pc_cf4, %dec_label_pc_d55
  %indvars.iv.reload = load i64, i64* %indvars.iv.reg2mem
  %31 = and i64 %indvars.iv.reload, and (i64 ptrtoint ([3 x i8]* @global_var_3f to i64), i64 255), !insn.addr !236
  %32 = shl i64 1, %31
  %33 = and i64 %32, %storemerge17.reload
  %34 = icmp eq i64 %33, 0, !insn.addr !237
  br i1 %34, label %dec_label_pc_d55, label %dec_label_pc_d30, !insn.addr !238

dec_label_pc_d30:                                 ; preds = %dec_label_pc_d13
  %35 = call i64 @_ZN4llvm25SmallVectorTemplateCommonIjvEixEm(i64* nonnull %stack_var_-88, i64 %indvars.iv.reload), !insn.addr !239
  %36 = inttoptr i64 %35 to i32*, !insn.addr !240
  %37 = load i32, i32* %36, align 4, !insn.addr !240
  %38 = call i64 @_ZN4llvm5APInt6setBitEj(i64* nonnull %stack_var_-104, i32 %37), !insn.addr !241
  br label %dec_label_pc_d55, !insn.addr !241

dec_label_pc_d55:                                 ; preds = %dec_label_pc_d30, %dec_label_pc_d13
  %indvars.iv.next = add nuw nsw i64 %indvars.iv.reload, 1
  %exitcond = icmp eq i64 %indvars.iv.next, %wide.trip.count
  store i64 %indvars.iv.next, i64* %indvars.iv.reg2mem, !insn.addr !235
  br i1 %exitcond, label %dec_label_pc_d6a, label %dec_label_pc_d13, !insn.addr !235

dec_label_pc_d6a:                                 ; preds = %dec_label_pc_d55, %dec_label_pc_cf4
  %39 = call i64 @_ZN4llvm23SmallVectorTemplateBaseINS_5APIntELb0EE9push_backERKS1_(i64* %result, i64* nonnull %stack_var_-104), !insn.addr !242
  %40 = call i64 @_ZN4llvm5APIntD1Ev(i64* nonnull %stack_var_-104), !insn.addr !243
  %41 = add nuw i64 %storemerge17.reload, 1, !insn.addr !244
  %42 = icmp ult i64 %41, %25, !insn.addr !245
  store i64 %41, i64* %storemerge17.reg2mem, !insn.addr !246
  br i1 %42, label %dec_label_pc_cf4, label %dec_label_pc_da8, !insn.addr !246

dec_label_pc_da8:                                 ; preds = %dec_label_pc_d6a
  %43 = call i64 @_ZN4llvm5APIntD1Ev(i64* nonnull %stack_var_-120), !insn.addr !247
  br label %dec_label_pc_dbb, !insn.addr !248

dec_label_pc_dbb:                                 ; preds = %dec_label_pc_c9d, %dec_label_pc_c7e, %dec_label_pc_da8
  %44 = call i64 @_ZN4llvm11SmallVectorIjLj8EED1Ev(i64* nonnull %stack_var_-88), !insn.addr !249
  %45 = call i64 @_ZN4llvm5APIntD1Ev(i64* nonnull %stack_var_-136), !insn.addr !250
  %46 = call i64 @__readfsqword(i64 40), !insn.addr !251
  %47 = icmp eq i64 %1, %46, !insn.addr !251
  br i1 %47, label %dec_label_pc_de7, label %dec_label_pc_de2, !insn.addr !252

dec_label_pc_de2:                                 ; preds = %dec_label_pc_dbb
  %48 = call i64 @__stack_chk_fail(), !insn.addr !253
  br label %dec_label_pc_de7, !insn.addr !253

dec_label_pc_de7:                                 ; preds = %dec_label_pc_de2, %dec_label_pc_dbb
  %49 = ptrtoint i64* %result to i64
  ret i64 %49, !insn.addr !254

; uselistorder directives
  uselistorder i32 %storemerge49.reload, { 2, 0, 1 }
  uselistorder i64* %stack_var_-120, { 0, 1, 2, 3, 5, 4 }
  uselistorder i64* %stack_var_-104, { 0, 1, 2, 3, 4, 6, 5 }
  uselistorder i32* %storemerge49.reg2mem, { 2, 0, 1 }
  uselistorder i64* %storemerge17.reg2mem, { 1, 0, 2 }
  uselistorder i64* %indvars.iv.reg2mem, { 2, 0, 1 }
  uselistorder i64* %result, { 2, 0, 1 }
  uselistorder label %dec_label_pc_dbb, { 2, 0, 1 }
  uselistorder label %dec_label_pc_d13, { 1, 0 }
  uselistorder label %dec_label_pc_cf4, { 1, 0 }
  uselistorder label %dec_label_pc_c3d, { 1, 0 }
}

define i64 @_ZN25deobfuscate_select_memory12_GLOBAL__N_116copyLoadMetadataEPN4llvm8LoadInstES3_(i64* %arg1, i64* %arg2) local_unnamed_addr {
dec_label_pc_df4:
  %rax.0.reg2mem = alloca i64, !insn.addr !255
  %stack_var_-168.01.reg2mem = alloca i64, !insn.addr !255
  %stack_var_-120 = alloca i64, align 8
  %0 = call i64 @__readfsqword(i64 40), !insn.addr !256
  %1 = call i64 @_ZNK4llvm8LoadInst8getAlignEv(i64* %arg1), !insn.addr !257
  %2 = and i64 %1, 4294967295, !insn.addr !258
  %3 = call i64 @_ZN4llvm8LoadInst12setAlignmentENS_5AlignE(i64* %arg2, i64 %2), !insn.addr !259
  %4 = call i64 @_ZN4llvm11SmallVectorISt4pairIjPNS_6MDNodeEELj4EEC1Ev(i64* nonnull %stack_var_-120), !insn.addr !260
  %5 = call i64 @_ZNK4llvm11Instruction14getAllMetadataERNS_15SmallVectorImplISt4pairIjPNS_6MDNodeEEEE(i64* %arg1, i64* nonnull %stack_var_-120), !insn.addr !261
  %6 = call i64 @_ZN4llvm25SmallVectorTemplateCommonISt4pairIjPNS_6MDNodeEEvE5beginEv(i64* nonnull %stack_var_-120), !insn.addr !262
  %7 = call i64 @_ZN4llvm25SmallVectorTemplateCommonISt4pairIjPNS_6MDNodeEEvE3endEv(i64* nonnull %stack_var_-120), !insn.addr !263
  %8 = icmp eq i64 %6, %7, !insn.addr !264
  %9 = icmp eq i1 %8, false, !insn.addr !265
  store i64 %6, i64* %stack_var_-168.01.reg2mem, !insn.addr !265
  br i1 %9, label %dec_label_pc_e9c, label %dec_label_pc_f06, !insn.addr !265

dec_label_pc_e9c:                                 ; preds = %dec_label_pc_df4, %dec_label_pc_e9c
  %stack_var_-168.01.reload = load i64, i64* %stack_var_-168.01.reg2mem
  %10 = inttoptr i64 %stack_var_-168.01.reload to i64*, !insn.addr !266
  %11 = call i64* @_ZSt3getILm0EjPN4llvm6MDNodeEERNSt13tuple_elementIXT_ESt4pairIT0_T1_EE4typeERS7_(i64* %10), !insn.addr !266
  %12 = call i64* @_ZSt3getILm1EjPN4llvm6MDNodeEERNSt13tuple_elementIXT_ESt4pairIT0_T1_EE4typeERS7_(i64* %10), !insn.addr !267
  %13 = load i64, i64* %12, align 8, !insn.addr !268
  %14 = bitcast i64* %11 to i32*, !insn.addr !269
  %15 = load i32, i32* %14, align 4, !insn.addr !269
  %16 = zext i32 %15 to i64, !insn.addr !269
  %17 = inttoptr i64 %16 to i64*, !insn.addr !270
  %18 = trunc i64 %13 to i32, !insn.addr !270
  %19 = call i64 @_ZN4llvm11Instruction11setMetadataEjPNS_6MDNodeE(i64* %arg2, i64* %17, i32 %18, i64* %17), !insn.addr !270
  %20 = add i64 %stack_var_-168.01.reload, 16, !insn.addr !271
  %21 = icmp eq i64 %20, %7, !insn.addr !264
  %22 = icmp eq i1 %21, false, !insn.addr !265
  store i64 %20, i64* %stack_var_-168.01.reg2mem, !insn.addr !265
  br i1 %22, label %dec_label_pc_e9c, label %dec_label_pc_f06, !insn.addr !265

dec_label_pc_f06:                                 ; preds = %dec_label_pc_e9c, %dec_label_pc_df4
  %23 = call i64 @_ZN4llvm11SmallVectorISt4pairIjPNS_6MDNodeEELj4EED1Ev(i64* nonnull %stack_var_-120), !insn.addr !272
  %24 = call i64 @__readfsqword(i64 40), !insn.addr !273
  %25 = icmp eq i64 %0, %24, !insn.addr !273
  store i64 0, i64* %rax.0.reg2mem, !insn.addr !274
  br i1 %25, label %dec_label_pc_f26, label %dec_label_pc_f21, !insn.addr !274

dec_label_pc_f21:                                 ; preds = %dec_label_pc_f06
  %26 = call i64 @__stack_chk_fail(), !insn.addr !275
  store i64 %26, i64* %rax.0.reg2mem, !insn.addr !275
  br label %dec_label_pc_f26, !insn.addr !275

dec_label_pc_f26:                                 ; preds = %dec_label_pc_f21, %dec_label_pc_f06
  %rax.0.reload = load i64, i64* %rax.0.reg2mem
  ret i64 %rax.0.reload, !insn.addr !276

; uselistorder directives
  uselistorder i64 %7, { 1, 0 }
  uselistorder i64* %stack_var_-168.01.reg2mem, { 2, 0, 1 }
  uselistorder label %dec_label_pc_e9c, { 1, 0 }
}

define i64 @_ZN25deobfuscate_select_memory12_GLOBAL__N_129tryTransformPointerSelectLoadEPN4llvm8LoadInstE(i64* %arg1) local_unnamed_addr {
dec_label_pc_f2c:
  %rax.0.reg2mem = alloca i64, !insn.addr !277
  %rbx.0.reg2mem = alloca i64, !insn.addr !277
  %stack_var_-248 = alloca i64, align 8
  %stack_var_-184 = alloca i64, align 8
  %stack_var_-232 = alloca i64, align 8
  %0 = call i64 @__readfsqword(i64 40), !insn.addr !278
  %1 = call i64 @_ZNK4llvm8LoadInst10isVolatileEv(i64* %arg1), !insn.addr !279
  %2 = trunc i64 %1 to i8, !insn.addr !280
  %3 = icmp eq i8 %2, 0, !insn.addr !280
  %4 = icmp eq i1 %3, false, !insn.addr !281
  store i64 0, i64* %rbx.0.reg2mem, !insn.addr !281
  br i1 %4, label %dec_label_pc_1232, label %dec_label_pc_f65, !insn.addr !281

dec_label_pc_f65:                                 ; preds = %dec_label_pc_f2c
  %5 = call i64 @_ZNK4llvm11Instruction8isAtomicEv(i64* %arg1), !insn.addr !282
  %6 = trunc i64 %5 to i8, !insn.addr !283
  %7 = icmp ne i8 %6, 0, !insn.addr !283
  %phitmp = icmp eq i1 %7, false
  store i64 0, i64* %rbx.0.reg2mem, !insn.addr !284
  br i1 %phitmp, label %dec_label_pc_f92, label %dec_label_pc_1232, !insn.addr !284

dec_label_pc_f92:                                 ; preds = %dec_label_pc_f65
  %8 = call i64 @_ZN4llvm8LoadInst17getPointerOperandEv(i64* %arg1), !insn.addr !285
  %9 = inttoptr i64 %8 to i64*, !insn.addr !286
  %10 = call i64 @_ZN4llvm5Value17stripPointerCastsEv(i64* %9), !insn.addr !286
  %11 = inttoptr i64 %10 to i64*, !insn.addr !287
  %12 = call i64 @_ZN4llvm8dyn_castINS_10SelectInstENS_5ValueEEEDcPT0_(i64* %11), !insn.addr !287
  %13 = icmp eq i64 %12, 0, !insn.addr !288
  %14 = icmp eq i1 %13, false, !insn.addr !289
  store i64 0, i64* %rbx.0.reg2mem, !insn.addr !289
  br i1 %14, label %dec_label_pc_fcc, label %dec_label_pc_1232, !insn.addr !289

dec_label_pc_fcc:                                 ; preds = %dec_label_pc_f92
  %15 = inttoptr i64 %12 to i64*, !insn.addr !290
  %16 = call i64 @_ZNK4llvm5Value7getTypeEv(i64* %15), !insn.addr !290
  %17 = inttoptr i64 %16 to i64*, !insn.addr !291
  %18 = call i64 @_ZNK4llvm4Type11isPointerTyEv(i64* %17), !insn.addr !291
  %19 = trunc i64 %18 to i8
  %20 = icmp eq i8 %19, 1, !insn.addr !292
  store i64 0, i64* %rbx.0.reg2mem, !insn.addr !293
  br i1 %20, label %dec_label_pc_ff4, label %dec_label_pc_1232, !insn.addr !293

dec_label_pc_ff4:                                 ; preds = %dec_label_pc_fcc
  store i64 0, i64* %stack_var_-232, align 8, !insn.addr !294
  %21 = call i64 @_ZN4llvm8ArrayRefINS_17OperandBundleDefTIPNS_5ValueEEEEC1Ev(i64* nonnull %stack_var_-232), !insn.addr !295
  %22 = load i64, i64* %stack_var_-232, align 8, !insn.addr !296
  %23 = inttoptr i64 %22 to i64*, !insn.addr !297
  %24 = call i64 @_ZN4llvm9IRBuilderINS_14ConstantFolderENS_24IRBuilderDefaultInserterEEC1EPNS_11InstructionEPNS_6MDNodeENS_8ArrayRefINS_17OperandBundleDefTIPNS_5ValueEEEEE(i64* nonnull %stack_var_-184, i64* %arg1, i64* null, i64* %23, i64 0), !insn.addr !297
  %25 = call i64 @_ZNK4llvm5Value7getNameEv(i64* %arg1), !insn.addr !298
  store i64 %25, i64* %stack_var_-248, align 8, !insn.addr !299
  %26 = call i64 @_ZN4llvmplERKNS_9StringRefEPKc(i64* nonnull %stack_var_-232, i64* nonnull %stack_var_-248, i8* getelementptr inbounds ([3 x i8], [3 x i8]* @global_var_a64e, i64 0, i64 0)), !insn.addr !300
  %27 = call i64 @_ZN4llvm10SelectInst12getTrueValueEv(i64* %15), !insn.addr !301
  %28 = call i64 @_ZNK4llvm5Value7getTypeEv(i64* %arg1), !insn.addr !302
  %29 = inttoptr i64 %28 to i64*, !insn.addr !303
  %30 = inttoptr i64 %27 to i64*, !insn.addr !303
  %31 = call i64 @_ZN4llvm13IRBuilderBase10CreateLoadEPNS_4TypeEPNS_5ValueERKNS_5TwineE(i64* nonnull %stack_var_-184, i64* %29, i64* %30, i64* nonnull %stack_var_-232), !insn.addr !303
  %32 = call i64 @_ZNK4llvm5Value7getNameEv(i64* %arg1), !insn.addr !304
  store i64 %32, i64* %stack_var_-248, align 8, !insn.addr !305
  %33 = call i64 @_ZN4llvmplERKNS_9StringRefEPKc(i64* nonnull %stack_var_-232, i64* nonnull %stack_var_-248, i8* getelementptr inbounds ([3 x i8], [3 x i8]* @global_var_a651, i64 0, i64 0)), !insn.addr !306
  %34 = call i64 @_ZN4llvm10SelectInst13getFalseValueEv(i64* %15), !insn.addr !307
  %35 = call i64 @_ZNK4llvm5Value7getTypeEv(i64* %arg1), !insn.addr !308
  %36 = inttoptr i64 %35 to i64*, !insn.addr !309
  %37 = inttoptr i64 %34 to i64*, !insn.addr !309
  %38 = call i64 @_ZN4llvm13IRBuilderBase10CreateLoadEPNS_4TypeEPNS_5ValueERKNS_5TwineE(i64* nonnull %stack_var_-184, i64* %36, i64* %37, i64* nonnull %stack_var_-232), !insn.addr !309
  %39 = inttoptr i64 %31 to i64*, !insn.addr !310
  %40 = call i64 @_ZN25deobfuscate_select_memory12_GLOBAL__N_116copyLoadMetadataEPN4llvm8LoadInstES3_(i64* %arg1, i64* %39), !insn.addr !310
  %41 = inttoptr i64 %38 to i64*, !insn.addr !311
  %42 = call i64 @_ZN25deobfuscate_select_memory12_GLOBAL__N_116copyLoadMetadataEPN4llvm8LoadInstES3_(i64* %arg1, i64* %41), !insn.addr !311
  %43 = call i64 @_ZNK4llvm5Value7getNameEv(i64* %arg1), !insn.addr !312
  store i64 %43, i64* %stack_var_-248, align 8, !insn.addr !313
  %44 = call i64 @_ZN4llvmplERKNS_9StringRefEPKc(i64* nonnull %stack_var_-232, i64* nonnull %stack_var_-248, i8* getelementptr inbounds ([5 x i8], [5 x i8]* @global_var_a654, i64 0, i64 0)), !insn.addr !314
  %45 = call i64 @_ZN4llvm10SelectInst12getConditionEv(i64* %15), !insn.addr !315
  %46 = inttoptr i64 %45 to i64*, !insn.addr !316
  %47 = call i64 @_ZN4llvm13IRBuilderBase12CreateSelectEPNS_5ValueES2_S2_RKNS_5TwineEPNS_11InstructionE(i64* nonnull %stack_var_-184, i64* %46, i64* %39, i64* %41, i64* nonnull %stack_var_-232, i64* null), !insn.addr !316
  %48 = inttoptr i64 %47 to i64*, !insn.addr !317
  %49 = call i64 @_ZN4llvm5Value18replaceAllUsesWithEPS0_(i64* %arg1, i64* %48), !insn.addr !317
  %50 = call i64 @_ZN4llvm9IRBuilderINS_14ConstantFolderENS_24IRBuilderDefaultInserterEED1Ev(i64* nonnull %stack_var_-184), !insn.addr !318
  store i64 1, i64* %rbx.0.reg2mem, !insn.addr !318
  br label %dec_label_pc_1232, !insn.addr !318

dec_label_pc_1232:                                ; preds = %dec_label_pc_f2c, %dec_label_pc_fcc, %dec_label_pc_f92, %dec_label_pc_f65, %dec_label_pc_ff4
  %rbx.0.reload = load i64, i64* %rbx.0.reg2mem
  %51 = call i64 @__readfsqword(i64 40), !insn.addr !319
  %52 = icmp eq i64 %0, %51, !insn.addr !319
  store i64 %rbx.0.reload, i64* %rax.0.reg2mem, !insn.addr !320
  br i1 %52, label %dec_label_pc_1248, label %dec_label_pc_1243, !insn.addr !320

dec_label_pc_1243:                                ; preds = %dec_label_pc_1232
  %53 = call i64 @__stack_chk_fail(), !insn.addr !321
  store i64 %53, i64* %rax.0.reg2mem, !insn.addr !321
  br label %dec_label_pc_1248, !insn.addr !321

dec_label_pc_1248:                                ; preds = %dec_label_pc_1243, %dec_label_pc_1232
  %rax.0.reload = load i64, i64* %rax.0.reg2mem
  ret i64 %rax.0.reload, !insn.addr !322

; uselistorder directives
  uselistorder i64* %stack_var_-232, { 0, 1, 2, 3, 4, 5, 7, 6, 8 }
  uselistorder i64* %stack_var_-248, { 0, 3, 1, 4, 2, 5 }
  uselistorder i64* %rbx.0.reg2mem, { 0, 5, 2, 3, 4, 1 }
  uselistorder i64 (i64*, i64*)* @_ZN25deobfuscate_select_memory12_GLOBAL__N_116copyLoadMetadataEPN4llvm8LoadInstES3_, { 1, 0 }
  uselistorder label %dec_label_pc_1232, { 4, 1, 2, 3, 0 }
}

define i64 @_ZN25deobfuscate_select_memory12_GLOBAL__N_116tryTransformLoadEPN4llvm8LoadInstERKNS1_10DataLayoutEPNS1_15AssumptionCacheEPKNS1_13DominatorTreeE(i64* %arg1, i64* %arg2, i64* %arg3, i64* %arg4) local_unnamed_addr {
dec_label_pc_124e:
  %0 = alloca i64
  %rax.0.reg2mem = alloca i64, !insn.addr !323
  %rbx.2.reg2mem = alloca i64, !insn.addr !323
  %rbx.1.reg2mem = alloca i64, !insn.addr !323
  %stack_var_-896.016.reg2mem = alloca i64, !insn.addr !323
  %stack_var_-904.017.reg2mem = alloca i64, !insn.addr !323
  %stack_var_-912.0.lcssa.reg2mem = alloca i64, !insn.addr !323
  %stack_var_-912.018.reg2mem = alloca i64, !insn.addr !323
  %storemerge619.reg2mem = alloca i32, !insn.addr !323
  %storemerge720.reg2mem = alloca i32, !insn.addr !323
  %stack_var_-920.021.reg2mem = alloca i64, !insn.addr !323
  %stack_var_-928.023.reg2mem = alloca i64, !insn.addr !323
  %storemerge24.reg2mem = alloca i32, !insn.addr !323
  %stack_var_-944.025.reg2mem = alloca i64, !insn.addr !323
  %storemerge926.reg2mem = alloca i64, !insn.addr !323
  %1 = ptrtoint i64* %arg4 to i64
  %stack_var_-248 = alloca i64, align 8
  %2 = load i64, i64* %0
  %stack_var_-648 = alloca i64, align 8
  %stack_var_-664 = alloca i64, align 8
  %stack_var_-488 = alloca i64, align 8
  %stack_var_-408 = alloca i64, align 8
  %stack_var_-552 = alloca i64, align 8
  %stack_var_-632 = alloca i64, align 8
  %stack_var_-600 = alloca i64, align 8
  %stack_var_-1000 = alloca i64, align 8
  store i64 %1, i64* %stack_var_-1000, align 8, !insn.addr !324
  %3 = call i64 @__readfsqword(i64 40), !insn.addr !325
  %4 = call i64 @_ZNK4llvm8LoadInst10isVolatileEv(i64* %arg1), !insn.addr !326
  %5 = trunc i64 %4 to i8, !insn.addr !327
  %6 = icmp eq i8 %5, 0, !insn.addr !327
  %7 = icmp eq i1 %6, false, !insn.addr !328
  store i64 0, i64* %rbx.2.reg2mem, !insn.addr !328
  br i1 %7, label %dec_label_pc_1edd, label %dec_label_pc_12bd, !insn.addr !328

dec_label_pc_12bd:                                ; preds = %dec_label_pc_124e
  %8 = call i64 @_ZNK4llvm11Instruction8isAtomicEv(i64* %arg1), !insn.addr !329
  %9 = trunc i64 %8 to i8, !insn.addr !330
  %10 = icmp ne i8 %9, 0, !insn.addr !330
  %11 = icmp eq i1 %10, false, !insn.addr !331
  store i64 0, i64* %rbx.2.reg2mem, !insn.addr !332
  br i1 %11, label %dec_label_pc_12cb, label %dec_label_pc_1edd, !insn.addr !332

dec_label_pc_12cb:                                ; preds = %dec_label_pc_12bd
  %12 = call i64 @_ZN25deobfuscate_select_memory12_GLOBAL__N_129tryTransformPointerSelectLoadEPN4llvm8LoadInstE(i64* %arg1), !insn.addr !333
  %13 = trunc i64 %12 to i8, !insn.addr !334
  %14 = icmp eq i8 %13, 0, !insn.addr !334
  store i64 1, i64* %rbx.2.reg2mem, !insn.addr !335
  br i1 %14, label %dec_label_pc_12e8, label %dec_label_pc_1edd, !insn.addr !335

dec_label_pc_12e8:                                ; preds = %dec_label_pc_12cb
  %15 = call i64 @_ZN4llvm8LoadInst17getPointerOperandEv(i64* %arg1), !insn.addr !336
  %16 = inttoptr i64 %15 to i64*, !insn.addr !337
  %17 = call i64 @_ZN4llvm8dyn_castINS_17GetElementPtrInstENS_5ValueEEEDcPT0_(i64* %16), !insn.addr !337
  %18 = icmp eq i64 %17, 0, !insn.addr !338
  store i64 0, i64* %rbx.2.reg2mem, !insn.addr !339
  br i1 %18, label %dec_label_pc_1edd, label %dec_label_pc_132f, !insn.addr !339

dec_label_pc_132f:                                ; preds = %dec_label_pc_12e8
  %19 = inttoptr i64 %17 to i64*
  %20 = call i64 @_ZNK4llvm17GetElementPtrInst21hasAllConstantIndicesEv(i64* %19), !insn.addr !340
  %21 = trunc i64 %20 to i8, !insn.addr !341
  %22 = icmp ne i8 %21, 0, !insn.addr !341
  %23 = icmp eq i1 %22, false, !insn.addr !342
  store i64 0, i64* %rbx.2.reg2mem, !insn.addr !343
  br i1 %23, label %dec_label_pc_133d, label %dec_label_pc_1edd, !insn.addr !343

dec_label_pc_133d:                                ; preds = %dec_label_pc_132f
  %24 = call i64 @_ZN4llvm17GetElementPtrInst9idx_beginEv(i64* %19), !insn.addr !344
  %25 = call i64 @_ZN4llvm17GetElementPtrInst7idx_endEv(i64* %19), !insn.addr !345
  %26 = icmp eq i64 %24, %25, !insn.addr !346
  %27 = icmp eq i1 %26, false, !insn.addr !347
  %28 = icmp eq i1 %27, false, !insn.addr !348
  %29 = icmp eq i1 %28, false, !insn.addr !349
  store i64 0, i64* %rbx.2.reg2mem, !insn.addr !349
  br i1 %29, label %dec_label_pc_136d.lr.ph, label %dec_label_pc_1edd, !insn.addr !349

dec_label_pc_136d.lr.ph:                          ; preds = %dec_label_pc_133d
  %30 = bitcast i64* %stack_var_-600 to i64**
  store i64 %24, i64* %storemerge926.reg2mem
  store i64 0, i64* %stack_var_-944.025.reg2mem
  br label %dec_label_pc_136d

dec_label_pc_136d:                                ; preds = %dec_label_pc_136d.lr.ph, %dec_label_pc_13ad
  %stack_var_-944.025.reload = load i64, i64* %stack_var_-944.025.reg2mem
  %storemerge926.reload = load i64, i64* %storemerge926.reg2mem
  %31 = inttoptr i64 %storemerge926.reload to i64*, !insn.addr !350
  %32 = call i64 @_ZNK4llvm3Use3getEv(i64* %31), !insn.addr !350
  store i64 %32, i64* %stack_var_-600, align 8, !insn.addr !351
  %33 = call i1 @_ZN4llvm3isaINS_11ConstantIntEPNS_5ValueEEEbRKT0_(i64** nonnull %30), !insn.addr !352
  %34 = icmp eq i64 %stack_var_-944.025.reload, 0, !insn.addr !353
  store i64 0, i64* %rbx.2.reg2mem, !insn.addr !354
  br i1 %34, label %dec_label_pc_13ad, label %dec_label_pc_1edd, !insn.addr !354

dec_label_pc_13ad:                                ; preds = %dec_label_pc_136d
  %35 = call i64 @_ZNK4llvm3Use3getEv(i64* %31), !insn.addr !355
  %36 = call i64 @_ZN4llvm17GetElementPtrInst9idx_beginEv(i64* %19), !insn.addr !356
  %37 = add i64 %storemerge926.reload, 32, !insn.addr !357
  %38 = call i64 @_ZN4llvm17GetElementPtrInst7idx_endEv(i64* %19), !insn.addr !345
  %39 = icmp eq i64 %37, %38, !insn.addr !346
  %40 = icmp eq i1 %39, false, !insn.addr !347
  %41 = icmp eq i1 %40, false, !insn.addr !348
  %42 = icmp eq i1 %41, false, !insn.addr !349
  store i64 %37, i64* %storemerge926.reg2mem, !insn.addr !349
  store i64 %35, i64* %stack_var_-944.025.reg2mem, !insn.addr !349
  br i1 %42, label %dec_label_pc_136d, label %dec_label_pc_1415, !insn.addr !349

dec_label_pc_1415:                                ; preds = %dec_label_pc_13ad
  %43 = icmp eq i64 %35, 0, !insn.addr !358
  store i64 0, i64* %rbx.2.reg2mem, !insn.addr !359
  br i1 %43, label %dec_label_pc_1edd, label %dec_label_pc_141f, !insn.addr !359

dec_label_pc_141f:                                ; preds = %dec_label_pc_1415
  %44 = inttoptr i64 %35 to i64*, !insn.addr !360
  %45 = call i64 @_ZNK4llvm5Value7getTypeEv(i64* %44), !insn.addr !360
  %46 = inttoptr i64 %45 to i64*, !insn.addr !361
  %47 = call i64 @_ZNK4llvm4Type11isIntegerTyEv(i64* %46), !insn.addr !361
  %48 = trunc i64 %47 to i8
  %49 = icmp ne i8 %48, 1, !insn.addr !362
  %phitmp = icmp eq i1 %49, false
  store i64 0, i64* %rbx.2.reg2mem, !insn.addr !363
  br i1 %phitmp, label %dec_label_pc_1457, label %dec_label_pc_1edd, !insn.addr !363

dec_label_pc_1457:                                ; preds = %dec_label_pc_141f
  %50 = load i64, i64* %stack_var_-1000, align 8, !insn.addr !364
  %51 = inttoptr i64 %50 to i64*, !insn.addr !365
  %52 = call i64 @_ZN4llvm16computeKnownBitsEPKNS_5ValueERKNS_10DataLayoutEPNS_15AssumptionCacheEPKNS_11InstructionEPKNS_13DominatorTreeEbj(i64* nonnull %stack_var_-632, i64* %44, i64* %arg2, i64* %arg3, i64* %arg1, i64* %51, i1 true, i32 0), !insn.addr !365
  %53 = call i64 @_ZN25deobfuscate_select_memory12_GLOBAL__N_123enumeratePossibleValuesERKN4llvm9KnownBitsEj(i64* nonnull %stack_var_-552, i64* nonnull %stack_var_-632, i32 8), !insn.addr !366
  %54 = call i64 @_ZNK4llvm15SmallVectorBaseIjE5emptyEv(i64* nonnull %stack_var_-552), !insn.addr !367
  %55 = trunc i64 %54 to i8, !insn.addr !368
  %56 = icmp eq i8 %55, 0, !insn.addr !368
  store i64 0, i64* %rbx.1.reg2mem, !insn.addr !369
  br i1 %56, label %dec_label_pc_14d2, label %dec_label_pc_1ebf, !insn.addr !369

dec_label_pc_14d2:                                ; preds = %dec_label_pc_1457
  %57 = call i64 @_ZN25deobfuscate_select_memory12_GLOBAL__N_125dependsOnSelfRecurrentPhiEPN4llvm5ValueE(i64* %44), !insn.addr !370
  %58 = trunc i64 %57 to i8, !insn.addr !371
  %59 = icmp eq i8 %58, 0, !insn.addr !371
  store i64 0, i64* %rbx.1.reg2mem, !insn.addr !372
  br i1 %59, label %dec_label_pc_14ef, label %dec_label_pc_1ebf, !insn.addr !372

dec_label_pc_14ef:                                ; preds = %dec_label_pc_14d2
  %60 = sub i64 %storemerge926.reload, %36, !insn.addr !373
  %61 = udiv i64 %60, 32
  %62 = trunc i64 %61 to i32, !insn.addr !374
  %63 = add i32 %62, 1, !insn.addr !374
  store i64 0, i64* %stack_var_-600, align 8, !insn.addr !375
  %64 = call i64 @_ZN4llvm8ArrayRefINS_17OperandBundleDefTIPNS_5ValueEEEEC1Ev(i64* nonnull %stack_var_-600), !insn.addr !376
  %65 = load i64, i64* %stack_var_-600, align 8, !insn.addr !377
  %66 = inttoptr i64 %65 to i64*, !insn.addr !378
  %67 = call i64 @_ZN4llvm9IRBuilderINS_14ConstantFolderENS_24IRBuilderDefaultInserterEEC1EPNS_11InstructionEPNS_6MDNodeENS_8ArrayRefINS_17OperandBundleDefTIPNS_5ValueEEEEE(i64* nonnull %stack_var_-408, i64* %arg1, i64* null, i64* %66, i64 0), !insn.addr !378
  %68 = call i64 @_ZNK4llvm15SmallVectorBaseIjE4sizeEv(i64* nonnull %stack_var_-552), !insn.addr !379
  %69 = icmp eq i64 %68, 1, !insn.addr !380
  %70 = icmp eq i1 %69, false, !insn.addr !381
  br i1 %70, label %dec_label_pc_18e1, label %dec_label_pc_1561, !insn.addr !382

dec_label_pc_1561:                                ; preds = %dec_label_pc_14ef
  %71 = call i64 @_ZN4llvm11SmallVectorIPNS_5ValueELj4EEC1Ev(i64* nonnull %stack_var_-488), !insn.addr !383
  %72 = call i64 @_ZNK4llvm17GetElementPtrInst14getNumOperandsEv(i64* %19), !insn.addr !384
  %73 = trunc i64 %72 to i32, !insn.addr !385
  %74 = icmp ugt i32 %73, 1, !insn.addr !385
  %75 = icmp eq i1 %74, false, !insn.addr !386
  %76 = icmp eq i1 %75, false, !insn.addr !387
  store i32 1, i32* %storemerge24.reg2mem, !insn.addr !387
  br i1 %76, label %dec_label_pc_157f, label %dec_label_pc_1628, !insn.addr !387

dec_label_pc_157f:                                ; preds = %dec_label_pc_1561, %dec_label_pc_1601
  %storemerge24.reload = load i32, i32* %storemerge24.reg2mem
  %77 = icmp eq i32 %storemerge24.reload, %63, !insn.addr !388
  %78 = icmp eq i1 %77, false, !insn.addr !389
  br i1 %78, label %dec_label_pc_15d5, label %dec_label_pc_158d, !insn.addr !389

dec_label_pc_158d:                                ; preds = %dec_label_pc_157f
  %79 = call i64 @_ZN4llvm25SmallVectorTemplateCommonINS_5APIntEvEixEm(i64* nonnull %stack_var_-552, i64 0), !insn.addr !390
  %80 = call i64 @_ZNK4llvm5Value7getTypeEv(i64* %44), !insn.addr !391
  %81 = inttoptr i64 %80 to i64*, !insn.addr !392
  %82 = inttoptr i64 %79 to i64*, !insn.addr !392
  %83 = call i64 @_ZN4llvm11ConstantInt3getEPNS_4TypeERKNS_5APIntE(i64* %81, i64* %82), !insn.addr !392
  %84 = inttoptr i64 %83 to i64*, !insn.addr !393
  %85 = call i64 @_ZN4llvm23SmallVectorTemplateBaseIPNS_5ValueELb1EE9push_backES2_(i64* nonnull %stack_var_-488, i64* %84), !insn.addr !393
  br label %dec_label_pc_1601, !insn.addr !394

dec_label_pc_15d5:                                ; preds = %dec_label_pc_157f
  %86 = call i64 @_ZNK4llvm17GetElementPtrInst10getOperandEj(i64* %19, i32 %storemerge24.reload), !insn.addr !395
  %87 = inttoptr i64 %86 to i64*, !insn.addr !396
  %88 = call i64 @_ZN4llvm23SmallVectorTemplateBaseIPNS_5ValueELb1EE9push_backES2_(i64* nonnull %stack_var_-488, i64* %87), !insn.addr !396
  br label %dec_label_pc_1601, !insn.addr !396

dec_label_pc_1601:                                ; preds = %dec_label_pc_15d5, %dec_label_pc_158d
  %89 = add i32 %storemerge24.reload, 1, !insn.addr !397
  %90 = call i64 @_ZNK4llvm17GetElementPtrInst14getNumOperandsEv(i64* %19), !insn.addr !384
  %91 = trunc i64 %90 to i32, !insn.addr !385
  %92 = icmp ult i32 %89, %91, !insn.addr !385
  %93 = icmp eq i1 %92, false, !insn.addr !386
  %94 = icmp eq i1 %93, false, !insn.addr !387
  store i32 %89, i32* %storemerge24.reg2mem, !insn.addr !387
  br i1 %94, label %dec_label_pc_157f, label %dec_label_pc_1628, !insn.addr !387

dec_label_pc_1628:                                ; preds = %dec_label_pc_1601, %dec_label_pc_1561
  %95 = call i64 @_ZN4llvm14GEPNoWrapFlags4noneEv(), !insn.addr !398
  %96 = call i64 @_ZNK4llvm5Value7getNameEv(i64* %19), !insn.addr !399
  store i64 %96, i64* %stack_var_-664, align 8, !insn.addr !400
  %97 = call i64 @_ZN4llvmplERKNS_9StringRefEPKc(i64* nonnull %stack_var_-600, i64* nonnull %stack_var_-664, i8* getelementptr inbounds ([10 x i8], [10 x i8]* @global_var_a6ff, i64 0, i64 0)), !insn.addr !401
  %98 = call i64 @_ZN4llvm8ArrayRefIPNS_5ValueEEC1INS_11SmallVectorIS2_Lj4EEEvEERKT_(i64* nonnull %stack_var_-648, i64* nonnull %stack_var_-488), !insn.addr !402
  %99 = call i64 @_ZN4llvm17GetElementPtrInst17getPointerOperandEv(i64* %19), !insn.addr !403
  %100 = call i64 @_ZNK4llvm17GetElementPtrInst20getSourceElementTypeEv(i64* %19), !insn.addr !404
  %101 = load i64, i64* %stack_var_-648, align 8, !insn.addr !405
  %102 = urem i64 %95, 2
  %103 = icmp ne i64 %102, 0, !insn.addr !406
  %104 = inttoptr i64 %100 to i64*, !insn.addr !407
  %105 = inttoptr i64 %99 to i64*, !insn.addr !407
  %106 = inttoptr i64 %101 to i64*, !insn.addr !407
  %107 = sext i1 %103 to i64, !insn.addr !407
  %108 = call i64 @_ZN4llvm13IRBuilderBase9CreateGEPEPNS_4TypeEPNS_5ValueENS_8ArrayRefIS4_EERKNS_5TwineENS_14GEPNoWrapFlagsE(i64* nonnull %stack_var_-408, i64* %104, i64* %105, i64* %106, i64 %2, i64* nonnull %stack_var_-600, i64 %107), !insn.addr !407
  %109 = inttoptr i64 %108 to i64*, !insn.addr !408
  %110 = call i64 @_ZN4llvm8dyn_castINS_17GetElementPtrInstENS_5ValueEEEDcPT0_(i64* %109), !insn.addr !408
  %111 = icmp eq i64 %110, 0, !insn.addr !409
  br i1 %111, label %dec_label_pc_172c, label %dec_label_pc_1709, !insn.addr !410

dec_label_pc_1709:                                ; preds = %dec_label_pc_1628
  %112 = call i64 @_ZNK4llvm17GetElementPtrInst10isInBoundsEv(i64* %19), !insn.addr !411
  %113 = urem i64 %112, 2
  %114 = icmp ne i64 %113, 0, !insn.addr !412
  %115 = inttoptr i64 %110 to i64*, !insn.addr !413
  %116 = call i64 @_ZN4llvm17GetElementPtrInst13setIsInBoundsEb(i64* %115, i1 %114), !insn.addr !413
  br label %dec_label_pc_172c, !insn.addr !413

dec_label_pc_172c:                                ; preds = %dec_label_pc_1709, %dec_label_pc_1628
  %117 = call i64 @_ZNK4llvm5Value7getNameEv(i64* %arg1), !insn.addr !414
  store i64 %117, i64* %stack_var_-648, align 8, !insn.addr !415
  %118 = call i64 @_ZN4llvmplERKNS_9StringRefEPKc(i64* nonnull %stack_var_-600, i64* nonnull %stack_var_-648, i8* getelementptr inbounds ([5 x i8], [5 x i8]* @global_var_a654, i64 0, i64 0)), !insn.addr !416
  %119 = call i64 @_ZNK4llvm5Value7getTypeEv(i64* %arg1), !insn.addr !417
  %120 = inttoptr i64 %119 to i64*, !insn.addr !418
  %121 = call i64 @_ZN4llvm13IRBuilderBase10CreateLoadEPNS_4TypeEPNS_5ValueERKNS_5TwineE(i64* nonnull %stack_var_-408, i64* %120, i64* %109, i64* nonnull %stack_var_-600), !insn.addr !418
  %122 = call i64 @_ZN4llvm11SmallVectorISt4pairIjPNS_6MDNodeEELj4EEC1Ev(i64* nonnull %stack_var_-248), !insn.addr !419
  %123 = call i64 @_ZNK4llvm11Instruction14getAllMetadataERNS_15SmallVectorImplISt4pairIjPNS_6MDNodeEEEE(i64* %arg1, i64* nonnull %stack_var_-248), !insn.addr !420
  %124 = call i64 @_ZN4llvm25SmallVectorTemplateCommonISt4pairIjPNS_6MDNodeEEvE5beginEv(i64* nonnull %stack_var_-248), !insn.addr !421
  %125 = call i64 @_ZN4llvm25SmallVectorTemplateCommonISt4pairIjPNS_6MDNodeEEvE3endEv(i64* nonnull %stack_var_-248), !insn.addr !422
  %126 = icmp eq i64 %124, %125, !insn.addr !423
  %127 = icmp eq i1 %126, false, !insn.addr !424
  %128 = inttoptr i64 %121 to i64*
  store i64 %124, i64* %stack_var_-928.023.reg2mem, !insn.addr !424
  br i1 %127, label %dec_label_pc_1806, label %dec_label_pc_18a0, !insn.addr !424

dec_label_pc_1806:                                ; preds = %dec_label_pc_172c, %dec_label_pc_1884
  %stack_var_-928.023.reload = load i64, i64* %stack_var_-928.023.reg2mem
  %129 = inttoptr i64 %stack_var_-928.023.reload to i64*, !insn.addr !425
  %130 = call i64* @_ZSt3getILm0EjPN4llvm6MDNodeEERNSt13tuple_elementIXT_ESt4pairIT0_T1_EE4typeERS7_(i64* %129), !insn.addr !425
  %131 = call i64* @_ZSt3getILm1EjPN4llvm6MDNodeEERNSt13tuple_elementIXT_ESt4pairIT0_T1_EE4typeERS7_(i64* %129), !insn.addr !426
  %132 = call i64 @_ZN4llvm8dyn_castINS_8LoadInstES1_EEDcPT0_(i64* %128), !insn.addr !427
  %133 = icmp eq i64 %132, 0, !insn.addr !428
  br i1 %133, label %dec_label_pc_1884, label %dec_label_pc_1860, !insn.addr !429

dec_label_pc_1860:                                ; preds = %dec_label_pc_1806
  %134 = bitcast i64* %130 to i32*
  %135 = load i64, i64* %131, align 8, !insn.addr !430
  %136 = load i32, i32* %134, align 4, !insn.addr !431
  %137 = zext i32 %136 to i64, !insn.addr !431
  %138 = inttoptr i64 %132 to i64*, !insn.addr !432
  %139 = inttoptr i64 %137 to i64*, !insn.addr !432
  %140 = trunc i64 %135 to i32, !insn.addr !432
  %141 = call i64 @_ZN4llvm11Instruction11setMetadataEjPNS_6MDNodeE(i64* %138, i64* %139, i32 %140, i64* %139), !insn.addr !432
  br label %dec_label_pc_1884, !insn.addr !432

dec_label_pc_1884:                                ; preds = %dec_label_pc_1860, %dec_label_pc_1806
  %142 = add i64 %stack_var_-928.023.reload, 16, !insn.addr !433
  %143 = icmp eq i64 %142, %125, !insn.addr !423
  %144 = icmp eq i1 %143, false, !insn.addr !424
  store i64 %142, i64* %stack_var_-928.023.reg2mem, !insn.addr !424
  br i1 %144, label %dec_label_pc_1806, label %dec_label_pc_18a0, !insn.addr !424

dec_label_pc_18a0:                                ; preds = %dec_label_pc_1884, %dec_label_pc_172c
  %145 = call i64 @_ZN4llvm5Value18replaceAllUsesWithEPS0_(i64* %arg1, i64* %128), !insn.addr !434
  %146 = call i64 @_ZN4llvm11SmallVectorISt4pairIjPNS_6MDNodeEELj4EED1Ev(i64* nonnull %stack_var_-248), !insn.addr !435
  %147 = call i64 @_ZN4llvm11SmallVectorIPNS_5ValueELj4EED1Ev(i64* nonnull %stack_var_-488), !insn.addr !436
  br label %dec_label_pc_1eb0, !insn.addr !437

dec_label_pc_18e1:                                ; preds = %dec_label_pc_14ef
  %148 = call i64 @_ZN4llvm11SmallVectorISt4pairINS_5APIntEPNS_5ValueEELj8EEC1Ev(i64* nonnull %stack_var_-248), !insn.addr !438
  %149 = call i64 @_ZN4llvm25SmallVectorTemplateCommonINS_5APIntEvE5beginEv(i64* nonnull %stack_var_-552), !insn.addr !439
  %150 = call i64 @_ZN4llvm25SmallVectorTemplateCommonINS_5APIntEvE3endEv(i64* nonnull %stack_var_-552), !insn.addr !440
  %151 = icmp eq i64 %149, %150, !insn.addr !441
  %152 = icmp eq i1 %151, false, !insn.addr !442
  br i1 %152, label %dec_label_pc_192f.lr.ph, label %dec_label_pc_1ba1, !insn.addr !442

dec_label_pc_192f.lr.ph:                          ; preds = %dec_label_pc_18e1
  %153 = ptrtoint i64* %stack_var_-1000 to i64, !insn.addr !443
  %154 = add i64 %153, -16
  %155 = inttoptr i64 %154 to i64*
  %156 = bitcast i64* %stack_var_-648 to i64***
  store i64 %149, i64* %stack_var_-920.021.reg2mem
  br label %dec_label_pc_192f

dec_label_pc_192f:                                ; preds = %dec_label_pc_192f.lr.ph, %dec_label_pc_1af8
  %stack_var_-920.021.reload = load i64, i64* %stack_var_-920.021.reg2mem
  %157 = call i64 @_ZN4llvm11SmallVectorIPNS_5ValueELj4EEC1Ev(i64* nonnull %stack_var_-488), !insn.addr !444
  %158 = call i64 @_ZNK4llvm17GetElementPtrInst14getNumOperandsEv(i64* %19), !insn.addr !445
  %159 = trunc i64 %158 to i32, !insn.addr !446
  %160 = icmp ugt i32 %159, 1, !insn.addr !446
  %161 = icmp eq i1 %160, false, !insn.addr !447
  %162 = icmp eq i1 %161, false, !insn.addr !448
  br i1 %162, label %dec_label_pc_1958.lr.ph, label %dec_label_pc_19f4, !insn.addr !448

dec_label_pc_1958.lr.ph:                          ; preds = %dec_label_pc_192f
  %163 = inttoptr i64 %stack_var_-920.021.reload to i64*
  store i32 1, i32* %storemerge720.reg2mem
  br label %dec_label_pc_1958

dec_label_pc_1958:                                ; preds = %dec_label_pc_1958.lr.ph, %dec_label_pc_19cd
  %storemerge720.reload = load i32, i32* %storemerge720.reg2mem
  %164 = icmp eq i32 %storemerge720.reload, %63, !insn.addr !449
  %165 = icmp eq i1 %164, false, !insn.addr !450
  br i1 %165, label %dec_label_pc_19a1, label %dec_label_pc_1966, !insn.addr !450

dec_label_pc_1966:                                ; preds = %dec_label_pc_1958
  %166 = call i64 @_ZNK4llvm5Value7getTypeEv(i64* %44), !insn.addr !451
  %167 = inttoptr i64 %166 to i64*, !insn.addr !452
  %168 = call i64 @_ZN4llvm11ConstantInt3getEPNS_4TypeERKNS_5APIntE(i64* %167, i64* %163), !insn.addr !452
  %169 = inttoptr i64 %168 to i64*, !insn.addr !453
  %170 = call i64 @_ZN4llvm23SmallVectorTemplateBaseIPNS_5ValueELb1EE9push_backES2_(i64* nonnull %stack_var_-488, i64* %169), !insn.addr !453
  br label %dec_label_pc_19cd, !insn.addr !454

dec_label_pc_19a1:                                ; preds = %dec_label_pc_1958
  %171 = call i64 @_ZNK4llvm17GetElementPtrInst10getOperandEj(i64* %19, i32 %storemerge720.reload), !insn.addr !455
  %172 = inttoptr i64 %171 to i64*, !insn.addr !456
  %173 = call i64 @_ZN4llvm23SmallVectorTemplateBaseIPNS_5ValueELb1EE9push_backES2_(i64* nonnull %stack_var_-488, i64* %172), !insn.addr !456
  br label %dec_label_pc_19cd, !insn.addr !456

dec_label_pc_19cd:                                ; preds = %dec_label_pc_19a1, %dec_label_pc_1966
  %174 = add i32 %storemerge720.reload, 1, !insn.addr !457
  %175 = call i64 @_ZNK4llvm17GetElementPtrInst14getNumOperandsEv(i64* %19), !insn.addr !445
  %176 = trunc i64 %175 to i32, !insn.addr !446
  %177 = icmp ult i32 %174, %176, !insn.addr !446
  %178 = icmp eq i1 %177, false, !insn.addr !447
  %179 = icmp eq i1 %178, false, !insn.addr !448
  store i32 %174, i32* %storemerge720.reg2mem, !insn.addr !448
  br i1 %179, label %dec_label_pc_1958, label %dec_label_pc_19f4, !insn.addr !448

dec_label_pc_19f4:                                ; preds = %dec_label_pc_19cd, %dec_label_pc_192f
  %180 = call i64 @_ZN4llvm14GEPNoWrapFlags4noneEv(), !insn.addr !458
  %181 = and i64 %180, 4294967295, !insn.addr !459
  %182 = call i64 @_ZNK4llvm5Value7getNameEv(i64* %19), !insn.addr !460
  store i64 %182, i64* %stack_var_-664, align 8, !insn.addr !461
  %183 = call i64 @_ZN4llvmplERKNS_9StringRefEPKc(i64* nonnull %stack_var_-600, i64* nonnull %stack_var_-664, i8* getelementptr inbounds ([5 x i8], [5 x i8]* @global_var_a709, i64 0, i64 0)), !insn.addr !462
  %184 = call i64 @_ZN4llvm8ArrayRefIPNS_5ValueEEC1INS_11SmallVectorIS2_Lj4EEEvEERKT_(i64* nonnull %stack_var_-648, i64* nonnull %stack_var_-488), !insn.addr !463
  %185 = call i64 @_ZN4llvm17GetElementPtrInst17getPointerOperandEv(i64* %19), !insn.addr !464
  %186 = call i64 @_ZNK4llvm17GetElementPtrInst20getSourceElementTypeEv(i64* %19), !insn.addr !465
  %187 = load i64, i64* %stack_var_-648, align 8, !insn.addr !466
  store i64 %181, i64* %155, align 8, !insn.addr !467
  %188 = inttoptr i64 %186 to i64*, !insn.addr !468
  %189 = inttoptr i64 %185 to i64*, !insn.addr !468
  %190 = inttoptr i64 %187 to i64*, !insn.addr !468
  %191 = call i64 @_ZN4llvm13IRBuilderBase9CreateGEPEPNS_4TypeEPNS_5ValueENS_8ArrayRefIS4_EERKNS_5TwineENS_14GEPNoWrapFlagsE(i64* nonnull %stack_var_-408, i64* %188, i64* %189, i64* %190, i64 %2, i64* nonnull %stack_var_-600, i64 ptrtoint (i32* @0 to i64)), !insn.addr !468
  %192 = inttoptr i64 %191 to i64*, !insn.addr !469
  %193 = call i64 @_ZN4llvm8dyn_castINS_17GetElementPtrInstENS_5ValueEEEDcPT0_(i64* %192), !insn.addr !469
  %194 = icmp eq i64 %193, 0, !insn.addr !470
  br i1 %194, label %dec_label_pc_1af8, label %dec_label_pc_1ad5, !insn.addr !471

dec_label_pc_1ad5:                                ; preds = %dec_label_pc_19f4
  %195 = call i64 @_ZNK4llvm17GetElementPtrInst10isInBoundsEv(i64* %19), !insn.addr !472
  %196 = urem i64 %195, 2
  %197 = icmp ne i64 %196, 0, !insn.addr !473
  %198 = inttoptr i64 %193 to i64*, !insn.addr !474
  %199 = call i64 @_ZN4llvm17GetElementPtrInst13setIsInBoundsEb(i64* %198, i1 %197), !insn.addr !474
  br label %dec_label_pc_1af8, !insn.addr !474

dec_label_pc_1af8:                                ; preds = %dec_label_pc_1ad5, %dec_label_pc_19f4
  %200 = inttoptr i64 %stack_var_-920.021.reload to i64**, !insn.addr !475
  %201 = call i64 @_ZNK4llvm5Value7getTypeEv(i64* %arg1), !insn.addr !476
  %202 = inttoptr i64 %201 to i64*, !insn.addr !477
  %203 = call i64 @_ZN4llvm13IRBuilderBase10CreateLoadEPNS_4TypeEPNS_5ValueEPKc(i64* nonnull %stack_var_-408, i64* %202, i64* %192, i8* getelementptr inbounds ([4 x i8], [4 x i8]* @global_var_a70e, i64 0, i64 0)), !insn.addr !477
  store i64 %203, i64* %stack_var_-648, align 8, !insn.addr !478
  %204 = call i64 @_ZNSt4pairIN4llvm5APIntEPNS0_5ValueEEC1IRS1_RPNS0_8LoadInstELb1EEEOT_OT0_(i64* nonnull %stack_var_-600, i64** %200, i64*** nonnull %156), !insn.addr !479
  %205 = call i64 @_ZN4llvm23SmallVectorTemplateBaseISt4pairINS_5APIntEPNS_5ValueEELb0EE9push_backEOS5_(i64* nonnull %stack_var_-248, i64* nonnull %stack_var_-600), !insn.addr !480
  %206 = call i64 @_ZNSt4pairIN4llvm5APIntEPNS0_5ValueEED1Ev(i64* nonnull %stack_var_-600), !insn.addr !481
  %207 = call i64 @_ZN4llvm11SmallVectorIPNS_5ValueELj4EED1Ev(i64* nonnull %stack_var_-488), !insn.addr !482
  %208 = add i64 %stack_var_-920.021.reload, 16, !insn.addr !483
  %209 = icmp eq i64 %208, %150, !insn.addr !441
  %210 = icmp eq i1 %209, false, !insn.addr !442
  store i64 %208, i64* %stack_var_-920.021.reg2mem, !insn.addr !442
  br i1 %210, label %dec_label_pc_192f, label %dec_label_pc_1ba1, !insn.addr !442

dec_label_pc_1ba1:                                ; preds = %dec_label_pc_1af8, %dec_label_pc_18e1
  %211 = call i64 @_ZN4llvm25SmallVectorTemplateCommonISt4pairINS_5APIntEPNS_5ValueEEvE4backEv(i64* nonnull %stack_var_-248), !insn.addr !484
  %212 = add i64 %211, 16, !insn.addr !485
  %213 = inttoptr i64 %212 to i64*, !insn.addr !485
  %214 = load i64, i64* %213, align 8, !insn.addr !485
  %215 = call i64 @_ZNK4llvm15SmallVectorBaseIjE4sizeEv(i64* nonnull %stack_var_-248), !insn.addr !486
  %216 = trunc i64 %215 to i32, !insn.addr !487
  %217 = add i32 %216, -2, !insn.addr !487
  %218 = icmp slt i32 %217, 0, !insn.addr !488
  %219 = icmp eq i1 %218, false, !insn.addr !489
  store i32 %217, i32* %storemerge619.reg2mem, !insn.addr !489
  store i64 %214, i64* %stack_var_-912.018.reg2mem, !insn.addr !489
  store i64 %214, i64* %stack_var_-912.0.lcssa.reg2mem, !insn.addr !489
  br i1 %219, label %dec_label_pc_1bd8, label %dec_label_pc_1cdb, !insn.addr !489

dec_label_pc_1bd8:                                ; preds = %dec_label_pc_1ba1, %dec_label_pc_1bd8
  %stack_var_-912.018.reload = load i64, i64* %stack_var_-912.018.reg2mem
  %storemerge619.reload = load i32, i32* %storemerge619.reg2mem
  %220 = sext i32 %storemerge619.reload to i64, !insn.addr !490
  %221 = call i64 @_ZN4llvm25SmallVectorTemplateCommonISt4pairINS_5APIntEPNS_5ValueEEvEixEm(i64* nonnull %stack_var_-248, i64 %220), !insn.addr !491
  %222 = call i64 @_ZNK4llvm5Value7getTypeEv(i64* %44), !insn.addr !492
  %223 = inttoptr i64 %222 to i64*, !insn.addr !493
  %224 = inttoptr i64 %221 to i64*, !insn.addr !493
  %225 = call i64 @_ZN4llvm11ConstantInt3getEPNS_4TypeERKNS_5APIntE(i64* %223, i64* %224), !insn.addr !493
  %226 = call i64 @_ZN4llvm5TwineC1EPKc(i64* nonnull %stack_var_-600, i8* getelementptr inbounds ([8 x i8], [8 x i8]* @global_var_a712, i64 0, i64 0)), !insn.addr !494
  %227 = inttoptr i64 %225 to i64*, !insn.addr !495
  %228 = call i64 @_ZN4llvm13IRBuilderBase12CreateICmpEQEPNS_5ValueES2_RKNS_5TwineE(i64* nonnull %stack_var_-408, i64* %44, i64* %227, i64* nonnull %stack_var_-600), !insn.addr !495
  %229 = call i64 @_ZN4llvm5TwineC1EPKc(i64* nonnull %stack_var_-600, i8* getelementptr inbounds ([8 x i8], [8 x i8]* @global_var_a71a, i64 0, i64 0)), !insn.addr !496
  %230 = call i64 @_ZN4llvm25SmallVectorTemplateCommonISt4pairINS_5APIntEPNS_5ValueEEvEixEm(i64* nonnull %stack_var_-248, i64 %220), !insn.addr !497
  %231 = add i64 %230, 16, !insn.addr !498
  %232 = inttoptr i64 %231 to i64*, !insn.addr !498
  %233 = load i64, i64* %232, align 8, !insn.addr !498
  %234 = inttoptr i64 %228 to i64*, !insn.addr !499
  %235 = inttoptr i64 %233 to i64*, !insn.addr !499
  %236 = inttoptr i64 %stack_var_-912.018.reload to i64*, !insn.addr !499
  %237 = call i64 @_ZN4llvm13IRBuilderBase12CreateSelectEPNS_5ValueES2_S2_RKNS_5TwineEPNS_11InstructionE(i64* nonnull %stack_var_-408, i64* %234, i64* %235, i64* %236, i64* nonnull %stack_var_-600, i64* null), !insn.addr !499
  %238 = add i32 %storemerge619.reload, -1, !insn.addr !500
  %239 = icmp slt i32 %238, 0, !insn.addr !488
  %240 = icmp eq i1 %239, false, !insn.addr !489
  store i32 %238, i32* %storemerge619.reg2mem, !insn.addr !489
  store i64 %237, i64* %stack_var_-912.018.reg2mem, !insn.addr !489
  store i64 %237, i64* %stack_var_-912.0.lcssa.reg2mem, !insn.addr !489
  br i1 %240, label %dec_label_pc_1bd8, label %dec_label_pc_1cdb, !insn.addr !489

dec_label_pc_1cdb:                                ; preds = %dec_label_pc_1bd8, %dec_label_pc_1ba1
  %stack_var_-912.0.lcssa.reload = load i64, i64* %stack_var_-912.0.lcssa.reg2mem
  %241 = call i64 @_ZN4llvm11SmallVectorISt4pairIjPNS_6MDNodeEELj4EEC1Ev(i64* nonnull %stack_var_-488), !insn.addr !501
  %242 = call i64 @_ZNK4llvm11Instruction14getAllMetadataERNS_15SmallVectorImplISt4pairIjPNS_6MDNodeEEEE(i64* %arg1, i64* nonnull %stack_var_-488), !insn.addr !502
  %243 = call i64 @_ZN4llvm25SmallVectorTemplateCommonISt4pairIjPNS_6MDNodeEEvE5beginEv(i64* nonnull %stack_var_-488), !insn.addr !503
  %244 = call i64 @_ZN4llvm25SmallVectorTemplateCommonISt4pairIjPNS_6MDNodeEEvE3endEv(i64* nonnull %stack_var_-488), !insn.addr !504
  %245 = icmp eq i64 %243, %244, !insn.addr !505
  %246 = icmp eq i1 %245, false, !insn.addr !506
  store i64 %243, i64* %stack_var_-904.017.reg2mem, !insn.addr !506
  br i1 %246, label %dec_label_pc_1d42, label %dec_label_pc_1e74, !insn.addr !506

dec_label_pc_1d42:                                ; preds = %dec_label_pc_1cdb, %dec_label_pc_1e58
  %stack_var_-904.017.reload = load i64, i64* %stack_var_-904.017.reg2mem
  %247 = inttoptr i64 %stack_var_-904.017.reload to i64*, !insn.addr !507
  %248 = call i64* @_ZSt3getILm0EjPN4llvm6MDNodeEERNSt13tuple_elementIXT_ESt4pairIT0_T1_EE4typeERS7_(i64* %247), !insn.addr !507
  %249 = bitcast i64* %248 to i32*
  %250 = call i64* @_ZSt3getILm1EjPN4llvm6MDNodeEERNSt13tuple_elementIXT_ESt4pairIT0_T1_EE4typeERS7_(i64* %247), !insn.addr !508
  %251 = call i64 @_ZN4llvm25SmallVectorTemplateCommonISt4pairINS_5APIntEPNS_5ValueEEvE5beginEv(i64* nonnull %stack_var_-248), !insn.addr !509
  %252 = call i64 @_ZN4llvm25SmallVectorTemplateCommonISt4pairINS_5APIntEPNS_5ValueEEvE3endEv(i64* nonnull %stack_var_-248), !insn.addr !510
  %253 = icmp eq i64 %251, %252, !insn.addr !511
  %254 = icmp eq i1 %253, false, !insn.addr !512
  store i64 %251, i64* %stack_var_-896.016.reg2mem, !insn.addr !512
  br i1 %254, label %dec_label_pc_1dbb, label %dec_label_pc_1e58, !insn.addr !512

dec_label_pc_1dbb:                                ; preds = %dec_label_pc_1d42, %dec_label_pc_1e3c
  %stack_var_-896.016.reload = load i64, i64* %stack_var_-896.016.reg2mem
  %255 = inttoptr i64 %stack_var_-896.016.reload to i64*, !insn.addr !513
  %256 = call i64* @_ZSt3getILm0EN4llvm5APIntEPNS0_5ValueEERNSt13tuple_elementIXT_ESt4pairIT0_T1_EE4typeERS8_(i64* %255), !insn.addr !513
  %257 = call i64* @_ZSt3getILm1EN4llvm5APIntEPNS0_5ValueEERNSt13tuple_elementIXT_ESt4pairIT0_T1_EE4typeERS8_(i64* %255), !insn.addr !514
  %258 = load i64, i64* %257, align 8, !insn.addr !515
  %259 = inttoptr i64 %258 to i64*, !insn.addr !516
  %260 = call i64 @_ZN4llvm8dyn_castINS_8LoadInstENS_5ValueEEEDcPT0_(i64* %259), !insn.addr !516
  %261 = icmp eq i64 %260, 0, !insn.addr !517
  br i1 %261, label %dec_label_pc_1e3c, label %dec_label_pc_1e18, !insn.addr !518

dec_label_pc_1e18:                                ; preds = %dec_label_pc_1dbb
  %262 = load i64, i64* %250, align 8, !insn.addr !519
  %263 = load i32, i32* %249, align 4, !insn.addr !520
  %264 = zext i32 %263 to i64, !insn.addr !520
  %265 = inttoptr i64 %260 to i64*, !insn.addr !521
  %266 = inttoptr i64 %264 to i64*, !insn.addr !521
  %267 = trunc i64 %262 to i32, !insn.addr !521
  %268 = call i64 @_ZN4llvm11Instruction11setMetadataEjPNS_6MDNodeE(i64* %265, i64* %266, i32 %267, i64* %266), !insn.addr !521
  br label %dec_label_pc_1e3c, !insn.addr !521

dec_label_pc_1e3c:                                ; preds = %dec_label_pc_1e18, %dec_label_pc_1dbb
  %269 = add i64 %stack_var_-896.016.reload, 24, !insn.addr !522
  %270 = icmp eq i64 %269, %252, !insn.addr !511
  %271 = icmp eq i1 %270, false, !insn.addr !512
  store i64 %269, i64* %stack_var_-896.016.reg2mem, !insn.addr !512
  br i1 %271, label %dec_label_pc_1dbb, label %dec_label_pc_1e58, !insn.addr !512

dec_label_pc_1e58:                                ; preds = %dec_label_pc_1e3c, %dec_label_pc_1d42
  %272 = add i64 %stack_var_-904.017.reload, 16, !insn.addr !523
  %273 = icmp eq i64 %272, %244, !insn.addr !505
  %274 = icmp eq i1 %273, false, !insn.addr !506
  store i64 %272, i64* %stack_var_-904.017.reg2mem, !insn.addr !506
  br i1 %274, label %dec_label_pc_1d42, label %dec_label_pc_1e74, !insn.addr !506

dec_label_pc_1e74:                                ; preds = %dec_label_pc_1e58, %dec_label_pc_1cdb
  %275 = inttoptr i64 %stack_var_-912.0.lcssa.reload to i64*, !insn.addr !524
  %276 = call i64 @_ZN4llvm5Value18replaceAllUsesWithEPS0_(i64* %arg1, i64* %275), !insn.addr !524
  %277 = call i64 @_ZN4llvm11SmallVectorISt4pairIjPNS_6MDNodeEELj4EED1Ev(i64* nonnull %stack_var_-488), !insn.addr !525
  %278 = call i64 @_ZN4llvm11SmallVectorISt4pairINS_5APIntEPNS_5ValueEELj8EED1Ev(i64* nonnull %stack_var_-248), !insn.addr !526
  br label %dec_label_pc_1eb0, !insn.addr !526

dec_label_pc_1eb0:                                ; preds = %dec_label_pc_1e74, %dec_label_pc_18a0
  %279 = call i64 @_ZN4llvm9IRBuilderINS_14ConstantFolderENS_24IRBuilderDefaultInserterEED1Ev(i64* nonnull %stack_var_-408), !insn.addr !527
  store i64 1, i64* %rbx.1.reg2mem, !insn.addr !527
  br label %dec_label_pc_1ebf, !insn.addr !527

dec_label_pc_1ebf:                                ; preds = %dec_label_pc_14d2, %dec_label_pc_1457, %dec_label_pc_1eb0
  %rbx.1.reload = load i64, i64* %rbx.1.reg2mem
  %280 = call i64 @_ZN4llvm11SmallVectorINS_5APIntELj3EED1Ev(i64* nonnull %stack_var_-552), !insn.addr !528
  %281 = call i64 @_ZN4llvm9KnownBitsD1Ev(i64* nonnull %stack_var_-632), !insn.addr !529
  store i64 %rbx.1.reload, i64* %rbx.2.reg2mem, !insn.addr !529
  br label %dec_label_pc_1edd, !insn.addr !529

dec_label_pc_1edd:                                ; preds = %dec_label_pc_136d, %dec_label_pc_133d, %dec_label_pc_12e8, %dec_label_pc_124e, %dec_label_pc_1415, %dec_label_pc_141f, %dec_label_pc_132f, %dec_label_pc_12cb, %dec_label_pc_12bd, %dec_label_pc_1ebf
  %rbx.2.reload = load i64, i64* %rbx.2.reg2mem
  %282 = and i64 %rbx.2.reload, 4294967295, !insn.addr !530
  %283 = call i64 @__readfsqword(i64 40), !insn.addr !531
  %284 = icmp eq i64 %3, %283, !insn.addr !531
  store i64 %282, i64* %rax.0.reg2mem, !insn.addr !532
  br i1 %284, label %dec_label_pc_1ef3, label %dec_label_pc_1eee, !insn.addr !532

dec_label_pc_1eee:                                ; preds = %dec_label_pc_1edd
  %285 = call i64 @__stack_chk_fail(), !insn.addr !533
  store i64 %285, i64* %rax.0.reg2mem, !insn.addr !533
  br label %dec_label_pc_1ef3, !insn.addr !533

dec_label_pc_1ef3:                                ; preds = %dec_label_pc_1eee, %dec_label_pc_1edd
  %rax.0.reload = load i64, i64* %rax.0.reg2mem
  ret i64 %rax.0.reload, !insn.addr !534

; uselistorder directives
  uselistorder i64 %252, { 1, 0 }
  uselistorder i64 %244, { 1, 0 }
  uselistorder i32 %storemerge720.reload, { 0, 2, 1 }
  uselistorder i64 %stack_var_-920.021.reload, { 2, 1, 0 }
  uselistorder i64 %150, { 1, 0 }
  uselistorder i64 %125, { 1, 0 }
  uselistorder i32 %storemerge24.reload, { 0, 2, 1 }
  uselistorder i32 %63, { 1, 0 }
  uselistorder i64* %44, { 1, 2, 3, 0, 4, 5, 6 }
  uselistorder i64 %35, { 2, 1, 0 }
  uselistorder i64 %storemerge926.reload, { 2, 0, 1 }
  uselistorder i64* %19, { 8, 7, 5, 6, 3, 4, 15, 14, 13, 11, 12, 9, 10, 16, 1, 2, 17, 0, 18 }
  uselistorder i64* %stack_var_-600, { 0, 1, 2, 3, 4, 5, 6, 7, 8, 9, 10, 11, 12, 15, 13, 16, 17, 14 }
  uselistorder i64* %stack_var_-664, { 0, 2, 1, 3 }
  uselistorder i64* %stack_var_-648, { 4, 5, 1, 0, 2, 6, 7, 3 }
  uselistorder i64* %storemerge926.reg2mem, { 1, 0, 2 }
  uselistorder i64* %stack_var_-944.025.reg2mem, { 1, 0, 2 }
  uselistorder i32* %storemerge24.reg2mem, { 2, 0, 1 }
  uselistorder i64* %stack_var_-928.023.reg2mem, { 2, 0, 1 }
  uselistorder i64* %stack_var_-920.021.reg2mem, { 1, 0, 2 }
  uselistorder i32* %storemerge720.reg2mem, { 1, 0, 2 }
  uselistorder i32* %storemerge619.reg2mem, { 2, 0, 1 }
  uselistorder i64* %stack_var_-912.018.reg2mem, { 2, 0, 1 }
  uselistorder i64* %stack_var_-904.017.reg2mem, { 2, 0, 1 }
  uselistorder i64* %stack_var_-896.016.reg2mem, { 2, 0, 1 }
  uselistorder i64* %rbx.1.reg2mem, { 0, 3, 1, 2 }
  uselistorder i64* %rbx.2.reg2mem, { 0, 10, 6, 5, 1, 2, 7, 3, 8, 9, 4 }
  uselistorder i64 (i64*, i64*, i64*, i64*, i64*, i64*)* @_ZN4llvm13IRBuilderBase12CreateSelectEPNS_5ValueES2_S2_RKNS_5TwineEPNS_11InstructionE, { 1, 0 }
  uselistorder i64 (i64*, i64)* @_ZN4llvm25SmallVectorTemplateCommonISt4pairINS_5APIntEPNS_5ValueEEvEixEm, { 1, 0 }
  uselistorder i64 (i64*)* @_ZN4llvm11SmallVectorIPNS_5ValueELj4EED1Ev, { 1, 0 }
  uselistorder i64 (i64*)* @_ZN4llvm11SmallVectorISt4pairIjPNS_6MDNodeEELj4EED1Ev, { 2, 1, 0 }
  uselistorder i64* (i64*)* @_ZSt3getILm1EjPN4llvm6MDNodeEERNSt13tuple_elementIXT_ESt4pairIT0_T1_EE4typeERS7_, { 2, 1, 0 }
  uselistorder i64* (i64*)* @_ZSt3getILm0EjPN4llvm6MDNodeEERNSt13tuple_elementIXT_ESt4pairIT0_T1_EE4typeERS7_, { 2, 1, 0 }
  uselistorder i64 (i64*, i64*)* @_ZNK4llvm11Instruction14getAllMetadataERNS_15SmallVectorImplISt4pairIjPNS_6MDNodeEEEE, { 2, 1, 0 }
  uselistorder i64 (i64*)* @_ZN4llvm11SmallVectorISt4pairIjPNS_6MDNodeEELj4EEC1Ev, { 2, 1, 0 }
  uselistorder i64 (i64*, i64*, i64*, i64*)* @_ZN4llvm13IRBuilderBase10CreateLoadEPNS_4TypeEPNS_5ValueERKNS_5TwineE, { 2, 1, 0 }
  uselistorder i64 (i64*, i1)* @_ZN4llvm17GetElementPtrInst13setIsInBoundsEb, { 1, 0 }
  uselistorder i64 (i64*)* @_ZNK4llvm17GetElementPtrInst10isInBoundsEv, { 1, 0 }
  uselistorder i64 (i64*, i64*, i64*, i64*, i64, i64*, i64)* @_ZN4llvm13IRBuilderBase9CreateGEPEPNS_4TypeEPNS_5ValueENS_8ArrayRefIS4_EERKNS_5TwineENS_14GEPNoWrapFlagsE, { 1, 0 }
  uselistorder i64 (i64*)* @_ZNK4llvm17GetElementPtrInst20getSourceElementTypeEv, { 1, 0 }
  uselistorder i64 (i64*, i64*)* @_ZN4llvm8ArrayRefIPNS_5ValueEEC1INS_11SmallVectorIS2_Lj4EEEvEERKT_, { 1, 0 }
  uselistorder i64 (i64*, i64*, i8*)* @_ZN4llvmplERKNS_9StringRefEPKc, { 9, 8, 7, 6, 5, 4, 3, 2, 1, 0 }
  uselistorder i64 (i64*)* @_ZNK4llvm5Value7getNameEv, { 8, 7, 6, 5, 4, 3, 2, 1, 0 }
  uselistorder i64 ()* @_ZN4llvm14GEPNoWrapFlags4noneEv, { 1, 0 }
  uselistorder i64 (i64*, i64*)* @_ZN4llvm23SmallVectorTemplateBaseIPNS_5ValueELb1EE9push_backES2_, { 5, 4, 3, 2, 1, 0 }
  uselistorder i64 (i64*, i64*)* @_ZN4llvm11ConstantInt3getEPNS_4TypeERKNS_5APIntE, { 2, 1, 0 }
  uselistorder i64 (i64*)* @_ZNK4llvm17GetElementPtrInst14getNumOperandsEv, { 3, 1, 2, 0 }
  uselistorder i64 (i64*)* @_ZN4llvm11SmallVectorIPNS_5ValueELj4EEC1Ev, { 1, 0 }
  uselistorder i64 (i64*)* @_ZN4llvm17GetElementPtrInst7idx_endEv, { 1, 0 }
  uselistorder i64 (i64*)* @_ZN4llvm17GetElementPtrInst9idx_beginEv, { 1, 0 }
  uselistorder i64* %arg1, { 1, 2, 0, 3, 4, 5, 6, 7, 8, 9, 10, 11, 12 }
  uselistorder label %dec_label_pc_1edd, { 9, 5, 4, 0, 1, 6, 2, 7, 8, 3 }
  uselistorder label %dec_label_pc_1ebf, { 2, 0, 1 }
  uselistorder label %dec_label_pc_1dbb, { 1, 0 }
  uselistorder label %dec_label_pc_1d42, { 1, 0 }
  uselistorder label %dec_label_pc_1bd8, { 1, 0 }
  uselistorder label %dec_label_pc_1958, { 1, 0 }
  uselistorder label %dec_label_pc_192f, { 1, 0 }
  uselistorder label %dec_label_pc_1806, { 1, 0 }
  uselistorder label %dec_label_pc_157f, { 1, 0 }
  uselistorder label %dec_label_pc_136d, { 1, 0 }
}

define i64 @_ZN25deobfuscate_select_memory12_GLOBAL__N_122resolveConstantAddressEPN4llvm5ValueERKNS1_10DataLayoutE(i64* %arg1, i64* %arg2) local_unnamed_addr {
dec_label_pc_1efc:
  %0 = alloca i64
  %rax.0.reg2mem = alloca i64, !insn.addr !535
  %stack_var_-168 = alloca i64, align 8
  %stack_var_-104 = alloca i64, align 8
  %1 = load i64, i64* %0
  %stack_var_-56 = alloca i64, align 8
  %stack_var_-72 = alloca i64, align 8
  %stack_var_-88 = alloca i64, align 8
  %2 = call i64 @__readfsqword(i64 40), !insn.addr !536
  %3 = call i64 @_ZN4llvm5Value17stripPointerCastsEv(i64* %arg1), !insn.addr !537
  %4 = inttoptr i64 %3 to i64*, !insn.addr !538
  %5 = call i64 @_ZN4llvm8dyn_castINS_12ConstantExprENS_5ValueEEEDcPT0_(i64* %4), !insn.addr !538
  %6 = icmp eq i64 %5, 0, !insn.addr !539
  br i1 %6, label %dec_label_pc_2163, label %dec_label_pc_1f63, !insn.addr !540

dec_label_pc_1f63:                                ; preds = %dec_label_pc_1efc
  %7 = inttoptr i64 %5 to i64*, !insn.addr !541
  %8 = call i64 @_ZNK4llvm12ConstantExpr9getOpcodeEv(i64* %7), !insn.addr !541
  %9 = trunc i64 %8 to i32, !insn.addr !542
  %10 = icmp eq i32 %9, 48, !insn.addr !542
  %11 = icmp eq i1 %10, false, !insn.addr !543
  br i1 %11, label %dec_label_pc_1fe4, label %dec_label_pc_1f7c, !insn.addr !544

dec_label_pc_1f7c:                                ; preds = %dec_label_pc_1f63
  %12 = call i64 @_ZNK4llvm12ConstantExpr10getOperandEj(i64* %7, i32 0), !insn.addr !545
  %13 = inttoptr i64 %12 to i64*, !insn.addr !546
  %14 = call i64 @_ZN4llvm8dyn_castINS_11ConstantIntENS_8ConstantEEEDcPT0_(i64* %13), !insn.addr !546
  %15 = icmp eq i64 %14, 0, !insn.addr !547
  br i1 %15, label %dec_label_pc_1fe4, label %dec_label_pc_1fa9, !insn.addr !548

dec_label_pc_1fa9:                                ; preds = %dec_label_pc_1f7c
  %16 = inttoptr i64 %14 to i64*, !insn.addr !549
  %17 = call i64 @_ZNK4llvm11ConstantInt12getZExtValueEv(i64* %16), !insn.addr !549
  store i64 %17, i64* %stack_var_-88, align 8, !insn.addr !550
  %18 = call i64 @_ZNSt8optionalImEC1ImLb1EEEOT_(i64* nonnull %stack_var_-72, i64* nonnull %stack_var_-88), !insn.addr !551
  %19 = load i64, i64* %stack_var_-72, align 8, !insn.addr !552
  store i64 %19, i64* %stack_var_-56, align 8, !insn.addr !553
  br label %dec_label_pc_2380, !insn.addr !554

dec_label_pc_1fe4:                                ; preds = %dec_label_pc_1f7c, %dec_label_pc_1f63
  %20 = call i64 @_ZNK4llvm12ConstantExpr9getOpcodeEv(i64* %7), !insn.addr !555
  %21 = trunc i64 %20 to i32, !insn.addr !556
  %22 = icmp eq i32 %21, 34, !insn.addr !556
  %23 = icmp eq i1 %22, false, !insn.addr !557
  br i1 %23, label %dec_label_pc_2163, label %dec_label_pc_2001, !insn.addr !558

dec_label_pc_2001:                                ; preds = %dec_label_pc_1fe4
  %24 = call i64 @_ZN4llvm4castINS_11GEPOperatorENS_12ConstantExprEEEDcPT0_(i64* %7), !insn.addr !559
  %25 = inttoptr i64 %24 to i64*, !insn.addr !560
  %26 = call i64 @_ZN4llvm11GEPOperator17getPointerOperandEv(i64* %25), !insn.addr !560
  %27 = inttoptr i64 %26 to i64*, !insn.addr !561
  %28 = call i64 @_ZN25deobfuscate_select_memory12_GLOBAL__N_122resolveConstantAddressEPN4llvm5ValueERKNS1_10DataLayoutE(i64* %27, i64* %arg2), !insn.addr !561
  store i64 %28, i64* %stack_var_-104, align 8, !insn.addr !562
  %29 = call i64 @_ZNKSt8optionalImEcvbEv(i64* nonnull %stack_var_-104), !insn.addr !563
  %30 = trunc i64 %29 to i8
  %31 = icmp eq i8 %30, 1, !insn.addr !564
  br i1 %31, label %dec_label_pc_2077, label %dec_label_pc_2056, !insn.addr !565

dec_label_pc_2056:                                ; preds = %dec_label_pc_2001
  %32 = ptrtoint i64* %stack_var_-72 to i64, !insn.addr !566
  %33 = call i64 @_ZNSt8optionalImEC1ESt9nullopt_t(i64 %32), !insn.addr !567
  %34 = load i64, i64* %stack_var_-72, align 8, !insn.addr !568
  store i64 %34, i64* %stack_var_-56, align 8, !insn.addr !569
  br label %dec_label_pc_2380, !insn.addr !570

dec_label_pc_2077:                                ; preds = %dec_label_pc_2001
  %35 = call i64 @_ZNK4llvm10DataLayout20getPointerSizeInBitsEj(i64* %arg2, i32 0), !insn.addr !571
  %36 = trunc i64 %35 to i32, !insn.addr !572
  %37 = call i64 @_ZN4llvm5APIntC1Ejmbb(i64* nonnull %stack_var_-88, i32 %36, i64 0, i1 false, i1 false), !insn.addr !573
  %38 = call i64 @_ZN4llvm12function_refIFbRNS_5ValueERNS_5APIntEEEC1EDn(i64* nonnull %stack_var_-56, i64 0), !insn.addr !574
  %39 = load i64, i64* %stack_var_-56, align 8, !insn.addr !575
  %40 = inttoptr i64 %39 to i64*, !insn.addr !576
  %41 = call i64 @_ZNK4llvm11GEPOperator24accumulateConstantOffsetERKNS_10DataLayoutERNS_5APIntENS_12function_refIFbRNS_5ValueES5_EEE(i64* %25, i64* %arg2, i64* nonnull %stack_var_-88, i64* %40, i64 %1), !insn.addr !576
  %42 = trunc i64 %41 to i8
  %43 = icmp eq i8 %42, 1, !insn.addr !577
  br i1 %43, label %dec_label_pc_2107, label %dec_label_pc_20e9, !insn.addr !578

dec_label_pc_20e9:                                ; preds = %dec_label_pc_2077
  %44 = ptrtoint i64* %stack_var_-72 to i64, !insn.addr !579
  %45 = call i64 @_ZNSt8optionalImEC1ESt9nullopt_t(i64 %44), !insn.addr !580
  br label %dec_label_pc_2152, !insn.addr !581

dec_label_pc_2107:                                ; preds = %dec_label_pc_2077
  %46 = call i64 @_ZNRSt8optionalImEdeEv(i64* nonnull %stack_var_-104), !insn.addr !582
  %47 = inttoptr i64 %46 to i64*, !insn.addr !583
  %48 = load i64, i64* %47, align 8, !insn.addr !583
  %49 = call i64 @_ZNK4llvm5APInt12getZExtValueEv(i64* nonnull %stack_var_-88), !insn.addr !584
  %50 = add i64 %49, %48, !insn.addr !585
  store i64 %50, i64* %stack_var_-168, align 8, !insn.addr !586
  %51 = call i64 @_ZNSt8optionalImEC1ImLb1EEEOT_(i64* nonnull %stack_var_-72, i64* nonnull %stack_var_-168), !insn.addr !587
  br label %dec_label_pc_2152, !insn.addr !588

dec_label_pc_2152:                                ; preds = %dec_label_pc_2107, %dec_label_pc_20e9
  %storemerge2 = load i64, i64* %stack_var_-72, align 8
  store i64 %storemerge2, i64* %stack_var_-56, align 8
  %52 = call i64 @_ZN4llvm5APIntD1Ev(i64* nonnull %stack_var_-88), !insn.addr !589
  br label %dec_label_pc_2380, !insn.addr !590

dec_label_pc_2163:                                ; preds = %dec_label_pc_1fe4, %dec_label_pc_1efc
  %53 = call i64 @_ZN4llvm8dyn_castINS_12IntToPtrInstENS_5ValueEEEDcPT0_(i64* %4), !insn.addr !591
  %54 = icmp eq i64 %53, 0, !insn.addr !592
  br i1 %54, label %dec_label_pc_21d9, label %dec_label_pc_217d, !insn.addr !593

dec_label_pc_217d:                                ; preds = %dec_label_pc_2163
  %55 = inttoptr i64 %53 to i64*, !insn.addr !594
  %56 = call i64 @_ZNK4llvm16UnaryInstruction10getOperandEj(i64* %55, i32 0), !insn.addr !594
  %57 = inttoptr i64 %56 to i64*, !insn.addr !595
  %58 = call i64 @_ZN4llvm8dyn_castINS_11ConstantIntENS_5ValueEEEDcPT0_(i64* %57), !insn.addr !595
  %59 = icmp eq i64 %58, 0, !insn.addr !596
  br i1 %59, label %dec_label_pc_21d9, label %dec_label_pc_21a1, !insn.addr !597

dec_label_pc_21a1:                                ; preds = %dec_label_pc_217d
  %60 = inttoptr i64 %58 to i64*, !insn.addr !598
  %61 = call i64 @_ZNK4llvm11ConstantInt12getZExtValueEv(i64* %60), !insn.addr !598
  store i64 %61, i64* %stack_var_-88, align 8, !insn.addr !599
  %62 = call i64 @_ZNSt8optionalImEC1ImLb1EEEOT_(i64* nonnull %stack_var_-72, i64* nonnull %stack_var_-88), !insn.addr !600
  %63 = load i64, i64* %stack_var_-72, align 8, !insn.addr !601
  store i64 %63, i64* %stack_var_-56, align 8, !insn.addr !602
  br label %dec_label_pc_2380, !insn.addr !603

dec_label_pc_21d9:                                ; preds = %dec_label_pc_217d, %dec_label_pc_2163
  %64 = call i64 @_ZN4llvm8dyn_castINS_17GetElementPtrInstENS_5ValueEEEDcPT0_(i64* %4), !insn.addr !604
  %65 = icmp eq i64 %64, 0, !insn.addr !605
  br i1 %65, label %dec_label_pc_231e, label %dec_label_pc_21f7, !insn.addr !606

dec_label_pc_21f7:                                ; preds = %dec_label_pc_21d9
  %66 = inttoptr i64 %64 to i64*, !insn.addr !607
  %67 = call i64 @_ZN4llvm17GetElementPtrInst17getPointerOperandEv(i64* %66), !insn.addr !607
  %68 = inttoptr i64 %67 to i64*, !insn.addr !608
  %69 = call i64 @_ZN25deobfuscate_select_memory12_GLOBAL__N_122resolveConstantAddressEPN4llvm5ValueERKNS1_10DataLayoutE(i64* %68, i64* %arg2), !insn.addr !608
  store i64 %69, i64* %stack_var_-104, align 8, !insn.addr !609
  %70 = call i64 @_ZNKSt8optionalImEcvbEv(i64* nonnull %stack_var_-104), !insn.addr !610
  %71 = trunc i64 %70 to i8
  %72 = icmp eq i8 %71, 1, !insn.addr !611
  br i1 %72, label %dec_label_pc_2254, label %dec_label_pc_2233, !insn.addr !612

dec_label_pc_2233:                                ; preds = %dec_label_pc_21f7
  %73 = ptrtoint i64* %stack_var_-72 to i64, !insn.addr !613
  %74 = call i64 @_ZNSt8optionalImEC1ESt9nullopt_t(i64 %73), !insn.addr !614
  %75 = load i64, i64* %stack_var_-72, align 8, !insn.addr !615
  store i64 %75, i64* %stack_var_-56, align 8, !insn.addr !616
  br label %dec_label_pc_2380, !insn.addr !617

dec_label_pc_2254:                                ; preds = %dec_label_pc_21f7
  %76 = call i64 @_ZNK4llvm10DataLayout20getPointerSizeInBitsEj(i64* %arg2, i32 0), !insn.addr !618
  %77 = trunc i64 %76 to i32, !insn.addr !619
  %78 = call i64 @_ZN4llvm5APIntC1Ejmbb(i64* nonnull %stack_var_-88, i32 %77, i64 0, i1 false, i1 false), !insn.addr !620
  %79 = call i64 @_ZNK4llvm17GetElementPtrInst24accumulateConstantOffsetERKNS_10DataLayoutERNS_5APIntE(i64* %66, i64* %arg2, i64* nonnull %stack_var_-88), !insn.addr !621
  %80 = trunc i64 %79 to i8
  %81 = icmp eq i8 %80, 1, !insn.addr !622
  br i1 %81, label %dec_label_pc_22c5, label %dec_label_pc_22a7, !insn.addr !623

dec_label_pc_22a7:                                ; preds = %dec_label_pc_2254
  %82 = ptrtoint i64* %stack_var_-72 to i64, !insn.addr !624
  %83 = call i64 @_ZNSt8optionalImEC1ESt9nullopt_t(i64 %82), !insn.addr !625
  br label %dec_label_pc_2310, !insn.addr !626

dec_label_pc_22c5:                                ; preds = %dec_label_pc_2254
  %84 = call i64 @_ZNRSt8optionalImEdeEv(i64* nonnull %stack_var_-104), !insn.addr !627
  %85 = inttoptr i64 %84 to i64*, !insn.addr !628
  %86 = load i64, i64* %85, align 8, !insn.addr !628
  %87 = call i64 @_ZNK4llvm5APInt12getZExtValueEv(i64* nonnull %stack_var_-88), !insn.addr !629
  %88 = add i64 %87, %86, !insn.addr !630
  store i64 %88, i64* %stack_var_-168, align 8, !insn.addr !631
  %89 = call i64 @_ZNSt8optionalImEC1ImLb1EEEOT_(i64* nonnull %stack_var_-72, i64* nonnull %stack_var_-168), !insn.addr !632
  br label %dec_label_pc_2310, !insn.addr !633

dec_label_pc_2310:                                ; preds = %dec_label_pc_22c5, %dec_label_pc_22a7
  %storemerge3 = load i64, i64* %stack_var_-72, align 8
  store i64 %storemerge3, i64* %stack_var_-56, align 8
  %90 = call i64 @_ZN4llvm5APIntD1Ev(i64* nonnull %stack_var_-88), !insn.addr !634
  br label %dec_label_pc_2380, !insn.addr !635

dec_label_pc_231e:                                ; preds = %dec_label_pc_21d9
  %91 = call i64 @_ZN4llvm8dyn_castINS_14GlobalVariableENS_5ValueEEEDcPT0_(i64* %4), !insn.addr !636
  %92 = icmp eq i64 %91, 0, !insn.addr !637
  br i1 %92, label %dec_label_pc_2364, label %dec_label_pc_2338, !insn.addr !638

dec_label_pc_2338:                                ; preds = %dec_label_pc_231e
  store i64 0, i64* %stack_var_-88, align 8, !insn.addr !639
  %93 = bitcast i64* %stack_var_-88 to i32*, !insn.addr !640
  %94 = call i64 @_ZNSt8optionalImEC1IiLb1EEEOT_(i64* nonnull %stack_var_-72, i32* nonnull %93), !insn.addr !640
  %95 = load i64, i64* %stack_var_-72, align 8, !insn.addr !641
  store i64 %95, i64* %stack_var_-56, align 8, !insn.addr !642
  br label %dec_label_pc_2380, !insn.addr !643

dec_label_pc_2364:                                ; preds = %dec_label_pc_231e
  %96 = ptrtoint i64* %stack_var_-72 to i64, !insn.addr !644
  %97 = call i64 @_ZNSt8optionalImEC1ESt9nullopt_t(i64 %96), !insn.addr !645
  %98 = load i64, i64* %stack_var_-72, align 8, !insn.addr !646
  store i64 %98, i64* %stack_var_-56, align 8, !insn.addr !647
  br label %dec_label_pc_2380, !insn.addr !648

dec_label_pc_2380:                                ; preds = %dec_label_pc_2364, %dec_label_pc_2338, %dec_label_pc_2310, %dec_label_pc_2233, %dec_label_pc_21a1, %dec_label_pc_2152, %dec_label_pc_2056, %dec_label_pc_1fa9
  %99 = load i64, i64* %stack_var_-56, align 8, !insn.addr !649
  %100 = call i64 @__readfsqword(i64 40), !insn.addr !650
  %101 = icmp eq i64 %2, %100, !insn.addr !650
  store i64 %99, i64* %rax.0.reg2mem, !insn.addr !651
  br i1 %101, label %dec_label_pc_239c, label %dec_label_pc_2397, !insn.addr !651

dec_label_pc_2397:                                ; preds = %dec_label_pc_2380
  %102 = call i64 @__stack_chk_fail(), !insn.addr !652
  store i64 %102, i64* %rax.0.reg2mem, !insn.addr !652
  br label %dec_label_pc_239c, !insn.addr !652

dec_label_pc_239c:                                ; preds = %dec_label_pc_2397, %dec_label_pc_2380
  %rax.0.reload = load i64, i64* %rax.0.reg2mem
  ret i64 %rax.0.reload, !insn.addr !653

; uselistorder directives
  uselistorder i64* %7, { 1, 2, 0, 3 }
  uselistorder i64* %stack_var_-88, { 0, 11, 1, 2, 3, 4, 5, 12, 6, 7, 8, 9, 10, 13 }
  uselistorder i64* %stack_var_-72, { 7, 8, 9, 2, 0, 3, 10, 11, 12, 13, 4, 1, 5, 14, 15, 16, 17, 6 }
  uselistorder i64* %stack_var_-56, { 3, 4, 5, 0, 6, 7, 1, 8, 2, 9, 10 }
  uselistorder i64* %stack_var_-104, { 0, 1, 4, 2, 3, 5 }
  uselistorder i64* %stack_var_-168, { 0, 2, 1, 3 }
}

define i64 @_ZNSt8optionalIN25deobfuscate_select_memory12_GLOBAL__N_115SymbolicAddressEEptEv(i64* %result) local_unnamed_addr {
dec_label_pc_23a2:
  %0 = call i64 @_ZNSt19_Optional_base_implIN25deobfuscate_select_memory12_GLOBAL__N_115SymbolicAddressESt14_Optional_baseIS2_Lb1ELb1EEE6_M_getEv(i64* %result), !insn.addr !654
  %1 = inttoptr i64 %0 to i64*, !insn.addr !655
  %2 = call i64* @_ZSt11__addressofIN25deobfuscate_select_memory12_GLOBAL__N_115SymbolicAddressEEPT_RS3_(i64* %1), !insn.addr !655
  %3 = ptrtoint i64* %2 to i64, !insn.addr !655
  ret i64 %3, !insn.addr !656
}

define i64 @_ZNSt19_Optional_base_implIN25deobfuscate_select_memory12_GLOBAL__N_115SymbolicAddressESt14_Optional_baseIS2_Lb1ELb1EEE6_M_getEv(i64* %result) local_unnamed_addr {
dec_label_pc_23c4:
  %0 = call i64 @_ZSt23__is_constant_evaluatedv(), !insn.addr !657
  %1 = trunc i64 %0 to i8, !insn.addr !658
  %2 = icmp eq i8 %1, 0, !insn.addr !658
  br i1 %2, label %dec_label_pc_23f8, label %dec_label_pc_23d9, !insn.addr !659

dec_label_pc_23d9:                                ; preds = %dec_label_pc_23c4
  %3 = call i64 @_ZNKSt19_Optional_base_implIN25deobfuscate_select_memory12_GLOBAL__N_115SymbolicAddressESt14_Optional_baseIS2_Lb1ELb1EEE13_M_is_engagedEv(i64* %result), !insn.addr !660
  br label %dec_label_pc_23f8

dec_label_pc_23f8:                                ; preds = %dec_label_pc_23d9, %dec_label_pc_23c4
  %4 = call i64 @_ZNSt22_Optional_payload_baseIN25deobfuscate_select_memory12_GLOBAL__N_115SymbolicAddressEE6_M_getEv(i64* %result), !insn.addr !661
  ret i64 %4, !insn.addr !662
}

define i64 @_ZZN25deobfuscate_select_memory12_GLOBAL__N_120resolveBasePlusConstEPN4llvm5ValueEENKUlS3_PNS1_11ConstantIntEbE_clES3_S5_b(i64* %this, i64* %result, i64* %arg3, i64* %arg4, i1 %arg5) local_unnamed_addr {
dec_label_pc_2408:
  %0 = ptrtoint i64* %this to i64
  %stack_var_-40 = alloca i64, align 8
  %1 = call i64 @__readfsqword(i64 40), !insn.addr !663
  %2 = call i64 @_ZN25deobfuscate_select_memory12_GLOBAL__N_120resolveBasePlusConstEPN4llvm5ValueE(i64* nonnull %stack_var_-40, i64* %arg3), !insn.addr !664
  %3 = call i64 @_ZNKSt8optionalIN25deobfuscate_select_memory12_GLOBAL__N_115SymbolicAddressEEcvbEv(i64* nonnull %stack_var_-40), !insn.addr !665
  %4 = trunc i64 %3 to i8
  %5 = icmp eq i8 %4, 1, !insn.addr !666
  br i1 %5, label %dec_label_pc_2469, label %dec_label_pc_245b, !insn.addr !667

dec_label_pc_245b:                                ; preds = %dec_label_pc_2408
  %6 = call i64 @_ZNSt8optionalIN25deobfuscate_select_memory12_GLOBAL__N_115SymbolicAddressEEC1ESt9nullopt_t(i64 %0), !insn.addr !668
  br label %dec_label_pc_24be, !insn.addr !669

dec_label_pc_2469:                                ; preds = %dec_label_pc_2408
  %7 = call i64 @_ZNK4llvm11ConstantInt12getSExtValueEv(i64* %arg4), !insn.addr !670
  %8 = call i64 @_ZNSt8optionalIN25deobfuscate_select_memory12_GLOBAL__N_115SymbolicAddressEEptEv(i64* nonnull %stack_var_-40), !insn.addr !671
  %9 = add i64 %8, 8, !insn.addr !672
  %10 = inttoptr i64 %9 to i64*, !insn.addr !672
  %11 = load i64, i64* %10, align 8, !insn.addr !672
  %12 = icmp eq i1 %arg5, false, !insn.addr !673
  %13 = sub i64 0, %7
  %storemerge = select i1 %12, i64 %7, i64 %13
  %14 = add i64 %11, %storemerge, !insn.addr !674
  store i64 %14, i64* %10, align 8, !insn.addr !675
  %15 = load i64, i64* %stack_var_-40, align 8, !insn.addr !676
  store i64 %15, i64* %this, align 8, !insn.addr !677
  %16 = add i64 %0, 8, !insn.addr !678
  %17 = inttoptr i64 %16 to i64*, !insn.addr !678
  %18 = add i64 %0, 16, !insn.addr !679
  %19 = inttoptr i64 %18 to i64*, !insn.addr !679
  br label %dec_label_pc_24be, !insn.addr !679

dec_label_pc_24be:                                ; preds = %dec_label_pc_2469, %dec_label_pc_245b
  %20 = call i64 @__readfsqword(i64 40), !insn.addr !680
  %21 = icmp eq i64 %1, %20, !insn.addr !680
  br i1 %21, label %dec_label_pc_24d2, label %dec_label_pc_24cd, !insn.addr !681

dec_label_pc_24cd:                                ; preds = %dec_label_pc_24be
  %22 = call i64 @__stack_chk_fail(), !insn.addr !682
  br label %dec_label_pc_24d2, !insn.addr !682

dec_label_pc_24d2:                                ; preds = %dec_label_pc_24cd, %dec_label_pc_24be
  ret i64 %0, !insn.addr !683

; uselistorder directives
  uselistorder i64 %7, { 1, 0 }
  uselistorder i64* %stack_var_-40, { 3, 0, 1, 2 }
  uselistorder i64 %0, { 1, 2, 3, 0 }
}

define i64 @_ZN25deobfuscate_select_memory12_GLOBAL__N_120resolveBasePlusConstEPN4llvm5ValueE(i64* %result, i64* %arg2) local_unnamed_addr {
dec_label_pc_24d8:
  %stack_var_-56 = alloca i64, align 8
  %0 = call i64 @__readfsqword(i64 40), !insn.addr !684
  %1 = call i64 @_ZN4llvm8dyn_castINS_14BinaryOperatorENS_5ValueEEEDcPT0_(i64* %arg2), !insn.addr !685
  %2 = icmp eq i64 %1, 0, !insn.addr !686
  br i1 %2, label %dec_label_pc_262a, label %dec_label_pc_2517, !insn.addr !687

dec_label_pc_2517:                                ; preds = %dec_label_pc_24d8
  %3 = inttoptr i64 %1 to i64*, !insn.addr !688
  %4 = call i64 @_ZNK4llvm14BinaryOperator9getOpcodeEv(i64* %3), !insn.addr !688
  %5 = trunc i64 %4 to i32, !insn.addr !689
  %6 = icmp eq i32 %5, 13, !insn.addr !689
  br i1 %6, label %dec_label_pc_254d, label %dec_label_pc_2528, !insn.addr !690

dec_label_pc_2528:                                ; preds = %dec_label_pc_2517
  %7 = call i64 @_ZNK4llvm14BinaryOperator9getOpcodeEv(i64* %3), !insn.addr !691
  %8 = trunc i64 %7 to i32, !insn.addr !692
  %9 = icmp eq i32 %8, 15, !insn.addr !692
  %10 = icmp eq i1 %9, false, !insn.addr !693
  br i1 %10, label %dec_label_pc_262a, label %dec_label_pc_254d, !insn.addr !693

dec_label_pc_254d:                                ; preds = %dec_label_pc_2528, %dec_label_pc_2517
  %11 = call i64 @_ZNK4llvm14BinaryOperator10getOperandEj(i64* %3, i32 1), !insn.addr !694
  %12 = inttoptr i64 %11 to i64*, !insn.addr !695
  %13 = call i64 @_ZN4llvm8dyn_castINS_11ConstantIntENS_5ValueEEEDcPT0_(i64* %12), !insn.addr !695
  %14 = icmp eq i64 %13, 0, !insn.addr !696
  %15 = call i64 @_ZNK4llvm14BinaryOperator9getOpcodeEv(i64* %3)
  %16 = trunc i64 %15 to i32
  br i1 %14, label %dec_label_pc_25b9, label %dec_label_pc_2571, !insn.addr !697

dec_label_pc_2571:                                ; preds = %dec_label_pc_254d
  %17 = icmp eq i32 %16, 15, !insn.addr !698
  %18 = call i64 @_ZNK4llvm14BinaryOperator10getOperandEj(i64* %3, i32 0), !insn.addr !699
  %19 = inttoptr i64 %18 to i64*, !insn.addr !700
  %20 = inttoptr i64 %13 to i64*, !insn.addr !700
  %21 = call i64 @_ZZN25deobfuscate_select_memory12_GLOBAL__N_120resolveBasePlusConstEPN4llvm5ValueEENKUlS3_PNS1_11ConstantIntEbE_clES3_S5_b(i64* %result, i64* nonnull %stack_var_-56, i64* %19, i64* %20, i1 %17), !insn.addr !700
  br label %dec_label_pc_264d, !insn.addr !701

dec_label_pc_25b9:                                ; preds = %dec_label_pc_254d
  %22 = icmp eq i32 %16, 13, !insn.addr !702
  %23 = icmp eq i1 %22, false, !insn.addr !703
  br i1 %23, label %dec_label_pc_262a, label %dec_label_pc_25cf, !insn.addr !704

dec_label_pc_25cf:                                ; preds = %dec_label_pc_25b9
  %24 = call i64 @_ZNK4llvm14BinaryOperator10getOperandEj(i64* %3, i32 0), !insn.addr !705
  %25 = inttoptr i64 %24 to i64*, !insn.addr !706
  %26 = call i64 @_ZN4llvm8dyn_castINS_11ConstantIntENS_5ValueEEEDcPT0_(i64* %25), !insn.addr !706
  %27 = icmp eq i64 %26, 0, !insn.addr !707
  br i1 %27, label %dec_label_pc_262a, label %dec_label_pc_25f3, !insn.addr !708

dec_label_pc_25f3:                                ; preds = %dec_label_pc_25cf
  %28 = call i64 @_ZNK4llvm14BinaryOperator10getOperandEj(i64* %3, i32 1), !insn.addr !709
  %29 = inttoptr i64 %28 to i64*, !insn.addr !710
  %30 = inttoptr i64 %26 to i64*, !insn.addr !710
  %31 = call i64 @_ZZN25deobfuscate_select_memory12_GLOBAL__N_120resolveBasePlusConstEPN4llvm5ValueEENKUlS3_PNS1_11ConstantIntEbE_clES3_S5_b(i64* %result, i64* nonnull %stack_var_-56, i64* %29, i64* %30, i1 false), !insn.addr !710
  br label %dec_label_pc_264d, !insn.addr !711

dec_label_pc_262a:                                ; preds = %dec_label_pc_2528, %dec_label_pc_25cf, %dec_label_pc_25b9, %dec_label_pc_24d8
  %32 = ptrtoint i64* %arg2 to i64
  store i64 %32, i64* %stack_var_-56, align 8, !insn.addr !712
  %33 = call i64 @_ZNSt8optionalIN25deobfuscate_select_memory12_GLOBAL__N_115SymbolicAddressEEC1IS2_Lb1EEEOT_(i64* %result, i64* nonnull %stack_var_-56), !insn.addr !713
  br label %dec_label_pc_264d, !insn.addr !713

dec_label_pc_264d:                                ; preds = %dec_label_pc_2571, %dec_label_pc_25f3, %dec_label_pc_262a
  %34 = call i64 @__readfsqword(i64 40), !insn.addr !714
  %35 = icmp eq i64 %0, %34, !insn.addr !714
  br i1 %35, label %dec_label_pc_2661, label %dec_label_pc_265c, !insn.addr !715

dec_label_pc_265c:                                ; preds = %dec_label_pc_264d
  %36 = call i64 @__stack_chk_fail(), !insn.addr !716
  br label %dec_label_pc_2661, !insn.addr !716

dec_label_pc_2661:                                ; preds = %dec_label_pc_265c, %dec_label_pc_264d
  %37 = ptrtoint i64* %result to i64
  ret i64 %37, !insn.addr !717

; uselistorder directives
  uselistorder i32 %16, { 1, 0 }
  uselistorder i64* %3, { 1, 2, 4, 3, 5, 0, 6 }
  uselistorder i64* %stack_var_-56, { 0, 3, 1, 2 }
  uselistorder i64 (i64*, i64*, i64*, i64*, i1)* @_ZZN25deobfuscate_select_memory12_GLOBAL__N_120resolveBasePlusConstEPN4llvm5ValueEENKUlS3_PNS1_11ConstantIntEbE_clES3_S5_b, { 1, 0 }
  uselistorder i64 (i64*, i32)* @_ZNK4llvm14BinaryOperator10getOperandEj, { 3, 2, 1, 0 }
  uselistorder i64 (i64*)* @_ZNK4llvm14BinaryOperator9getOpcodeEv, { 2, 1, 0 }
  uselistorder i64* %arg2, { 1, 0 }
  uselistorder i64* %result, { 3, 0, 1, 2 }
  uselistorder label %dec_label_pc_264d, { 2, 1, 0 }
  uselistorder label %dec_label_pc_262a, { 1, 2, 0, 3 }
}

define i64 @_ZNKSt8optionalIN25deobfuscate_select_memory12_GLOBAL__N_115SymbolicAddressEEcvbEv(i64* %result) local_unnamed_addr {
dec_label_pc_266c:
  %0 = call i64 @_ZNKSt19_Optional_base_implIN25deobfuscate_select_memory12_GLOBAL__N_115SymbolicAddressESt14_Optional_baseIS2_Lb1ELb1EEE13_M_is_engagedEv(i64* %result), !insn.addr !718
  ret i64 %0, !insn.addr !719

; uselistorder directives
  uselistorder i64 (i64*)* @_ZNKSt19_Optional_base_implIN25deobfuscate_select_memory12_GLOBAL__N_115SymbolicAddressESt14_Optional_baseIS2_Lb1ELb1EEE13_M_is_engagedEv, { 1, 0 }
}

define i64 @_ZNKSt19_Optional_base_implIN25deobfuscate_select_memory12_GLOBAL__N_115SymbolicAddressESt14_Optional_baseIS2_Lb1ELb1EEE13_M_is_engagedEv(i64* %result) local_unnamed_addr {
dec_label_pc_2686:
  %0 = ptrtoint i64* %result to i64
  %1 = add i64 %0, 16, !insn.addr !720
  %2 = inttoptr i64 %1 to i8*, !insn.addr !720
  %3 = load i8, i8* %2, align 1, !insn.addr !720
  %4 = zext i8 %3 to i64, !insn.addr !720
  ret i64 %4, !insn.addr !721
}

define i64 @_ZN25deobfuscate_select_memory12_GLOBAL__N_122resolveSymbolicAddressEPN4llvm5ValueERKNS1_10DataLayoutE(i64* %result, i64* %arg2, i64* %arg3) local_unnamed_addr {
dec_label_pc_2698:
  %0 = alloca i64
  %1 = ptrtoint i64* %result to i64
  %stack_var_-104 = alloca i64, align 8
  %2 = load i64, i64* %0
  %stack_var_-56 = alloca i64, align 8
  %stack_var_-88 = alloca i64, align 8
  %3 = call i64 @__readfsqword(i64 40), !insn.addr !722
  %4 = call i64 @_ZN4llvm5Value17stripPointerCastsEv(i64* %arg2), !insn.addr !723
  %5 = inttoptr i64 %4 to i64*, !insn.addr !724
  %6 = call i64 @_ZN4llvm8dyn_castINS_10SelectInstENS_5ValueEEEDcPT0_(i64* %5), !insn.addr !724
  %7 = icmp eq i64 %6, 0, !insn.addr !725
  br i1 %7, label %dec_label_pc_2805, label %dec_label_pc_2706, !insn.addr !726

dec_label_pc_2706:                                ; preds = %dec_label_pc_2698
  %8 = inttoptr i64 %6 to i64*, !insn.addr !727
  %9 = call i64 @_ZN4llvm10SelectInst12getTrueValueEv(i64* %8), !insn.addr !727
  %10 = inttoptr i64 %9 to i64*, !insn.addr !728
  %11 = call i64 @_ZN25deobfuscate_select_memory12_GLOBAL__N_122resolveSymbolicAddressEPN4llvm5ValueERKNS1_10DataLayoutE(i64* nonnull %stack_var_-88, i64* %10, i64* %arg3), !insn.addr !728
  %12 = call i64 @_ZN4llvm10SelectInst13getFalseValueEv(i64* %8), !insn.addr !729
  %13 = inttoptr i64 %12 to i64*, !insn.addr !730
  %14 = call i64 @_ZN25deobfuscate_select_memory12_GLOBAL__N_122resolveSymbolicAddressEPN4llvm5ValueERKNS1_10DataLayoutE(i64* nonnull %stack_var_-56, i64* %13, i64* %arg3), !insn.addr !730
  %15 = call i64 @_ZNKSt8optionalIN25deobfuscate_select_memory12_GLOBAL__N_115SymbolicAddressEEcvbEv(i64* nonnull %stack_var_-88), !insn.addr !731
  %16 = trunc i64 %15 to i8, !insn.addr !732
  %17 = icmp eq i8 %16, 0, !insn.addr !732
  br i1 %17, label %dec_label_pc_27c5, label %dec_label_pc_2766, !insn.addr !733

dec_label_pc_2766:                                ; preds = %dec_label_pc_2706
  %18 = call i64 @_ZNKSt8optionalIN25deobfuscate_select_memory12_GLOBAL__N_115SymbolicAddressEEcvbEv(i64* nonnull %stack_var_-56), !insn.addr !734
  %19 = trunc i64 %18 to i8, !insn.addr !735
  %20 = icmp eq i8 %19, 0, !insn.addr !735
  br i1 %20, label %dec_label_pc_27c5, label %dec_label_pc_2776, !insn.addr !736

dec_label_pc_2776:                                ; preds = %dec_label_pc_2766
  %21 = call i64 @_ZNSt8optionalIN25deobfuscate_select_memory12_GLOBAL__N_115SymbolicAddressEEptEv(i64* nonnull %stack_var_-88), !insn.addr !737
  %22 = inttoptr i64 %21 to i64*, !insn.addr !738
  %23 = load i64, i64* %22, align 8, !insn.addr !738
  %24 = call i64 @_ZNSt8optionalIN25deobfuscate_select_memory12_GLOBAL__N_115SymbolicAddressEEptEv(i64* nonnull %stack_var_-56), !insn.addr !739
  %25 = inttoptr i64 %24 to i64*, !insn.addr !740
  %26 = load i64, i64* %25, align 8, !insn.addr !740
  %27 = icmp eq i64 %23, %26, !insn.addr !741
  %28 = icmp eq i1 %27, false, !insn.addr !742
  br i1 %28, label %dec_label_pc_27c5, label %dec_label_pc_2799, !insn.addr !742

dec_label_pc_2799:                                ; preds = %dec_label_pc_2776
  %29 = call i64 @_ZNSt8optionalIN25deobfuscate_select_memory12_GLOBAL__N_115SymbolicAddressEEptEv(i64* nonnull %stack_var_-88), !insn.addr !743
  %30 = add i64 %29, 8, !insn.addr !744
  %31 = inttoptr i64 %30 to i64*, !insn.addr !744
  %32 = load i64, i64* %31, align 8, !insn.addr !744
  %33 = call i64 @_ZNSt8optionalIN25deobfuscate_select_memory12_GLOBAL__N_115SymbolicAddressEEptEv(i64* nonnull %stack_var_-56), !insn.addr !745
  %34 = add i64 %33, 8, !insn.addr !746
  %35 = inttoptr i64 %34 to i64*, !insn.addr !746
  %36 = load i64, i64* %35, align 8, !insn.addr !746
  %37 = icmp eq i64 %32, %36, !insn.addr !747
  %38 = icmp eq i1 %37, false, !insn.addr !748
  br i1 %38, label %dec_label_pc_27c5, label %dec_label_pc_27ce, !insn.addr !748

dec_label_pc_27c5:                                ; preds = %dec_label_pc_2799, %dec_label_pc_2776, %dec_label_pc_2766, %dec_label_pc_2706
  %39 = call i64 @_ZNSt8optionalIN25deobfuscate_select_memory12_GLOBAL__N_115SymbolicAddressEEC1ESt9nullopt_t(i64 %1), !insn.addr !749
  br label %dec_label_pc_2b51, !insn.addr !750

dec_label_pc_27ce:                                ; preds = %dec_label_pc_2799
  %40 = load i64, i64* %stack_var_-88, align 8, !insn.addr !751
  store i64 %40, i64* %result, align 8, !insn.addr !752
  %41 = add i64 %1, 8, !insn.addr !753
  %42 = inttoptr i64 %41 to i64*, !insn.addr !753
  %43 = add i64 %1, 16, !insn.addr !754
  %44 = inttoptr i64 %43 to i64*, !insn.addr !754
  br label %dec_label_pc_2b51, !insn.addr !755

dec_label_pc_2805:                                ; preds = %dec_label_pc_2698
  %45 = call i64 @_ZN4llvm8dyn_castINS_12ConstantExprENS_5ValueEEEDcPT0_(i64* %5), !insn.addr !756
  %46 = icmp eq i64 %45, 0, !insn.addr !757
  br i1 %46, label %dec_label_pc_29c3, label %dec_label_pc_2823, !insn.addr !758

dec_label_pc_2823:                                ; preds = %dec_label_pc_2805
  %47 = inttoptr i64 %45 to i64*, !insn.addr !759
  %48 = call i64 @_ZNK4llvm12ConstantExpr9getOpcodeEv(i64* %47), !insn.addr !759
  %49 = trunc i64 %48 to i32, !insn.addr !760
  %50 = icmp eq i32 %49, 48, !insn.addr !760
  %51 = icmp eq i1 %50, false, !insn.addr !761
  br i1 %51, label %dec_label_pc_2864, label %dec_label_pc_2839, !insn.addr !762

dec_label_pc_2839:                                ; preds = %dec_label_pc_2823
  %52 = call i64 @_ZNK4llvm12ConstantExpr10getOperandEj(i64* %47, i32 0), !insn.addr !763
  %53 = inttoptr i64 %52 to i64*, !insn.addr !764
  %54 = call i64 @_ZN25deobfuscate_select_memory12_GLOBAL__N_120resolveBasePlusConstEPN4llvm5ValueE(i64* %result, i64* %53), !insn.addr !764
  br label %dec_label_pc_2b51, !insn.addr !765

dec_label_pc_2864:                                ; preds = %dec_label_pc_2823
  %55 = call i64 @_ZNK4llvm12ConstantExpr9getOpcodeEv(i64* %47), !insn.addr !766
  %56 = trunc i64 %55 to i32, !insn.addr !767
  %57 = icmp eq i32 %56, 34, !insn.addr !767
  %58 = icmp eq i1 %57, false, !insn.addr !768
  br i1 %58, label %dec_label_pc_29af, label %dec_label_pc_287e, !insn.addr !769

dec_label_pc_287e:                                ; preds = %dec_label_pc_2864
  %59 = call i64 @_ZN4llvm4castINS_11GEPOperatorENS_12ConstantExprEEEDcPT0_(i64* %47), !insn.addr !770
  %60 = inttoptr i64 %59 to i64*, !insn.addr !771
  %61 = call i64 @_ZN4llvm11GEPOperator17getPointerOperandEv(i64* %60), !insn.addr !771
  %62 = inttoptr i64 %61 to i64*, !insn.addr !772
  %63 = call i64 @_ZN25deobfuscate_select_memory12_GLOBAL__N_122resolveSymbolicAddressEPN4llvm5ValueERKNS1_10DataLayoutE(i64* nonnull %stack_var_-56, i64* %62, i64* %arg3), !insn.addr !772
  %64 = call i64 @_ZNKSt8optionalIN25deobfuscate_select_memory12_GLOBAL__N_115SymbolicAddressEEcvbEv(i64* nonnull %stack_var_-56), !insn.addr !773
  %65 = trunc i64 %64 to i8
  %66 = icmp eq i8 %65, 1, !insn.addr !774
  br i1 %66, label %dec_label_pc_28da, label %dec_label_pc_28c6, !insn.addr !775

dec_label_pc_28c6:                                ; preds = %dec_label_pc_287e
  %67 = call i64 @_ZNSt8optionalIN25deobfuscate_select_memory12_GLOBAL__N_115SymbolicAddressEEC1ESt9nullopt_t(i64 %1), !insn.addr !776
  br label %dec_label_pc_2b51, !insn.addr !777

dec_label_pc_28da:                                ; preds = %dec_label_pc_287e
  %68 = call i64 @_ZNK4llvm10DataLayout20getPointerSizeInBitsEj(i64* %arg3, i32 0), !insn.addr !778
  %69 = trunc i64 %68 to i32, !insn.addr !779
  %70 = call i64 @_ZN4llvm5APIntC1Ejmbb(i64* nonnull %stack_var_-104, i32 %69, i64 0, i1 false, i1 false), !insn.addr !780
  %71 = call i64 @_ZN4llvm12function_refIFbRNS_5ValueERNS_5APIntEEEC1EDn(i64* nonnull %stack_var_-88, i64 0), !insn.addr !781
  %72 = load i64, i64* %stack_var_-88, align 8, !insn.addr !782
  %73 = inttoptr i64 %72 to i64*, !insn.addr !783
  %74 = call i64 @_ZNK4llvm11GEPOperator24accumulateConstantOffsetERKNS_10DataLayoutERNS_5APIntENS_12function_refIFbRNS_5ValueES5_EEE(i64* %60, i64* %arg3, i64* nonnull %stack_var_-104, i64* %73, i64 %2), !insn.addr !783
  %75 = trunc i64 %74 to i8
  %76 = icmp eq i8 %75, 1, !insn.addr !784
  br i1 %76, label %dec_label_pc_295a, label %dec_label_pc_2949, !insn.addr !785

dec_label_pc_2949:                                ; preds = %dec_label_pc_28da
  %77 = call i64 @_ZNSt8optionalIN25deobfuscate_select_memory12_GLOBAL__N_115SymbolicAddressEEC1ESt9nullopt_t(i64 %1), !insn.addr !786
  br label %dec_label_pc_299e, !insn.addr !787

dec_label_pc_295a:                                ; preds = %dec_label_pc_28da
  %78 = call i64 @_ZNK4llvm5APInt12getSExtValueEv(i64* nonnull %stack_var_-104), !insn.addr !788
  %79 = call i64 @_ZNSt8optionalIN25deobfuscate_select_memory12_GLOBAL__N_115SymbolicAddressEEptEv(i64* nonnull %stack_var_-56), !insn.addr !789
  %80 = add i64 %79, 8, !insn.addr !790
  %81 = inttoptr i64 %80 to i64*, !insn.addr !790
  %82 = load i64, i64* %81, align 8, !insn.addr !790
  %83 = add i64 %82, %78, !insn.addr !791
  store i64 %83, i64* %81, align 8, !insn.addr !792
  %84 = load i64, i64* %stack_var_-56, align 8, !insn.addr !793
  store i64 %84, i64* %result, align 8, !insn.addr !794
  %85 = add i64 %1, 8, !insn.addr !795
  %86 = inttoptr i64 %85 to i64*, !insn.addr !795
  %87 = add i64 %1, 16, !insn.addr !796
  %88 = inttoptr i64 %87 to i64*, !insn.addr !796
  br label %dec_label_pc_299e, !insn.addr !796

dec_label_pc_299e:                                ; preds = %dec_label_pc_295a, %dec_label_pc_2949
  %89 = call i64 @_ZN4llvm5APIntD1Ev(i64* nonnull %stack_var_-104), !insn.addr !797
  br label %dec_label_pc_2b51, !insn.addr !798

dec_label_pc_29af:                                ; preds = %dec_label_pc_2864
  %90 = call i64 @_ZNSt8optionalIN25deobfuscate_select_memory12_GLOBAL__N_115SymbolicAddressEEC1ESt9nullopt_t(i64 %1), !insn.addr !799
  br label %dec_label_pc_2b51, !insn.addr !800

dec_label_pc_29c3:                                ; preds = %dec_label_pc_2805
  %91 = call i64 @_ZN4llvm8dyn_castINS_12IntToPtrInstENS_5ValueEEEDcPT0_(i64* %5), !insn.addr !801
  %92 = icmp eq i64 %91, 0, !insn.addr !802
  br i1 %92, label %dec_label_pc_2a08, label %dec_label_pc_29dd, !insn.addr !803

dec_label_pc_29dd:                                ; preds = %dec_label_pc_29c3
  %93 = inttoptr i64 %91 to i64*, !insn.addr !804
  %94 = call i64 @_ZNK4llvm16UnaryInstruction10getOperandEj(i64* %93, i32 0), !insn.addr !804
  %95 = inttoptr i64 %94 to i64*, !insn.addr !805
  %96 = call i64 @_ZN25deobfuscate_select_memory12_GLOBAL__N_120resolveBasePlusConstEPN4llvm5ValueE(i64* %result, i64* %95), !insn.addr !805
  br label %dec_label_pc_2b51, !insn.addr !806

dec_label_pc_2a08:                                ; preds = %dec_label_pc_29c3
  %97 = call i64 @_ZN4llvm8dyn_castINS_17GetElementPtrInstENS_5ValueEEEDcPT0_(i64* %5), !insn.addr !807
  %98 = icmp eq i64 %97, 0, !insn.addr !808
  br i1 %98, label %dec_label_pc_2b28, label %dec_label_pc_2a26, !insn.addr !809

dec_label_pc_2a26:                                ; preds = %dec_label_pc_2a08
  %99 = inttoptr i64 %97 to i64*, !insn.addr !810
  %100 = call i64 @_ZN4llvm17GetElementPtrInst17getPointerOperandEv(i64* %99), !insn.addr !810
  %101 = inttoptr i64 %100 to i64*, !insn.addr !811
  %102 = call i64 @_ZN25deobfuscate_select_memory12_GLOBAL__N_122resolveSymbolicAddressEPN4llvm5ValueERKNS1_10DataLayoutE(i64* nonnull %stack_var_-56, i64* %101, i64* %arg3), !insn.addr !811
  %103 = call i64 @_ZNKSt8optionalIN25deobfuscate_select_memory12_GLOBAL__N_115SymbolicAddressEEcvbEv(i64* nonnull %stack_var_-56), !insn.addr !812
  %104 = trunc i64 %103 to i8
  %105 = icmp eq i8 %104, 1, !insn.addr !813
  br i1 %105, label %dec_label_pc_2a72, label %dec_label_pc_2a5e, !insn.addr !814

dec_label_pc_2a5e:                                ; preds = %dec_label_pc_2a26
  %106 = call i64 @_ZNSt8optionalIN25deobfuscate_select_memory12_GLOBAL__N_115SymbolicAddressEEC1ESt9nullopt_t(i64 %1), !insn.addr !815
  br label %dec_label_pc_2b51, !insn.addr !816

dec_label_pc_2a72:                                ; preds = %dec_label_pc_2a26
  %107 = call i64 @_ZNK4llvm10DataLayout20getPointerSizeInBitsEj(i64* %arg3, i32 0), !insn.addr !817
  %108 = trunc i64 %107 to i32, !insn.addr !818
  %109 = call i64 @_ZN4llvm5APIntC1Ejmbb(i64* nonnull %stack_var_-88, i32 %108, i64 0, i1 false, i1 false), !insn.addr !819
  %110 = call i64 @_ZNK4llvm17GetElementPtrInst24accumulateConstantOffsetERKNS_10DataLayoutERNS_5APIntE(i64* %99, i64* %arg3, i64* nonnull %stack_var_-88), !insn.addr !820
  %111 = trunc i64 %110 to i8
  %112 = icmp eq i8 %111, 1, !insn.addr !821
  br i1 %112, label %dec_label_pc_2ad6, label %dec_label_pc_2ac5, !insn.addr !822

dec_label_pc_2ac5:                                ; preds = %dec_label_pc_2a72
  %113 = call i64 @_ZNSt8optionalIN25deobfuscate_select_memory12_GLOBAL__N_115SymbolicAddressEEC1ESt9nullopt_t(i64 %1), !insn.addr !823
  br label %dec_label_pc_2b1a, !insn.addr !824

dec_label_pc_2ad6:                                ; preds = %dec_label_pc_2a72
  %114 = call i64 @_ZNK4llvm5APInt12getSExtValueEv(i64* nonnull %stack_var_-88), !insn.addr !825
  %115 = call i64 @_ZNSt8optionalIN25deobfuscate_select_memory12_GLOBAL__N_115SymbolicAddressEEptEv(i64* nonnull %stack_var_-56), !insn.addr !826
  %116 = add i64 %115, 8, !insn.addr !827
  %117 = inttoptr i64 %116 to i64*, !insn.addr !827
  %118 = load i64, i64* %117, align 8, !insn.addr !827
  %119 = add i64 %118, %114, !insn.addr !828
  store i64 %119, i64* %117, align 8, !insn.addr !829
  %120 = load i64, i64* %stack_var_-56, align 8, !insn.addr !830
  store i64 %120, i64* %result, align 8, !insn.addr !831
  %121 = add i64 %1, 8, !insn.addr !832
  %122 = inttoptr i64 %121 to i64*, !insn.addr !832
  %123 = add i64 %1, 16, !insn.addr !833
  %124 = inttoptr i64 %123 to i64*, !insn.addr !833
  br label %dec_label_pc_2b1a, !insn.addr !833

dec_label_pc_2b1a:                                ; preds = %dec_label_pc_2ad6, %dec_label_pc_2ac5
  %125 = call i64 @_ZN4llvm5APIntD1Ev(i64* nonnull %stack_var_-88), !insn.addr !834
  br label %dec_label_pc_2b51, !insn.addr !835

dec_label_pc_2b28:                                ; preds = %dec_label_pc_2a08
  store i64 %4, i64* %stack_var_-56, align 8, !insn.addr !836
  %126 = call i64 @_ZNSt8optionalIN25deobfuscate_select_memory12_GLOBAL__N_115SymbolicAddressEEC1IS2_Lb1EEEOT_(i64* %result, i64* nonnull %stack_var_-56), !insn.addr !837
  br label %dec_label_pc_2b51, !insn.addr !837

dec_label_pc_2b51:                                ; preds = %dec_label_pc_2b28, %dec_label_pc_2b1a, %dec_label_pc_2a5e, %dec_label_pc_29dd, %dec_label_pc_29af, %dec_label_pc_299e, %dec_label_pc_28c6, %dec_label_pc_2839, %dec_label_pc_27c5, %dec_label_pc_27ce
  %127 = call i64 @__readfsqword(i64 40), !insn.addr !838
  %128 = icmp eq i64 %3, %127, !insn.addr !838
  br i1 %128, label %dec_label_pc_2b65, label %dec_label_pc_2b60, !insn.addr !839

dec_label_pc_2b60:                                ; preds = %dec_label_pc_2b51
  %129 = call i64 @__stack_chk_fail(), !insn.addr !840
  br label %dec_label_pc_2b65, !insn.addr !840

dec_label_pc_2b65:                                ; preds = %dec_label_pc_2b60, %dec_label_pc_2b51
  ret i64 %1, !insn.addr !841

; uselistorder directives
  uselistorder i64* %stack_var_-88, { 0, 1, 2, 3, 9, 4, 10, 5, 6, 7, 8 }
  uselistorder i64* %stack_var_-56, { 0, 11, 12, 1, 2, 3, 13, 4, 5, 6, 7, 8, 9, 10 }
  uselistorder i64 %1, { 12, 10, 11, 9, 8, 7, 5, 6, 4, 3, 2, 1, 0 }
  uselistorder i64 (i64*, i64*)* @_ZNSt8optionalIN25deobfuscate_select_memory12_GLOBAL__N_115SymbolicAddressEEC1IS2_Lb1EEEOT_, { 1, 0 }
  uselistorder i64 (i64*, i64*, i64*)* @_ZNK4llvm17GetElementPtrInst24accumulateConstantOffsetERKNS_10DataLayoutERNS_5APIntE, { 1, 0 }
  uselistorder i64 (i64*)* @_ZN4llvm17GetElementPtrInst17getPointerOperandEv, { 3, 2, 1, 0 }
  uselistorder i64 (i64*)* @_ZN4llvm8dyn_castINS_17GetElementPtrInstENS_5ValueEEEDcPT0_, { 4, 3, 2, 1, 0 }
  uselistorder i64 (i64*)* @_ZN4llvm8dyn_castINS_12IntToPtrInstENS_5ValueEEEDcPT0_, { 1, 0 }
  uselistorder i64 (i64*, i64*, i64*, i64*, i64)* @_ZNK4llvm11GEPOperator24accumulateConstantOffsetERKNS_10DataLayoutERNS_5APIntENS_12function_refIFbRNS_5ValueES5_EEE, { 1, 0 }
  uselistorder i64 (i64*, i64)* @_ZN4llvm12function_refIFbRNS_5ValueERNS_5APIntEEEC1EDn, { 1, 0 }
  uselistorder i64 (i64*, i32, i64, i1, i1)* @_ZN4llvm5APIntC1Ejmbb, { 3, 2, 1, 0 }
  uselistorder i64 (i64*, i32)* @_ZNK4llvm10DataLayout20getPointerSizeInBitsEj, { 3, 2, 1, 0 }
  uselistorder i64 (i64*)* @_ZN4llvm11GEPOperator17getPointerOperandEv, { 1, 0 }
  uselistorder i64 (i64*)* @_ZN4llvm4castINS_11GEPOperatorENS_12ConstantExprEEEDcPT0_, { 1, 0 }
  uselistorder i64 (i64*, i64*)* @_ZN25deobfuscate_select_memory12_GLOBAL__N_120resolveBasePlusConstEPN4llvm5ValueE, { 2, 1, 0 }
  uselistorder i64 (i64*, i32)* @_ZNK4llvm12ConstantExpr10getOperandEj, { 1, 0 }
  uselistorder i64 (i64*)* @_ZN4llvm8dyn_castINS_12ConstantExprENS_5ValueEEEDcPT0_, { 3, 2, 1, 0 }
  uselistorder i64 (i64)* @_ZNSt8optionalIN25deobfuscate_select_memory12_GLOBAL__N_115SymbolicAddressEEC1ESt9nullopt_t, { 6, 5, 4, 3, 2, 1, 0 }
  uselistorder i64 (i64*)* @_ZN4llvm10SelectInst13getFalseValueEv, { 1, 0 }
  uselistorder i64 (i64*)* @_ZN4llvm10SelectInst12getTrueValueEv, { 1, 0 }
  uselistorder i64 (i64*)* @_ZN4llvm8dyn_castINS_10SelectInstENS_5ValueEEEDcPT0_, { 1, 0 }
  uselistorder label %dec_label_pc_2b51, { 0, 1, 2, 3, 4, 5, 6, 7, 9, 8 }
}

define i64 @_ZN25deobfuscate_select_memory12_GLOBAL__N_120loadOrStoreByteWidthEPN4llvm4TypeE(i64* %arg1) local_unnamed_addr {
dec_label_pc_2b72:
  %rax.0.reg2mem = alloca i64, !insn.addr !842
  %stack_var_-32 = alloca i64, align 8
  %stack_var_-40 = alloca i32, align 4
  %0 = call i64 @__readfsqword(i64 40), !insn.addr !843
  %1 = call i64 @_ZNK4llvm4Type11isIntegerTyEv(i64* %arg1), !insn.addr !844
  %2 = trunc i64 %1 to i8, !insn.addr !845
  %3 = icmp eq i8 %2, 0, !insn.addr !845
  br i1 %3, label %dec_label_pc_2bfa, label %dec_label_pc_2ba1, !insn.addr !846

dec_label_pc_2ba1:                                ; preds = %dec_label_pc_2b72
  %4 = call i64 @_ZNK4llvm4Type18getIntegerBitWidthEv(i64* %arg1), !insn.addr !847
  %5 = trunc i64 %4 to i32, !insn.addr !848
  %6 = add i32 %5, 7, !insn.addr !849
  %7 = udiv i32 %6, 8, !insn.addr !850
  store i32 %7, i32* %stack_var_-40, align 4, !insn.addr !851
  %8 = icmp ult i32 %6, 64, !insn.addr !852
  %.off = add i32 %5, -57
  %9 = icmp ult i32 %.off, 8
  %10 = or i1 %8, %9, !insn.addr !853
  br i1 %10, label %dec_label_pc_2bdd, label %dec_label_pc_2bc4, !insn.addr !853

dec_label_pc_2bc4:                                ; preds = %dec_label_pc_2ba1
  %11 = ptrtoint i64* %stack_var_-32 to i64, !insn.addr !854
  %12 = call i64 @_ZNSt8optionalIjEC1ESt9nullopt_t(i64 %11), !insn.addr !855
  br label %dec_label_pc_2c76, !insn.addr !856

dec_label_pc_2bdd:                                ; preds = %dec_label_pc_2ba1
  %13 = call i64 @_ZNSt8optionalIjEC1IjLb1EEEOT_(i64* nonnull %stack_var_-32, i32* nonnull %stack_var_-40), !insn.addr !857
  br label %dec_label_pc_2c76, !insn.addr !858

dec_label_pc_2bfa:                                ; preds = %dec_label_pc_2b72
  %14 = call i64 @_ZNK4llvm4Type9isFloatTyEv(i64* %arg1), !insn.addr !859
  %15 = trunc i64 %14 to i8, !insn.addr !860
  %16 = icmp eq i8 %15, 0, !insn.addr !860
  br i1 %16, label %dec_label_pc_2c2e, label %dec_label_pc_2c0a, !insn.addr !861

dec_label_pc_2c0a:                                ; preds = %dec_label_pc_2bfa
  store i32 4, i32* %stack_var_-40, align 4, !insn.addr !862
  %17 = call i64 @_ZNSt8optionalIjEC1IiLb1EEEOT_(i64* nonnull %stack_var_-32, i32* nonnull %stack_var_-40), !insn.addr !863
  br label %dec_label_pc_2c76, !insn.addr !864

dec_label_pc_2c2e:                                ; preds = %dec_label_pc_2bfa
  %18 = call i64 @_ZNK4llvm4Type10isDoubleTyEv(i64* %arg1), !insn.addr !865
  %19 = trunc i64 %18 to i8, !insn.addr !866
  %20 = icmp eq i8 %19, 0, !insn.addr !866
  br i1 %20, label %dec_label_pc_2c62, label %dec_label_pc_2c3e, !insn.addr !867

dec_label_pc_2c3e:                                ; preds = %dec_label_pc_2c2e
  store i32 8, i32* %stack_var_-40, align 4, !insn.addr !868
  %21 = call i64 @_ZNSt8optionalIjEC1IiLb1EEEOT_(i64* nonnull %stack_var_-32, i32* nonnull %stack_var_-40), !insn.addr !869
  br label %dec_label_pc_2c76, !insn.addr !870

dec_label_pc_2c62:                                ; preds = %dec_label_pc_2c2e
  %22 = ptrtoint i64* %stack_var_-32 to i64, !insn.addr !871
  %23 = call i64 @_ZNSt8optionalIjEC1ESt9nullopt_t(i64 %22), !insn.addr !872
  br label %dec_label_pc_2c76, !insn.addr !873

dec_label_pc_2c76:                                ; preds = %dec_label_pc_2c62, %dec_label_pc_2c3e, %dec_label_pc_2c0a, %dec_label_pc_2bdd, %dec_label_pc_2bc4
  %stack_var_-24.0 = load i64, i64* %stack_var_-32, align 8
  %24 = call i64 @__readfsqword(i64 40), !insn.addr !874
  %25 = icmp eq i64 %0, %24, !insn.addr !874
  store i64 %stack_var_-24.0, i64* %rax.0.reg2mem, !insn.addr !875
  br i1 %25, label %dec_label_pc_2c8e, label %dec_label_pc_2c89, !insn.addr !875

dec_label_pc_2c89:                                ; preds = %dec_label_pc_2c76
  %26 = call i64 @__stack_chk_fail(), !insn.addr !876
  store i64 %26, i64* %rax.0.reg2mem, !insn.addr !876
  br label %dec_label_pc_2c8e, !insn.addr !876

dec_label_pc_2c8e:                                ; preds = %dec_label_pc_2c89, %dec_label_pc_2c76
  %rax.0.reload = load i64, i64* %rax.0.reg2mem
  ret i64 %rax.0.reload, !insn.addr !877

; uselistorder directives
  uselistorder i32 %6, { 1, 0 }
  uselistorder i32* %stack_var_-40, { 0, 3, 1, 4, 2, 5 }
  uselistorder i64* %stack_var_-32, { 0, 4, 1, 2, 3, 5 }
  uselistorder i64 (i64*, i32*)* @_ZNSt8optionalIjEC1IiLb1EEEOT_, { 1, 0 }
  uselistorder i64 (i64)* @_ZNSt8optionalIjEC1ESt9nullopt_t, { 1, 0 }
  uselistorder i64* %arg1, { 0, 2, 1, 3 }
}

define i64 @_ZN25deobfuscate_select_memory12_GLOBAL__N_118constantScalarBitsEPN4llvm5ValueEPNS1_4TypeE(i64* %arg1, i64* %arg2) local_unnamed_addr {
dec_label_pc_2c90:
  %rax.0.reg2mem = alloca i64, !insn.addr !878
  %.reg2mem = alloca i64, !insn.addr !878
  %stack_var_-104 = alloca i64, align 8
  %stack_var_-40 = alloca i64, align 8
  %stack_var_-56 = alloca i64, align 8
  %stack_var_-72 = alloca i64, align 8
  %0 = call i64 @__readfsqword(i64 40), !insn.addr !879
  %1 = call i64 @_ZN4llvm8dyn_castINS_11ConstantIntENS_5ValueEEEDcPT0_(i64* %arg1), !insn.addr !880
  %2 = icmp eq i64 %1, 0, !insn.addr !881
  br i1 %2, label %dec_label_pc_2d02, label %dec_label_pc_2cca, !insn.addr !882

dec_label_pc_2cca:                                ; preds = %dec_label_pc_2c90
  %3 = inttoptr i64 %1 to i64*, !insn.addr !883
  %4 = call i64 @_ZNK4llvm11ConstantInt12getZExtValueEv(i64* %3), !insn.addr !883
  store i64 %4, i64* %stack_var_-72, align 8, !insn.addr !884
  %5 = call i64 @_ZNSt8optionalImEC1ImLb1EEEOT_(i64* nonnull %stack_var_-56, i64* nonnull %stack_var_-72), !insn.addr !885
  %6 = load i64, i64* %stack_var_-56, align 8, !insn.addr !886
  store i64 %6, i64* %stack_var_-40, align 8, !insn.addr !887
  store i64 %6, i64* %.reg2mem, !insn.addr !888
  br label %dec_label_pc_2e21, !insn.addr !888

dec_label_pc_2d02:                                ; preds = %dec_label_pc_2c90
  %7 = call i64 @_ZN4llvm8dyn_castINS_10ConstantFPENS_5ValueEEEDcPT0_(i64* %arg1), !insn.addr !889
  %8 = icmp eq i64 %7, 0, !insn.addr !890
  br i1 %8, label %dec_label_pc_2e05, label %dec_label_pc_2d1d, !insn.addr !891

dec_label_pc_2d1d:                                ; preds = %dec_label_pc_2d02
  %9 = call i64 @_ZNK4llvm4Type9isFloatTyEv(i64* %arg2), !insn.addr !892
  %10 = trunc i64 %9 to i8, !insn.addr !893
  %11 = icmp eq i8 %10, 0, !insn.addr !893
  br i1 %11, label %dec_label_pc_2d96, label %dec_label_pc_2d2d, !insn.addr !894

dec_label_pc_2d2d:                                ; preds = %dec_label_pc_2d1d
  %12 = inttoptr i64 %7 to i64*, !insn.addr !895
  %13 = call i64 @_ZNK4llvm10ConstantFP11getValueAPFEv(i64* %12), !insn.addr !895
  %14 = inttoptr i64 %13 to i64*, !insn.addr !896
  %15 = call i64 @_ZNK4llvm7APFloat14bitcastToAPIntEv(i64* nonnull %stack_var_-40, i64* %14), !insn.addr !896
  %16 = call i64 @_ZNK4llvm5APInt12getZExtValueEv(i64* nonnull %stack_var_-40), !insn.addr !897
  %17 = call i64 @_ZN4llvm5APIntD1Ev(i64* nonnull %stack_var_-40), !insn.addr !898
  %sext = mul i64 %16, 4294967296
  %18 = ashr exact i64 %sext, 32, !insn.addr !899
  store i64 %18, i64* %stack_var_-72, align 8, !insn.addr !899
  %19 = bitcast i64* %stack_var_-72 to i32*, !insn.addr !900
  %20 = call i64 @_ZNSt8optionalImEC1IjLb1EEEOT_(i64* nonnull %stack_var_-56, i32* nonnull %19), !insn.addr !900
  %21 = load i64, i64* %stack_var_-56, align 8, !insn.addr !901
  store i64 %21, i64* %stack_var_-40, align 8, !insn.addr !902
  store i64 %21, i64* %.reg2mem, !insn.addr !903
  br label %dec_label_pc_2e21, !insn.addr !903

dec_label_pc_2d96:                                ; preds = %dec_label_pc_2d1d
  %22 = call i64 @_ZNK4llvm4Type10isDoubleTyEv(i64* %arg2), !insn.addr !904
  %23 = trunc i64 %22 to i8, !insn.addr !905
  %24 = icmp eq i8 %23, 0, !insn.addr !905
  br i1 %24, label %dec_label_pc_2e05, label %dec_label_pc_2da6, !insn.addr !906

dec_label_pc_2da6:                                ; preds = %dec_label_pc_2d96
  %25 = inttoptr i64 %7 to i64*, !insn.addr !907
  %26 = call i64 @_ZNK4llvm10ConstantFP11getValueAPFEv(i64* %25), !insn.addr !907
  %27 = inttoptr i64 %26 to i64*, !insn.addr !908
  %28 = call i64 @_ZNK4llvm7APFloat14bitcastToAPIntEv(i64* nonnull %stack_var_-72, i64* %27), !insn.addr !908
  %29 = call i64 @_ZNK4llvm5APInt12getZExtValueEv(i64* nonnull %stack_var_-72), !insn.addr !909
  store i64 %29, i64* %stack_var_-104, align 8, !insn.addr !910
  %30 = call i64 @_ZNSt8optionalImEC1ImLb1EEEOT_(i64* nonnull %stack_var_-56, i64* nonnull %stack_var_-104), !insn.addr !911
  %31 = load i64, i64* %stack_var_-56, align 8, !insn.addr !912
  store i64 %31, i64* %stack_var_-40, align 8, !insn.addr !913
  %32 = call i64 @_ZN4llvm5APIntD1Ev(i64* nonnull %stack_var_-72), !insn.addr !914
  %.pre = load i64, i64* %stack_var_-40, align 8
  store i64 %.pre, i64* %.reg2mem, !insn.addr !915
  br label %dec_label_pc_2e21, !insn.addr !915

dec_label_pc_2e05:                                ; preds = %dec_label_pc_2d96, %dec_label_pc_2d02
  %33 = ptrtoint i64* %stack_var_-56 to i64, !insn.addr !916
  %34 = call i64 @_ZNSt8optionalImEC1ESt9nullopt_t(i64 %33), !insn.addr !917
  %35 = load i64, i64* %stack_var_-56, align 8, !insn.addr !918
  store i64 %35, i64* %stack_var_-40, align 8, !insn.addr !919
  store i64 %35, i64* %.reg2mem, !insn.addr !920
  br label %dec_label_pc_2e21, !insn.addr !920

dec_label_pc_2e21:                                ; preds = %dec_label_pc_2e05, %dec_label_pc_2da6, %dec_label_pc_2d2d, %dec_label_pc_2cca
  %.reload = load i64, i64* %.reg2mem, !insn.addr !921
  %36 = call i64 @__readfsqword(i64 40), !insn.addr !922
  %37 = icmp eq i64 %0, %36, !insn.addr !922
  store i64 %.reload, i64* %rax.0.reg2mem, !insn.addr !923
  br i1 %37, label %dec_label_pc_2e3d, label %dec_label_pc_2e38, !insn.addr !923

dec_label_pc_2e38:                                ; preds = %dec_label_pc_2e21
  %38 = call i64 @__stack_chk_fail(), !insn.addr !924
  store i64 %38, i64* %rax.0.reg2mem, !insn.addr !924
  br label %dec_label_pc_2e3d, !insn.addr !924

dec_label_pc_2e3d:                                ; preds = %dec_label_pc_2e38, %dec_label_pc_2e21
  %rax.0.reload = load i64, i64* %rax.0.reg2mem
  ret i64 %rax.0.reload, !insn.addr !925

; uselistorder directives
  uselistorder i64 %7, { 1, 0, 2 }
  uselistorder i64* %stack_var_-72, { 0, 1, 2, 3, 5, 4, 6 }
  uselistorder i64* %stack_var_-56, { 3, 4, 5, 0, 6, 1, 7, 2 }
  uselistorder i64* %stack_var_-40, { 4, 0, 5, 6, 1, 2, 3, 7 }
  uselistorder i64* %.reg2mem, { 0, 4, 3, 2, 1 }
  uselistorder i64 (i64)* @_ZNSt8optionalImEC1ESt9nullopt_t, { 5, 4, 3, 2, 1, 0 }
  uselistorder i64 (i64*, i64*)* @_ZNSt8optionalImEC1ImLb1EEEOT_, { 5, 4, 3, 2, 1, 0 }
  uselistorder i64 (i64*)* @_ZN4llvm8dyn_castINS_11ConstantIntENS_5ValueEEEDcPT0_, { 3, 2, 1, 0 }
}

define i64 @_ZN25deobfuscate_select_memory12_GLOBAL__N_116constantFromBitsEPN4llvm4TypeEm(i64* %arg1, i64 %arg2) local_unnamed_addr {
dec_label_pc_2e3f:
  %0 = alloca i128
  %rax.1.reg2mem = alloca i64, !insn.addr !926
  %rax.0.reg2mem = alloca i64, !insn.addr !926
  %1 = load i128, i128* %0
  %2 = call i64 @__readfsqword(i64 40), !insn.addr !927
  %3 = call i64 @_ZNK4llvm4Type11isIntegerTyEv(i64* %arg1), !insn.addr !928
  %4 = trunc i64 %3 to i8, !insn.addr !929
  %5 = icmp eq i8 %4, 0, !insn.addr !929
  br i1 %5, label %dec_label_pc_2e8c, label %dec_label_pc_2e72, !insn.addr !930

dec_label_pc_2e72:                                ; preds = %dec_label_pc_2e3f
  %6 = call i64 @_ZN4llvm11ConstantInt3getEPNS_4TypeEmb(i64* %arg1, i64 %arg2, i1 false), !insn.addr !931
  store i64 %6, i64* %rax.0.reg2mem, !insn.addr !932
  br label %dec_label_pc_2f02, !insn.addr !932

dec_label_pc_2e8c:                                ; preds = %dec_label_pc_2e3f
  %7 = call i64 @_ZNK4llvm4Type9isFloatTyEv(i64* %arg1), !insn.addr !933
  %8 = trunc i64 %7 to i8, !insn.addr !934
  %9 = icmp eq i8 %8, 0, !insn.addr !934
  br i1 %9, label %dec_label_pc_2ece, label %dec_label_pc_2e9c, !insn.addr !935

dec_label_pc_2e9c:                                ; preds = %dec_label_pc_2e8c
  %10 = trunc i64 %arg2 to i32, !insn.addr !936
  %11 = call i128 @__asm_movss(i32 %10), !insn.addr !937
  %12 = call i128 @__asm_pxor(i128 %1, i128 %1), !insn.addr !938
  %13 = call i128 @__asm_cvtss2sd(i128 %11), !insn.addr !939
  %14 = call i64 @__asm_movq.2(i128 %13), !insn.addr !940
  %15 = call i128 @__asm_movq.3(i64 %14), !insn.addr !941
  %16 = trunc i128 %15 to i64, !insn.addr !942
  %17 = bitcast i64 %16 to double, !insn.addr !942
  %18 = call i64 @_ZN4llvm10ConstantFP3getEPNS_4TypeEd(i64* %arg1, double %17), !insn.addr !942
  store i64 %18, i64* %rax.0.reg2mem, !insn.addr !943
  br label %dec_label_pc_2f02, !insn.addr !943

dec_label_pc_2ece:                                ; preds = %dec_label_pc_2e8c
  %19 = call i64 @_ZNK4llvm4Type10isDoubleTyEv(i64* %arg1), !insn.addr !944
  %20 = trunc i64 %19 to i8, !insn.addr !945
  %21 = icmp eq i8 %20, 0, !insn.addr !945
  store i64 0, i64* %rax.0.reg2mem, !insn.addr !946
  br i1 %21, label %dec_label_pc_2f02, label %dec_label_pc_2ede, !insn.addr !946

dec_label_pc_2ede:                                ; preds = %dec_label_pc_2ece
  %sext = mul i64 %arg2, 4294967296
  %22 = ashr exact i64 %sext, 32, !insn.addr !947
  %23 = call i128 @__asm_movq.3(i64 %22), !insn.addr !948
  %24 = trunc i128 %23 to i64, !insn.addr !949
  %25 = bitcast i64 %24 to double, !insn.addr !949
  %26 = call i64 @_ZN4llvm10ConstantFP3getEPNS_4TypeEd(i64* %arg1, double %25), !insn.addr !949
  store i64 %26, i64* %rax.0.reg2mem, !insn.addr !950
  br label %dec_label_pc_2f02, !insn.addr !950

dec_label_pc_2f02:                                ; preds = %dec_label_pc_2ece, %dec_label_pc_2ede, %dec_label_pc_2e9c, %dec_label_pc_2e72
  %rax.0.reload = load i64, i64* %rax.0.reg2mem
  %27 = call i64 @__readfsqword(i64 40), !insn.addr !951
  %28 = icmp eq i64 %2, %27, !insn.addr !951
  store i64 %rax.0.reload, i64* %rax.1.reg2mem, !insn.addr !952
  br i1 %28, label %dec_label_pc_2f16, label %dec_label_pc_2f11, !insn.addr !952

dec_label_pc_2f11:                                ; preds = %dec_label_pc_2f02
  %29 = call i64 @__stack_chk_fail(), !insn.addr !953
  store i64 %29, i64* %rax.1.reg2mem, !insn.addr !953
  br label %dec_label_pc_2f16, !insn.addr !953

dec_label_pc_2f16:                                ; preds = %dec_label_pc_2f11, %dec_label_pc_2f02
  %rax.1.reload = load i64, i64* %rax.1.reg2mem
  ret i64 %rax.1.reload, !insn.addr !954

; uselistorder directives
  uselistorder i64* %rax.0.reg2mem, { 0, 4, 1, 3, 2 }
  uselistorder i64 (i64*, double)* @_ZN4llvm10ConstantFP3getEPNS_4TypeEd, { 1, 0 }
  uselistorder i64 %arg2, { 0, 2, 1 }
  uselistorder label %dec_label_pc_2f02, { 1, 0, 2, 3 }
}

define i64 @_ZN25deobfuscate_select_memory12_GLOBAL__N_123foldConstantGlobalLoadsERN4llvm8FunctionERKNS1_10DataLayoutE(i64* %arg1, i64* %arg2) local_unnamed_addr {
dec_label_pc_2f18:
  %rax.0.reg2mem = alloca i64, !insn.addr !955
  %stack_var_-536.031.reg2mem = alloca i64, !insn.addr !955
  %stack_var_-610.2.lcssa.reg2mem = alloca i32, !insn.addr !955
  %stack_var_-610.1.lcssa.reg2mem = alloca i32, !insn.addr !955
  %stack_var_-610.0.reg2mem = alloca i32, !insn.addr !955
  %stack_var_-544.528.reg2mem = alloca i64, !insn.addr !955
  %stack_var_-544.3.ph.reg2mem = alloca i64, !insn.addr !955
  %storemerge19.in.reg2mem = alloca i32, !insn.addr !955
  %stack_var_-544.440.reg2mem = alloca i64, !insn.addr !955
  %storemerge1441.reg2mem = alloca i32, !insn.addr !955
  %stack_var_-544.237.reg2mem = alloca i64, !insn.addr !955
  %storemerge1138.reg2mem = alloca i32, !insn.addr !955
  %stack_var_-544.1.lcssa.reg2mem = alloca i64, !insn.addr !955
  %stack_var_-544.134.reg2mem = alloca i64, !insn.addr !955
  %storemerge735.reg2mem = alloca i32, !insn.addr !955
  %stack_var_-544.032.reg2mem = alloca i64, !insn.addr !955
  %indvars.iv.reg2mem = alloca i64, !insn.addr !955
  %stack_var_-608.0.reg2mem = alloca i32, !insn.addr !955
  %stack_var_-610.145.reg2mem = alloca i32, !insn.addr !955
  %stack_var_-610.250.reg2mem = alloca i32, !insn.addr !955
  %stack_var_-328 = alloca i64, align 8
  %stack_var_-344 = alloca i64, align 8
  %stack_var_-360 = alloca i64, align 8
  %stack_var_-376 = alloca i64, align 8
  %stack_var_-392 = alloca i64, align 8
  %stack_var_-552 = alloca i64, align 8
  %stack_var_-560 = alloca i64, align 8
  %stack_var_-312 = alloca i64, align 8
  %0 = call i64 @__readfsqword(i64 40), !insn.addr !956
  %1 = call i64 @_ZN4llvm11SmallVectorIPNS_8LoadInstELj32EEC1Ev(i64* nonnull %stack_var_-312), !insn.addr !957
  %2 = call i64 @_ZN4llvm8Function5beginEv(i64* %arg1), !insn.addr !958
  store i64 %2, i64* %stack_var_-560, align 8, !insn.addr !959
  %3 = call i64 @_ZN4llvm8Function3endEv(i64* %arg1), !insn.addr !960
  store i64 %3, i64* %stack_var_-552, align 8, !insn.addr !961
  %4 = ptrtoint i64* %stack_var_-552 to i64, !insn.addr !962
  %5 = call i64 @_ZN4llvmneERKNS_14ilist_iteratorINS_12ilist_detail12node_optionsINS_10BasicBlockELb0ELb0EvLb0EvEELb0ELb0EEES7_(i64* nonnull %stack_var_-560, i64* nonnull %stack_var_-552), !insn.addr !963
  %6 = trunc i64 %5 to i8, !insn.addr !964
  %7 = icmp eq i8 %6, 0, !insn.addr !964
  %8 = icmp eq i1 %7, false, !insn.addr !965
  store i32 0, i32* %stack_var_-610.250.reg2mem, !insn.addr !965
  store i32 0, i32* %stack_var_-610.2.lcssa.reg2mem, !insn.addr !965
  br i1 %8, label %dec_label_pc_2f9a, label %dec_label_pc_38a9, !insn.addr !965

dec_label_pc_2f9a:                                ; preds = %dec_label_pc_2f18, %dec_label_pc_3879
  %stack_var_-610.250.reload = load i32, i32* %stack_var_-610.250.reg2mem
  %9 = call i64 @_ZNK4llvm14ilist_iteratorINS_12ilist_detail12node_optionsINS_10BasicBlockELb0ELb0EvLb0EvEELb0ELb0EEdeEv(i64* nonnull %stack_var_-560), !insn.addr !966
  %10 = call i64 @_ZN4llvm10BasicBlock5beginEv(i64 %9, i64 %4, i64 %4), !insn.addr !967
  store i64 %10, i64* %stack_var_-392, align 8, !insn.addr !968
  %11 = inttoptr i64 %9 to i64*, !insn.addr !969
  %12 = call i64 @_ZN4llvm10BasicBlock3endEv(i64* %11), !insn.addr !969
  store i64 %12, i64* %stack_var_-376, align 8, !insn.addr !970
  %13 = call i64 @_ZN4llvmneERKNS_21ilist_iterator_w_bitsINS_12ilist_detail12node_optionsINS_11InstructionELb0ELb0EvLb1ENS_10BasicBlockEEELb0ELb0EEES8_(i64* nonnull %stack_var_-392, i64* nonnull %stack_var_-376), !insn.addr !971
  %14 = trunc i64 %13 to i8, !insn.addr !972
  %15 = icmp eq i8 %14, 0, !insn.addr !972
  %16 = icmp eq i1 %15, false, !insn.addr !973
  store i32 %stack_var_-610.250.reload, i32* %stack_var_-610.145.reg2mem, !insn.addr !973
  store i32 %stack_var_-610.250.reload, i32* %stack_var_-610.1.lcssa.reg2mem, !insn.addr !973
  br i1 %16, label %dec_label_pc_2ffd, label %dec_label_pc_3879, !insn.addr !973

dec_label_pc_2ffd:                                ; preds = %dec_label_pc_2f9a, %dec_label_pc_3849
  %stack_var_-610.145.reload = load i32, i32* %stack_var_-610.145.reg2mem
  %17 = call i64 @_ZNK4llvm21ilist_iterator_w_bitsINS_12ilist_detail12node_optionsINS_11InstructionELb0ELb0EvLb1ENS_10BasicBlockEEELb0ELb0EEdeEv(i64* nonnull %stack_var_-392), !insn.addr !974
  %18 = inttoptr i64 %17 to i64*, !insn.addr !975
  %19 = call i64 @_ZN4llvm8dyn_castINS_8LoadInstENS_11InstructionEEEDcPT0_(i64* %18), !insn.addr !975
  %20 = icmp eq i64 %19, 0, !insn.addr !976
  store i32 %stack_var_-610.145.reload, i32* %stack_var_-610.0.reg2mem, !insn.addr !977
  br i1 %20, label %dec_label_pc_3849, label %dec_label_pc_3037, !insn.addr !977

dec_label_pc_3037:                                ; preds = %dec_label_pc_2ffd
  %21 = inttoptr i64 %19 to i64*, !insn.addr !978
  %22 = call i64 @_ZNK4llvm11Instruction8isAtomicEv(i64* %21), !insn.addr !978
  %23 = trunc i64 %22 to i8, !insn.addr !979
  %24 = icmp eq i8 %23, 0, !insn.addr !979
  %25 = icmp eq i1 %24, false, !insn.addr !980
  store i32 %stack_var_-610.145.reload, i32* %stack_var_-610.0.reg2mem, !insn.addr !980
  br i1 %25, label %dec_label_pc_3849, label %dec_label_pc_304e, !insn.addr !980

dec_label_pc_304e:                                ; preds = %dec_label_pc_3037
  %26 = call i64 @_ZN4llvm8LoadInst17getPointerOperandEv(i64* %21), !insn.addr !981
  %27 = inttoptr i64 %26 to i64*, !insn.addr !982
  %28 = call i64 @_ZN4llvm5Value17stripPointerCastsEv(i64* %27), !insn.addr !982
  %29 = inttoptr i64 %28 to i64*, !insn.addr !983
  %30 = call i64 @_ZN4llvm8dyn_castINS_14GlobalVariableENS_5ValueEEEDcPT0_(i64* %29), !insn.addr !983
  %31 = icmp eq i64 %30, 0, !insn.addr !984
  store i32 %stack_var_-610.145.reload, i32* %stack_var_-610.0.reg2mem, !insn.addr !985
  br i1 %31, label %dec_label_pc_3849, label %dec_label_pc_30a0, !insn.addr !985

dec_label_pc_30a0:                                ; preds = %dec_label_pc_304e
  %32 = inttoptr i64 %30 to i64*
  %33 = call i64 @_ZNK4llvm14GlobalVariable14hasInitializerEv(i64* %32), !insn.addr !986
  %34 = trunc i64 %33 to i8
  %35 = icmp ne i8 %34, 1, !insn.addr !987
  %36 = icmp eq i1 %35, false, !insn.addr !988
  %37 = icmp eq i1 %36, false, !insn.addr !989
  store i32 %stack_var_-610.145.reload, i32* %stack_var_-610.0.reg2mem, !insn.addr !989
  br i1 %37, label %dec_label_pc_3849, label %dec_label_pc_30a8, !insn.addr !989

dec_label_pc_30a8:                                ; preds = %dec_label_pc_30a0
  %38 = call i64 @_ZNK4llvm8LoadInst10isVolatileEv(i64* %21), !insn.addr !990
  %39 = trunc i64 %38 to i8, !insn.addr !991
  %40 = icmp eq i8 %39, 0, !insn.addr !991
  br i1 %40, label %dec_label_pc_30e5.critedge, label %dec_label_pc_30bb, !insn.addr !992

dec_label_pc_30bb:                                ; preds = %dec_label_pc_30a8
  %41 = call i64 @_ZNK4llvm14GlobalVariable10isConstantEv(i64* %32), !insn.addr !993
  %42 = trunc i64 %41 to i8
  %43 = icmp eq i8 %42, 1, !insn.addr !994
  store i32 %stack_var_-610.145.reload, i32* %stack_var_-610.0.reg2mem, !insn.addr !995
  br i1 %43, label %dec_label_pc_30e5.critedge, label %dec_label_pc_3849, !insn.addr !995

dec_label_pc_30e5.critedge:                       ; preds = %dec_label_pc_30a8, %dec_label_pc_30bb
  %44 = call i64 @_ZN4llvm8LoadInst17getPointerOperandEv(i64* %21), !insn.addr !996
  %45 = inttoptr i64 %44 to i64*, !insn.addr !997
  %46 = call i64 @_ZN25deobfuscate_select_memory12_GLOBAL__N_122resolveConstantAddressEPN4llvm5ValueERKNS1_10DataLayoutE(i64* %45, i64* %arg2), !insn.addr !997
  store i64 %46, i64* %stack_var_-360, align 8, !insn.addr !998
  %47 = call i64 @_ZNKSt8optionalImEcvbEv(i64* nonnull %stack_var_-360), !insn.addr !999
  %48 = trunc i64 %47 to i8
  %49 = icmp eq i8 %48, 1, !insn.addr !1000
  %50 = icmp eq i1 %49, false, !insn.addr !1001
  store i32 %stack_var_-610.145.reload, i32* %stack_var_-610.0.reg2mem, !insn.addr !1001
  br i1 %50, label %dec_label_pc_3849, label %dec_label_pc_3131, !insn.addr !1001

dec_label_pc_3131:                                ; preds = %dec_label_pc_30e5.critedge
  %51 = call i64 @_ZNK4llvm5Value7getTypeEv(i64* %21), !insn.addr !1002
  %52 = inttoptr i64 %51 to i64*, !insn.addr !1003
  %53 = call i64 @_ZNK4llvm4Type11isIntegerTyEv(i64* %52), !insn.addr !1003
  %54 = trunc i64 %53 to i8, !insn.addr !1004
  %55 = icmp eq i8 %54, 0, !insn.addr !1004
  br i1 %55, label %dec_label_pc_3199, label %dec_label_pc_3164, !insn.addr !1005

dec_label_pc_3164:                                ; preds = %dec_label_pc_3131
  %56 = call i64 @_ZNK4llvm4Type18getIntegerBitWidthEv(i64* %52), !insn.addr !1006
  %57 = trunc i64 %56 to i32, !insn.addr !1007
  %58 = add i32 %57, 7, !insn.addr !1008
  %59 = udiv i32 %58, 8, !insn.addr !1009
  %60 = icmp ult i32 %58, 64, !insn.addr !1010
  %.off = add i32 %57, -57
  %61 = icmp ult i32 %.off, 8
  %62 = or i1 %60, %61, !insn.addr !1011
  store i32 %59, i32* %stack_var_-608.0.reg2mem, !insn.addr !1011
  store i32 %stack_var_-610.145.reload, i32* %stack_var_-610.0.reg2mem, !insn.addr !1011
  br i1 %62, label %dec_label_pc_31d9, label %dec_label_pc_3849, !insn.addr !1011

dec_label_pc_3199:                                ; preds = %dec_label_pc_3131
  %63 = call i64 @_ZNK4llvm4Type9isFloatTyEv(i64* %52), !insn.addr !1012
  %64 = trunc i64 %63 to i8, !insn.addr !1013
  %65 = icmp eq i8 %64, 0, !insn.addr !1013
  store i32 4, i32* %stack_var_-608.0.reg2mem, !insn.addr !1014
  br i1 %65, label %dec_label_pc_31b8, label %dec_label_pc_31d9, !insn.addr !1014

dec_label_pc_31b8:                                ; preds = %dec_label_pc_3199
  %66 = call i64 @_ZNK4llvm4Type10isDoubleTyEv(i64* %52), !insn.addr !1015
  %67 = trunc i64 %66 to i8, !insn.addr !1016
  %68 = icmp eq i8 %67, 0, !insn.addr !1016
  store i32 8, i32* %stack_var_-608.0.reg2mem, !insn.addr !1017
  store i32 %stack_var_-610.145.reload, i32* %stack_var_-610.0.reg2mem, !insn.addr !1017
  br i1 %68, label %dec_label_pc_3849, label %dec_label_pc_31d9, !insn.addr !1017

dec_label_pc_31d9:                                ; preds = %dec_label_pc_31b8, %dec_label_pc_3199, %dec_label_pc_3164
  %stack_var_-608.0.reload = load i32, i32* %stack_var_-608.0.reg2mem
  %69 = call i64 @_ZN4llvm14GlobalVariable14getInitializerEv(i64* %32), !insn.addr !1018
  %70 = inttoptr i64 %69 to i64*, !insn.addr !1019
  %71 = call i64 @_ZN4llvm8dyn_castINS_17ConstantDataArrayENS_8ConstantEEEDcPT0_(i64* %70), !insn.addr !1019
  %72 = icmp eq i64 %71, 0, !insn.addr !1020
  br i1 %72, label %dec_label_pc_3359, label %dec_label_pc_3225, !insn.addr !1021

dec_label_pc_3225:                                ; preds = %dec_label_pc_31d9
  %73 = inttoptr i64 %71 to i64*, !insn.addr !1022
  %74 = call i64 @_ZNK4llvm22ConstantDataSequential8isStringEj(i64* %73, i32 8), !insn.addr !1022
  %75 = trunc i64 %74 to i8, !insn.addr !1023
  %76 = icmp eq i8 %75, 0, !insn.addr !1023
  %77 = icmp eq i1 %76, false, !insn.addr !1024
  br i1 %77, label %dec_label_pc_3271, label %dec_label_pc_3269, !insn.addr !1024

dec_label_pc_3269:                                ; preds = %dec_label_pc_3225
  %78 = call i64 @_ZNK4llvm22ConstantDataSequential14getElementTypeEv(i64* %73), !insn.addr !1025
  %79 = inttoptr i64 %78 to i64*, !insn.addr !1026
  %80 = call i64 @_ZNK4llvm4Type11isIntegerTyEj(i64* %79, i32 8), !insn.addr !1026
  %81 = trunc i64 %80 to i8, !insn.addr !1027
  %82 = icmp ne i8 %81, 0, !insn.addr !1027
  %83 = icmp eq i1 %82, false, !insn.addr !1028
  store i32 %stack_var_-610.145.reload, i32* %stack_var_-610.0.reg2mem, !insn.addr !1029
  br i1 %83, label %dec_label_pc_3849, label %dec_label_pc_3271, !insn.addr !1029

dec_label_pc_3271:                                ; preds = %dec_label_pc_3225, %dec_label_pc_3269
  %84 = call i64 @_ZNRSt8optionalImEdeEv(i64* nonnull %stack_var_-360), !insn.addr !1030
  %85 = inttoptr i64 %84 to i64*, !insn.addr !1031
  %86 = load i64, i64* %85, align 8, !insn.addr !1031
  %87 = zext i32 %stack_var_-608.0.reload to i64
  %88 = add i64 %86, %87, !insn.addr !1032
  %89 = call i64 @_ZNK4llvm22ConstantDataSequential14getNumElementsEv(i64* %73), !insn.addr !1033
  %90 = icmp ult i64 %89, %88, !insn.addr !1034
  %91 = icmp eq i1 %90, false, !insn.addr !1035
  %92 = icmp eq i1 %91, false, !insn.addr !1036
  store i32 %stack_var_-610.145.reload, i32* %stack_var_-610.0.reg2mem, !insn.addr !1037
  br i1 %92, label %dec_label_pc_3849, label %dec_label_pc_333b.preheader, !insn.addr !1037

dec_label_pc_333b.preheader:                      ; preds = %dec_label_pc_3271
  %93 = icmp eq i32 %stack_var_-608.0.reload, 0, !insn.addr !1038
  store i64 0, i64* %indvars.iv.reg2mem, !insn.addr !1039
  store i64 0, i64* %stack_var_-544.032.reg2mem, !insn.addr !1039
  store i64 0, i64* %stack_var_-544.528.reg2mem, !insn.addr !1039
  br i1 %93, label %dec_label_pc_37d4, label %dec_label_pc_32b9, !insn.addr !1039

dec_label_pc_32b9:                                ; preds = %dec_label_pc_333b.preheader, %dec_label_pc_32b9
  %stack_var_-544.032.reload = load i64, i64* %stack_var_-544.032.reg2mem
  %indvars.iv.reload = load i64, i64* %indvars.iv.reg2mem
  %94 = call i64 @_ZNK4llvm10DataLayout14isLittleEndianEv(i64* %arg2), !insn.addr !1040
  %95 = trunc i64 %94 to i8, !insn.addr !1041
  %96 = icmp eq i8 %95, 0, !insn.addr !1041
  %97 = trunc i64 %indvars.iv.reload to i32
  %98 = xor i32 %97, 31
  %99 = add i32 %98, %stack_var_-608.0.reload
  %storemerge4.in.in = select i1 %96, i32 %99, i32 %97
  %storemerge4.in = mul i32 %storemerge4.in.in, 8
  %storemerge4 = zext i32 %storemerge4.in to i64
  %100 = call i64 @_ZNRSt8optionalImEdeEv(i64* nonnull %stack_var_-360), !insn.addr !1042
  %101 = inttoptr i64 %100 to i64*, !insn.addr !1043
  %102 = load i64, i64* %101, align 8, !insn.addr !1043
  %103 = add i64 %102, %indvars.iv.reload, !insn.addr !1044
  %104 = inttoptr i64 %103 to i64*, !insn.addr !1045
  %105 = call i64 @_ZNK4llvm22ConstantDataSequential19getElementAsIntegerEm(i64* %73, i64* %104, i64 %102), !insn.addr !1045
  %106 = and i64 %storemerge4, and (i64 ptrtoint ([3 x i8]* @global_var_3f to i64), i64 255), !insn.addr !1046
  %107 = shl i64 %105, %106
  %108 = or i64 %107, %stack_var_-544.032.reload, !insn.addr !1047
  %indvars.iv.next = add nuw nsw i64 %indvars.iv.reload, 1
  %exitcond = icmp eq i64 %indvars.iv.next, %87
  store i64 %indvars.iv.next, i64* %indvars.iv.reg2mem, !insn.addr !1039
  store i64 %108, i64* %stack_var_-544.032.reg2mem, !insn.addr !1039
  store i64 %108, i64* %stack_var_-544.528.reg2mem, !insn.addr !1039
  br i1 %exitcond, label %dec_label_pc_37d4, label %dec_label_pc_32b9, !insn.addr !1039

dec_label_pc_3359:                                ; preds = %dec_label_pc_31d9
  %109 = call i64 @_ZN4llvm8dyn_castINS_11ConstantIntENS_8ConstantEEEDcPT0_(i64* %70), !insn.addr !1048
  %110 = icmp eq i64 %109, 0, !insn.addr !1049
  br i1 %110, label %dec_label_pc_34d9, label %dec_label_pc_337d, !insn.addr !1050

dec_label_pc_337d:                                ; preds = %dec_label_pc_3359
  %111 = inttoptr i64 %109 to i64*, !insn.addr !1051
  %112 = call i64 @_ZNK4llvm11ConstantInt11getBitWidthEv(i64* %111), !insn.addr !1051
  %113 = add i64 %112, 7, !insn.addr !1052
  %114 = udiv i64 %113, 8, !insn.addr !1053
  %115 = call i64 @_ZNRSt8optionalImEdeEv(i64* nonnull %stack_var_-360), !insn.addr !1054
  %116 = inttoptr i64 %115 to i64*, !insn.addr !1055
  %117 = load i64, i64* %116, align 8, !insn.addr !1055
  %118 = zext i32 %stack_var_-608.0.reload to i64, !insn.addr !1056
  %119 = add i64 %117, %118, !insn.addr !1057
  %120 = urem i64 %114, 536870912, !insn.addr !1058
  %121 = icmp ult i64 %120, %119, !insn.addr !1059
  %122 = icmp eq i1 %121, false, !insn.addr !1060
  %123 = icmp eq i1 %122, false, !insn.addr !1061
  store i32 %stack_var_-610.145.reload, i32* %stack_var_-610.0.reg2mem, !insn.addr !1062
  br i1 %123, label %dec_label_pc_3849, label %dec_label_pc_33c7, !insn.addr !1062

dec_label_pc_33c7:                                ; preds = %dec_label_pc_337d
  %124 = call i64 @_ZNK4llvm11ConstantInt8getValueEv(i64* %111), !insn.addr !1063
  %125 = inttoptr i64 %124 to i64*, !insn.addr !1064
  %126 = call i64 @_ZN4llvm5APIntC1ERKS0_(i64* nonnull %stack_var_-344, i64* %125), !insn.addr !1064
  %127 = icmp eq i32 %stack_var_-608.0.reload, 0, !insn.addr !1065
  store i32 0, i32* %storemerge735.reg2mem, !insn.addr !1066
  store i64 0, i64* %stack_var_-544.134.reg2mem, !insn.addr !1066
  store i64 0, i64* %stack_var_-544.1.lcssa.reg2mem, !insn.addr !1066
  br i1 %127, label %dec_label_pc_34be, label %dec_label_pc_33fa, !insn.addr !1066

dec_label_pc_33fa:                                ; preds = %dec_label_pc_33c7, %dec_label_pc_33fa
  %stack_var_-544.134.reload = load i64, i64* %stack_var_-544.134.reg2mem
  %storemerge735.reload = load i32, i32* %storemerge735.reg2mem
  %128 = call i64 @_ZNK4llvm10DataLayout14isLittleEndianEv(i64* %arg2), !insn.addr !1067
  %129 = trunc i64 %128 to i8, !insn.addr !1068
  %130 = icmp eq i8 %129, 0, !insn.addr !1068
  %131 = xor i32 %storemerge735.reload, 31
  %132 = add nuw i32 %131, %stack_var_-608.0.reload
  %storemerge8.in.in = select i1 %130, i32 %132, i32 %storemerge735.reload
  %storemerge8.in = mul i32 %storemerge8.in.in, 8
  %storemerge8 = zext i32 %storemerge8.in to i64
  %133 = call i64 @_ZNRSt8optionalImEdeEv(i64* nonnull %stack_var_-360), !insn.addr !1069
  %134 = inttoptr i64 %133 to i64*, !insn.addr !1070
  %135 = load i64, i64* %134, align 8, !insn.addr !1070
  %136 = trunc i64 %135 to i32
  %.tr = add i32 %storemerge735.reload, %136
  %137 = mul i32 %.tr, 8, !insn.addr !1071
  %138 = call i64 @_ZNK4llvm5APInt11extractBitsEjj(i64* nonnull %stack_var_-328, i64* nonnull %stack_var_-344, i32 8, i32 %137), !insn.addr !1072
  %139 = call i64 @_ZNK4llvm5APInt12getZExtValueEv(i64* nonnull %stack_var_-328), !insn.addr !1073
  %140 = and i64 %storemerge8, and (i64 ptrtoint ([3 x i8]* @global_var_3f to i64), i64 255), !insn.addr !1074
  %141 = shl i64 %139, %140
  %142 = or i64 %141, %stack_var_-544.134.reload, !insn.addr !1075
  %143 = call i64 @_ZN4llvm5APIntD1Ev(i64* nonnull %stack_var_-328), !insn.addr !1076
  %144 = add nuw nsw i32 %storemerge735.reload, 1, !insn.addr !1077
  %exitcond55 = icmp eq i32 %144, %stack_var_-608.0.reload
  store i32 %144, i32* %storemerge735.reg2mem, !insn.addr !1066
  store i64 %142, i64* %stack_var_-544.134.reg2mem, !insn.addr !1066
  store i64 %142, i64* %stack_var_-544.1.lcssa.reg2mem, !insn.addr !1066
  br i1 %exitcond55, label %dec_label_pc_34be, label %dec_label_pc_33fa, !insn.addr !1066

dec_label_pc_34be:                                ; preds = %dec_label_pc_33fa, %dec_label_pc_33c7
  %stack_var_-544.1.lcssa.reload = load i64, i64* %stack_var_-544.1.lcssa.reg2mem
  %145 = call i64 @_ZN4llvm5APIntD1Ev(i64* nonnull %stack_var_-344), !insn.addr !1078
  store i64 %stack_var_-544.1.lcssa.reload, i64* %stack_var_-544.528.reg2mem, !insn.addr !1079
  br label %dec_label_pc_37d4, !insn.addr !1079

dec_label_pc_34d9:                                ; preds = %dec_label_pc_3359
  %146 = call i64 @_ZN4llvm8dyn_castINS_10ConstantFPENS_8ConstantEEEDcPT0_(i64* %70), !insn.addr !1080
  %147 = icmp eq i64 %146, 0, !insn.addr !1081
  br i1 %147, label %dec_label_pc_3659, label %dec_label_pc_34fd, !insn.addr !1082

dec_label_pc_34fd:                                ; preds = %dec_label_pc_34d9
  %148 = inttoptr i64 %146 to i64*, !insn.addr !1083
  %149 = call i64 @_ZNK4llvm10ConstantFP11getValueAPFEv(i64* %148), !insn.addr !1083
  %150 = inttoptr i64 %149 to i64*, !insn.addr !1084
  %151 = call i64 @_ZNK4llvm7APFloat14bitcastToAPIntEv(i64* nonnull %stack_var_-344, i64* %150), !insn.addr !1084
  %152 = call i64 @_ZNK4llvm5APInt11getBitWidthEv(i64* nonnull %stack_var_-344), !insn.addr !1085
  %153 = add i64 %152, 7, !insn.addr !1086
  %154 = udiv i64 %153, 8, !insn.addr !1087
  %155 = call i64 @_ZNRSt8optionalImEdeEv(i64* nonnull %stack_var_-360), !insn.addr !1088
  %156 = inttoptr i64 %155 to i64*, !insn.addr !1089
  %157 = load i64, i64* %156, align 8, !insn.addr !1089
  %158 = zext i32 %stack_var_-608.0.reload to i64, !insn.addr !1090
  %159 = add i64 %157, %158, !insn.addr !1091
  %160 = urem i64 %154, 536870912, !insn.addr !1092
  %161 = icmp ult i64 %160, %159, !insn.addr !1093
  %162 = icmp eq i1 %161, false, !insn.addr !1094
  %163 = icmp eq i1 %162, false, !insn.addr !1095
  br i1 %163, label %dec_label_pc_37c6, label %dec_label_pc_362c.preheader, !insn.addr !1096

dec_label_pc_362c.preheader:                      ; preds = %dec_label_pc_34fd
  %164 = icmp eq i32 %stack_var_-608.0.reload, 0, !insn.addr !1097
  store i32 0, i32* %storemerge1138.reg2mem, !insn.addr !1098
  store i64 0, i64* %stack_var_-544.237.reg2mem, !insn.addr !1098
  store i64 0, i64* %stack_var_-544.3.ph.reg2mem, !insn.addr !1098
  br i1 %164, label %dec_label_pc_37c6.thread58, label %dec_label_pc_357a, !insn.addr !1098

dec_label_pc_357a:                                ; preds = %dec_label_pc_362c.preheader, %dec_label_pc_357a
  %stack_var_-544.237.reload = load i64, i64* %stack_var_-544.237.reg2mem
  %storemerge1138.reload = load i32, i32* %storemerge1138.reg2mem
  %165 = call i64 @_ZNK4llvm10DataLayout14isLittleEndianEv(i64* %arg2), !insn.addr !1099
  %166 = trunc i64 %165 to i8, !insn.addr !1100
  %167 = icmp eq i8 %166, 0, !insn.addr !1100
  %168 = xor i32 %storemerge1138.reload, 31
  %169 = add nuw i32 %168, %stack_var_-608.0.reload
  %storemerge12.in.in = select i1 %167, i32 %169, i32 %storemerge1138.reload
  %storemerge12.in = mul i32 %storemerge12.in.in, 8
  %storemerge12 = zext i32 %storemerge12.in to i64
  %170 = call i64 @_ZNRSt8optionalImEdeEv(i64* nonnull %stack_var_-360), !insn.addr !1101
  %171 = inttoptr i64 %170 to i64*, !insn.addr !1102
  %172 = load i64, i64* %171, align 8, !insn.addr !1102
  %173 = trunc i64 %172 to i32
  %.tr9 = add i32 %storemerge1138.reload, %173
  %174 = mul i32 %.tr9, 8, !insn.addr !1103
  %175 = call i64 @_ZNK4llvm5APInt11extractBitsEjj(i64* nonnull %stack_var_-328, i64* nonnull %stack_var_-344, i32 8, i32 %174), !insn.addr !1104
  %176 = call i64 @_ZNK4llvm5APInt12getZExtValueEv(i64* nonnull %stack_var_-328), !insn.addr !1105
  %177 = and i64 %storemerge12, and (i64 ptrtoint ([3 x i8]* @global_var_3f to i64), i64 255), !insn.addr !1106
  %178 = shl i64 %176, %177
  %179 = or i64 %178, %stack_var_-544.237.reload, !insn.addr !1107
  %180 = call i64 @_ZN4llvm5APIntD1Ev(i64* nonnull %stack_var_-328), !insn.addr !1108
  %181 = add nuw nsw i32 %storemerge1138.reload, 1, !insn.addr !1109
  %exitcond56 = icmp eq i32 %181, %stack_var_-608.0.reload
  store i32 %181, i32* %storemerge1138.reg2mem, !insn.addr !1098
  store i64 %179, i64* %stack_var_-544.237.reg2mem, !insn.addr !1098
  store i64 %179, i64* %stack_var_-544.3.ph.reg2mem, !insn.addr !1098
  br i1 %exitcond56, label %dec_label_pc_37c6.thread58, label %dec_label_pc_357a, !insn.addr !1098

dec_label_pc_3659:                                ; preds = %dec_label_pc_34d9
  %182 = call i64 @_ZN4llvm8dyn_castINS_13ConstantArrayENS_8ConstantEEEDcPT0_(i64* %70), !insn.addr !1110
  %183 = icmp eq i64 %182, 0, !insn.addr !1111
  store i32 %stack_var_-610.145.reload, i32* %stack_var_-610.0.reg2mem, !insn.addr !1112
  br i1 %183, label %dec_label_pc_3849, label %dec_label_pc_367d, !insn.addr !1112

dec_label_pc_367d:                                ; preds = %dec_label_pc_3659
  %184 = inttoptr i64 %182 to i64*, !insn.addr !1113
  %185 = call i64 @_ZNK4llvm13ConstantArray7getTypeEv(i64* %184), !insn.addr !1113
  %186 = inttoptr i64 %185 to i64*, !insn.addr !1114
  %187 = call i64 @_ZNK4llvm9ArrayType14getElementTypeEv(i64* %186), !insn.addr !1114
  %188 = inttoptr i64 %187 to i64*, !insn.addr !1115
  %189 = call i64 @_ZNK4llvm4Type11isIntegerTyEj(i64* %188, i32 8), !insn.addr !1115
  %190 = trunc i64 %189 to i8, !insn.addr !1116
  %191 = icmp eq i8 %190, 0, !insn.addr !1116
  store i32 %stack_var_-610.145.reload, i32* %stack_var_-610.0.reg2mem, !insn.addr !1117
  br i1 %191, label %dec_label_pc_3849, label %dec_label_pc_36a5, !insn.addr !1117

dec_label_pc_36a5:                                ; preds = %dec_label_pc_367d
  %192 = call i64 @_ZNRSt8optionalImEdeEv(i64* nonnull %stack_var_-360), !insn.addr !1118
  %193 = inttoptr i64 %192 to i64*, !insn.addr !1119
  %194 = load i64, i64* %193, align 8, !insn.addr !1119
  %195 = zext i32 %stack_var_-608.0.reload to i64, !insn.addr !1120
  %196 = add i64 %194, %195, !insn.addr !1121
  %197 = call i64 @_ZNK4llvm17ConstantAggregate14getNumOperandsEv(i64* %184), !insn.addr !1122
  %198 = and i64 %197, 4294967295, !insn.addr !1123
  %199 = icmp ult i64 %198, %196, !insn.addr !1124
  %200 = icmp eq i32 %stack_var_-608.0.reload, 0, !insn.addr !1125
  %or.cond = or i1 %200, %199
  store i32 0, i32* %storemerge1441.reg2mem, !insn.addr !1126
  store i64 0, i64* %stack_var_-544.440.reg2mem, !insn.addr !1126
  store i32 %stack_var_-610.145.reload, i32* %stack_var_-610.0.reg2mem, !insn.addr !1126
  br i1 %or.cond, label %dec_label_pc_3849, label %dec_label_pc_36fa, !insn.addr !1126

dec_label_pc_36fa:                                ; preds = %dec_label_pc_36a5, %dec_label_pc_3779
  %storemerge1441.reload = load i32, i32* %storemerge1441.reg2mem
  %201 = call i64 @_ZNRSt8optionalImEdeEv(i64* nonnull %stack_var_-360), !insn.addr !1127
  %202 = inttoptr i64 %201 to i64*, !insn.addr !1128
  %203 = load i64, i64* %202, align 8, !insn.addr !1128
  %204 = trunc i64 %203 to i32, !insn.addr !1129
  %205 = add i32 %storemerge1441.reload, %204, !insn.addr !1130
  %206 = call i64 @_ZNK4llvm17ConstantAggregate10getOperandEj(i64* %184, i32 %205), !insn.addr !1131
  %207 = inttoptr i64 %206 to i64*, !insn.addr !1132
  %208 = call i64 @_ZN4llvm8dyn_castINS_11ConstantIntENS_8ConstantEEEDcPT0_(i64* %207), !insn.addr !1132
  %209 = icmp eq i64 %208, 0, !insn.addr !1133
  %210 = icmp eq i1 %209, false, !insn.addr !1134
  store i32 %stack_var_-610.145.reload, i32* %stack_var_-610.0.reg2mem, !insn.addr !1134
  br i1 %210, label %dec_label_pc_3749, label %dec_label_pc_3849, !insn.addr !1134

dec_label_pc_3749:                                ; preds = %dec_label_pc_36fa
  %stack_var_-544.440.reload = load i64, i64* %stack_var_-544.440.reg2mem
  %211 = call i64 @_ZNK4llvm10DataLayout14isLittleEndianEv(i64* %arg2), !insn.addr !1135
  %212 = trunc i64 %211 to i8, !insn.addr !1136
  %213 = icmp eq i8 %212, 0, !insn.addr !1136
  br i1 %213, label %dec_label_pc_3767, label %dec_label_pc_375c, !insn.addr !1137

dec_label_pc_375c:                                ; preds = %dec_label_pc_3749
  %214 = mul i32 %storemerge1441.reload, 8, !insn.addr !1138
  store i32 %214, i32* %storemerge19.in.reg2mem, !insn.addr !1139
  br label %dec_label_pc_3779, !insn.addr !1139

dec_label_pc_3767:                                ; preds = %dec_label_pc_3749
  %215 = sub nsw i32 %stack_var_-608.0.reload, %storemerge1441.reload, !insn.addr !1140
  %216 = mul i32 %215, 8, !insn.addr !1141
  %217 = add i32 %216, -8, !insn.addr !1142
  store i32 %217, i32* %storemerge19.in.reg2mem, !insn.addr !1142
  br label %dec_label_pc_3779, !insn.addr !1142

dec_label_pc_3779:                                ; preds = %dec_label_pc_3767, %dec_label_pc_375c
  %storemerge19.in.reload = load i32, i32* %storemerge19.in.reg2mem
  %storemerge19 = zext i32 %storemerge19.in.reload to i64
  %218 = inttoptr i64 %208 to i64*, !insn.addr !1143
  %219 = call i64 @_ZNK4llvm11ConstantInt12getZExtValueEv(i64* %218), !insn.addr !1143
  %220 = and i64 %storemerge19, and (i64 ptrtoint ([3 x i8]* @global_var_3f to i64), i64 255), !insn.addr !1144
  %221 = shl i64 %219, %220
  %222 = or i64 %221, %stack_var_-544.440.reload, !insn.addr !1145
  %223 = add nuw nsw i32 %storemerge1441.reload, 1, !insn.addr !1146
  %224 = icmp ugt i32 %stack_var_-608.0.reload, %223, !insn.addr !1125
  store i32 %223, i32* %storemerge1441.reg2mem, !insn.addr !1147
  store i64 %222, i64* %stack_var_-544.440.reg2mem, !insn.addr !1147
  store i64 %222, i64* %stack_var_-544.528.reg2mem, !insn.addr !1147
  br i1 %224, label %dec_label_pc_36fa, label %dec_label_pc_37d4, !insn.addr !1147

dec_label_pc_37c6.thread58:                       ; preds = %dec_label_pc_357a, %dec_label_pc_362c.preheader
  %stack_var_-544.3.ph.reload = load i64, i64* %stack_var_-544.3.ph.reg2mem
  %225 = call i64 @_ZN4llvm5APIntD1Ev(i64* nonnull %stack_var_-344), !insn.addr !1148
  store i64 %stack_var_-544.3.ph.reload, i64* %stack_var_-544.528.reg2mem
  br label %dec_label_pc_37d4

dec_label_pc_37c6:                                ; preds = %dec_label_pc_34fd
  %226 = call i64 @_ZN4llvm5APIntD1Ev(i64* nonnull %stack_var_-344), !insn.addr !1148
  store i32 %stack_var_-610.145.reload, i32* %stack_var_-610.0.reg2mem
  br label %dec_label_pc_3849

dec_label_pc_37d4:                                ; preds = %dec_label_pc_32b9, %dec_label_pc_3779, %dec_label_pc_333b.preheader, %dec_label_pc_37c6.thread58, %dec_label_pc_34be
  %stack_var_-544.528.reload = load i64, i64* %stack_var_-544.528.reg2mem
  %227 = call i64 @_ZN25deobfuscate_select_memory12_GLOBAL__N_116constantFromBitsEPN4llvm4TypeEm(i64* %52, i64 %stack_var_-544.528.reload), !insn.addr !1149
  %228 = icmp eq i64 %227, 0, !insn.addr !1150
  store i32 %stack_var_-610.145.reload, i32* %stack_var_-610.0.reg2mem, !insn.addr !1151
  br i1 %228, label %dec_label_pc_3849, label %dec_label_pc_37fe, !insn.addr !1151

dec_label_pc_37fe:                                ; preds = %dec_label_pc_37d4
  %229 = inttoptr i64 %227 to i64*, !insn.addr !1152
  %230 = call i64 @_ZN4llvm5Value18replaceAllUsesWithEPS0_(i64* %21, i64* %229), !insn.addr !1152
  %231 = call i64 @_ZN4llvm23SmallVectorTemplateBaseIPNS_8LoadInstELb1EE9push_backES2_(i64* nonnull %stack_var_-312, i64* %21), !insn.addr !1153
  store i32 1, i32* %stack_var_-610.0.reg2mem, !insn.addr !1154
  br label %dec_label_pc_3849, !insn.addr !1154

dec_label_pc_3849:                                ; preds = %dec_label_pc_36fa, %dec_label_pc_37c6, %dec_label_pc_367d, %dec_label_pc_36a5, %dec_label_pc_3271, %dec_label_pc_3269, %dec_label_pc_337d, %dec_label_pc_3659, %dec_label_pc_304e, %dec_label_pc_30bb, %dec_label_pc_31b8, %dec_label_pc_30e5.critedge, %dec_label_pc_30a0, %dec_label_pc_2ffd, %dec_label_pc_3037, %dec_label_pc_3164, %dec_label_pc_37fe, %dec_label_pc_37d4
  %stack_var_-610.0.reload = load i32, i32* %stack_var_-610.0.reg2mem
  %232 = call i64 @_ZN4llvm21ilist_iterator_w_bitsINS_12ilist_detail12node_optionsINS_11InstructionELb0ELb0EvLb1ENS_10BasicBlockEEELb0ELb0EEppEv(i64* nonnull %stack_var_-392), !insn.addr !1155
  %233 = call i64 @_ZN4llvmneERKNS_21ilist_iterator_w_bitsINS_12ilist_detail12node_optionsINS_11InstructionELb0ELb0EvLb1ENS_10BasicBlockEEELb0ELb0EEES8_(i64* nonnull %stack_var_-392, i64* nonnull %stack_var_-376), !insn.addr !971
  %234 = trunc i64 %233 to i8, !insn.addr !972
  %235 = icmp eq i8 %234, 0, !insn.addr !972
  %236 = icmp eq i1 %235, false, !insn.addr !973
  store i32 %stack_var_-610.0.reload, i32* %stack_var_-610.145.reg2mem, !insn.addr !973
  store i32 %stack_var_-610.0.reload, i32* %stack_var_-610.1.lcssa.reg2mem, !insn.addr !973
  br i1 %236, label %dec_label_pc_2ffd, label %dec_label_pc_3879, !insn.addr !973

dec_label_pc_3879:                                ; preds = %dec_label_pc_3849, %dec_label_pc_2f9a
  %stack_var_-610.1.lcssa.reload = load i32, i32* %stack_var_-610.1.lcssa.reg2mem
  %237 = call i64 @_ZN4llvm14ilist_iteratorINS_12ilist_detail12node_optionsINS_10BasicBlockELb0ELb0EvLb0EvEELb0ELb0EEppEv(i64* nonnull %stack_var_-560), !insn.addr !1156
  %238 = call i64 @_ZN4llvmneERKNS_14ilist_iteratorINS_12ilist_detail12node_optionsINS_10BasicBlockELb0ELb0EvLb0EvEELb0ELb0EEES7_(i64* nonnull %stack_var_-560, i64* nonnull %stack_var_-552), !insn.addr !963
  %239 = trunc i64 %238 to i8, !insn.addr !964
  %240 = icmp eq i8 %239, 0, !insn.addr !964
  %241 = icmp eq i1 %240, false, !insn.addr !965
  store i32 %stack_var_-610.1.lcssa.reload, i32* %stack_var_-610.250.reg2mem, !insn.addr !965
  store i32 %stack_var_-610.1.lcssa.reload, i32* %stack_var_-610.2.lcssa.reg2mem, !insn.addr !965
  br i1 %241, label %dec_label_pc_2f9a, label %dec_label_pc_38a9, !insn.addr !965

dec_label_pc_38a9:                                ; preds = %dec_label_pc_3879, %dec_label_pc_2f18
  %stack_var_-610.2.lcssa.reload = load i32, i32* %stack_var_-610.2.lcssa.reg2mem
  %242 = call i64 @_ZN4llvm25SmallVectorTemplateCommonIPNS_8LoadInstEvE5beginEv(i64* nonnull %stack_var_-312), !insn.addr !1157
  %243 = call i64 @_ZN4llvm25SmallVectorTemplateCommonIPNS_8LoadInstEvE3endEv(i64* nonnull %stack_var_-312), !insn.addr !1158
  %244 = icmp eq i64 %242, %243, !insn.addr !1159
  %245 = icmp eq i1 %244, false, !insn.addr !1160
  store i64 %242, i64* %stack_var_-536.031.reg2mem, !insn.addr !1160
  br i1 %245, label %dec_label_pc_38e5, label %dec_label_pc_391d, !insn.addr !1160

dec_label_pc_38e5:                                ; preds = %dec_label_pc_38a9, %dec_label_pc_38e5
  %stack_var_-536.031.reload = load i64, i64* %stack_var_-536.031.reg2mem
  %246 = inttoptr i64 %stack_var_-536.031.reload to i64*, !insn.addr !1161
  %247 = load i64, i64* %246, align 8, !insn.addr !1161
  %248 = inttoptr i64 %247 to i64*, !insn.addr !1162
  %249 = call i64 @_ZN4llvm11Instruction15eraseFromParentEv(i64* %248), !insn.addr !1162
  %250 = add i64 %stack_var_-536.031.reload, 8, !insn.addr !1163
  %251 = icmp eq i64 %250, %243, !insn.addr !1159
  %252 = icmp eq i1 %251, false, !insn.addr !1160
  store i64 %250, i64* %stack_var_-536.031.reg2mem, !insn.addr !1160
  br i1 %252, label %dec_label_pc_38e5, label %dec_label_pc_391d, !insn.addr !1160

dec_label_pc_391d:                                ; preds = %dec_label_pc_38e5, %dec_label_pc_38a9
  %253 = call i64 @_ZN4llvm11SmallVectorIPNS_8LoadInstELj32EED1Ev(i64* nonnull %stack_var_-312), !insn.addr !1164
  %254 = urem i32 %stack_var_-610.2.lcssa.reload, 256, !insn.addr !1165
  %255 = zext i32 %254 to i64, !insn.addr !1165
  %256 = call i64 @__readfsqword(i64 40), !insn.addr !1166
  %257 = icmp eq i64 %0, %256, !insn.addr !1166
  store i64 %255, i64* %rax.0.reg2mem, !insn.addr !1167
  br i1 %257, label %dec_label_pc_3949, label %dec_label_pc_3944, !insn.addr !1167

dec_label_pc_3944:                                ; preds = %dec_label_pc_391d
  %258 = call i64 @__stack_chk_fail(), !insn.addr !1168
  store i64 %258, i64* %rax.0.reg2mem, !insn.addr !1168
  br label %dec_label_pc_3949, !insn.addr !1168

dec_label_pc_3949:                                ; preds = %dec_label_pc_3944, %dec_label_pc_391d
  %rax.0.reload = load i64, i64* %rax.0.reg2mem
  ret i64 %rax.0.reload, !insn.addr !1169

; uselistorder directives
  uselistorder i64 %243, { 1, 0 }
  uselistorder i32 %storemerge1441.reload, { 1, 0, 3, 2 }
  uselistorder i32 %storemerge1138.reload, { 1, 3, 0, 2 }
  uselistorder i32 %storemerge735.reload, { 1, 3, 0, 2 }
  uselistorder i64 %102, { 1, 0 }
  uselistorder i64 %indvars.iv.reload, { 0, 2, 1 }
  uselistorder i64 %87, { 1, 0 }
  uselistorder i64* %73, { 1, 2, 0, 3 }
  uselistorder i32 %stack_var_-608.0.reload, { 5, 0, 11, 1, 10, 14, 8, 2, 9, 13, 7, 3, 12, 6, 4 }
  uselistorder i32 %58, { 1, 0 }
  uselistorder i64* %21, { 1, 0, 2, 3, 4, 5, 6 }
  uselistorder i32 %stack_var_-610.145.reload, { 10, 11, 0, 2, 1, 6, 5, 3, 4, 12, 9, 13, 8, 14, 7, 15, 16 }
  uselistorder i64* %stack_var_-560, { 1, 2, 3, 0, 4 }
  uselistorder i64* %stack_var_-552, { 1, 0, 2, 3 }
  uselistorder i64* %stack_var_-392, { 1, 2, 3, 0, 4 }
  uselistorder i64* %stack_var_-376, { 1, 0, 2 }
  uselistorder i64* %stack_var_-344, { 1, 0, 2, 3, 4, 5, 6, 7 }
  uselistorder i32* %stack_var_-610.250.reg2mem, { 2, 0, 1 }
  uselistorder i32* %stack_var_-610.145.reg2mem, { 2, 0, 1 }
  uselistorder i64* %indvars.iv.reg2mem, { 2, 0, 1 }
  uselistorder i64* %stack_var_-544.032.reg2mem, { 2, 0, 1 }
  uselistorder i32* %storemerge735.reg2mem, { 2, 0, 1 }
  uselistorder i64* %stack_var_-544.134.reg2mem, { 2, 0, 1 }
  uselistorder i32* %storemerge1138.reg2mem, { 2, 0, 1 }
  uselistorder i64* %stack_var_-544.237.reg2mem, { 2, 0, 1 }
  uselistorder i32* %storemerge1441.reg2mem, { 2, 0, 1 }
  uselistorder i64* %stack_var_-544.440.reg2mem, { 2, 0, 1 }
  uselistorder i64* %stack_var_-544.528.reg2mem, { 0, 4, 2, 5, 1, 3 }
  uselistorder i32* %stack_var_-610.0.reg2mem, { 0, 11, 12, 13, 1, 3, 2, 7, 6, 4, 5, 14, 10, 15, 9, 16, 8, 17, 18 }
  uselistorder i64* %stack_var_-536.031.reg2mem, { 2, 0, 1 }
  uselistorder i64 (i64*)* @_ZNK4llvm11ConstantInt12getZExtValueEv, { 3, 2, 1, 0 }
  uselistorder i64 (i64*, i64*)* @_ZNK4llvm7APFloat14bitcastToAPIntEv, { 2, 1, 0 }
  uselistorder i64 (i64*)* @_ZNK4llvm10ConstantFP11getValueAPFEv, { 2, 1, 0 }
  uselistorder i64 (i64*, i64*, i32, i32)* @_ZNK4llvm5APInt11extractBitsEjj, { 1, 0 }
  uselistorder i64 (i64*)* @_ZN4llvm8dyn_castINS_11ConstantIntENS_8ConstantEEEDcPT0_, { 2, 1, 0 }
  uselistorder i64 (i64*)* @_ZNK4llvm10DataLayout14isLittleEndianEv, { 3, 2, 1, 0 }
  uselistorder i64 (i64*, i32)* @_ZNK4llvm4Type11isIntegerTyEj, { 1, 0 }
  uselistorder i64 (i64*)* @_ZNK4llvm4Type10isDoubleTyEv, { 3, 2, 1, 0 }
  uselistorder i64 (i64*)* @_ZNK4llvm4Type9isFloatTyEv, { 3, 2, 1, 0 }
  uselistorder i64 (i64*)* @_ZNK4llvm4Type18getIntegerBitWidthEv, { 1, 0 }
  uselistorder i64 (i64*, i64*)* @_ZN25deobfuscate_select_memory12_GLOBAL__N_122resolveConstantAddressEPN4llvm5ValueERKNS1_10DataLayoutE, { 2, 1, 0 }
  uselistorder i64 (i64*)* @_ZN4llvm8dyn_castINS_14GlobalVariableENS_5ValueEEEDcPT0_, { 1, 0 }
  uselistorder i64 (i64*)* @_ZN4llvm5Value17stripPointerCastsEv, { 3, 2, 1, 0 }
  uselistorder label %dec_label_pc_38e5, { 1, 0 }
  uselistorder label %dec_label_pc_3849, { 16, 17, 1, 0, 3, 2, 7, 6, 4, 5, 10, 15, 11, 9, 12, 8, 14, 13 }
  uselistorder label %dec_label_pc_37d4, { 3, 1, 4, 0, 2 }
  uselistorder label %dec_label_pc_36fa, { 1, 0 }
  uselistorder label %dec_label_pc_357a, { 1, 0 }
  uselistorder label %dec_label_pc_33fa, { 1, 0 }
  uselistorder label %dec_label_pc_32b9, { 1, 0 }
  uselistorder label %dec_label_pc_3271, { 1, 0 }
  uselistorder label %dec_label_pc_30e5.critedge, { 1, 0 }
  uselistorder label %dec_label_pc_2ffd, { 1, 0 }
  uselistorder label %dec_label_pc_2f9a, { 1, 0 }
}

define i64 @_ZN25deobfuscate_select_memory12_GLOBAL__N_123foldLocalConstantMemoryERN4llvm8FunctionERKNS1_10DataLayoutE(i64* %arg1, i64* %arg2) local_unnamed_addr {
dec_label_pc_394f:
  %rax.0.reg2mem = alloca i64, !insn.addr !1170
  %stack_var_-560.010.reg2mem = alloca i64, !insn.addr !1170
  %stack_var_-594.2.lcssa.reg2mem = alloca i32, !insn.addr !1170
  %stack_var_-594.1.lcssa.reg2mem = alloca i32, !insn.addr !1170
  %stack_var_-594.0.reg2mem = alloca i32, !insn.addr !1170
  %stack_var_-568.0.lcssa.reg2mem = alloca i64, !insn.addr !1170
  %stack_var_-568.013.reg2mem = alloca i64, !insn.addr !1170
  %storemerge414.reg2mem = alloca i32, !insn.addr !1170
  %storemerge11.reg2mem = alloca i32, !insn.addr !1170
  %stack_var_-594.115.reg2mem = alloca i32, !insn.addr !1170
  %stack_var_-594.218.reg2mem = alloca i32, !insn.addr !1170
  %stack_var_-464 = alloca i64, align 8
  %stack_var_-392 = alloca i64, align 8
  %stack_var_-408 = alloca i64, align 8
  %stack_var_-424 = alloca i64, align 8
  %stack_var_-344 = alloca i64, align 8
  %stack_var_-440 = alloca i64, align 8
  %stack_var_-456 = alloca i64, align 8
  %stack_var_-376 = alloca i64, align 8
  %stack_var_-576 = alloca i64, align 8
  %stack_var_-584 = alloca i64, align 8
  %stack_var_-312 = alloca i64, align 8
  %0 = call i64 @__readfsqword(i64 40), !insn.addr !1171
  %1 = call i64 @_ZN4llvm11SmallVectorIPNS_8LoadInstELj32EEC1Ev(i64* nonnull %stack_var_-312), !insn.addr !1172
  %2 = call i64 @_ZN4llvm8Function5beginEv(i64* %arg1), !insn.addr !1173
  store i64 %2, i64* %stack_var_-584, align 8, !insn.addr !1174
  %3 = call i64 @_ZN4llvm8Function3endEv(i64* %arg1), !insn.addr !1175
  store i64 %3, i64* %stack_var_-576, align 8, !insn.addr !1176
  %4 = call i64 @_ZN4llvmneERKNS_14ilist_iteratorINS_12ilist_detail12node_optionsINS_10BasicBlockELb0ELb0EvLb0EvEELb0ELb0EEES7_(i64* nonnull %stack_var_-584, i64* nonnull %stack_var_-576), !insn.addr !1177
  %5 = trunc i64 %4 to i8, !insn.addr !1178
  %6 = icmp eq i8 %5, 0, !insn.addr !1178
  %7 = icmp eq i1 %6, false, !insn.addr !1179
  store i32 0, i32* %stack_var_-594.2.lcssa.reg2mem, !insn.addr !1179
  br i1 %7, label %dec_label_pc_39d1.lr.ph, label %dec_label_pc_3f80, !insn.addr !1179

dec_label_pc_39d1.lr.ph:                          ; preds = %dec_label_pc_394f
  %8 = ptrtoint i64* %arg2 to i64
  %9 = ptrtoint i64* %stack_var_-576 to i64, !insn.addr !1180
  %10 = ptrtoint i64* %stack_var_-440 to i64
  store i32 0, i32* %stack_var_-594.218.reg2mem
  br label %dec_label_pc_39d1

dec_label_pc_39d1:                                ; preds = %dec_label_pc_39d1.lr.ph, %dec_label_pc_3f41
  %stack_var_-594.218.reload = load i32, i32* %stack_var_-594.218.reg2mem
  %11 = call i64 @_ZNK4llvm14ilist_iteratorINS_12ilist_detail12node_optionsINS_10BasicBlockELb0ELb0EvLb0EvEELb0ELb0EEdeEv(i64* nonnull %stack_var_-584), !insn.addr !1181
  %12 = call i64 @_ZN4llvm8DenseMapIN25deobfuscate_select_memory12_GLOBAL__N_17ByteKeyEhNS2_11ByteKeyInfoENS_6detail12DenseMapPairIS3_hEEEC1Ej(i64* nonnull %stack_var_-376, i32 0), !insn.addr !1182
  %13 = call i64 @_ZN4llvm10BasicBlock5beginEv(i64 %11, i64 0, i64 %9), !insn.addr !1183
  store i64 %13, i64* %stack_var_-456, align 8, !insn.addr !1184
  %14 = inttoptr i64 %11 to i64*, !insn.addr !1185
  %15 = call i64 @_ZN4llvm10BasicBlock3endEv(i64* %14), !insn.addr !1185
  store i64 %15, i64* %stack_var_-440, align 8, !insn.addr !1186
  %16 = call i64 @_ZN4llvmneERKNS_21ilist_iterator_w_bitsINS_12ilist_detail12node_optionsINS_11InstructionELb0ELb0EvLb1ENS_10BasicBlockEEELb0ELb0EEES8_(i64* nonnull %stack_var_-456, i64* nonnull %stack_var_-440), !insn.addr !1187
  %17 = trunc i64 %16 to i8, !insn.addr !1188
  %18 = icmp eq i8 %17, 0, !insn.addr !1188
  %19 = icmp eq i1 %18, false, !insn.addr !1189
  store i32 %stack_var_-594.218.reload, i32* %stack_var_-594.115.reg2mem, !insn.addr !1189
  store i32 %stack_var_-594.218.reload, i32* %stack_var_-594.1.lcssa.reg2mem, !insn.addr !1189
  br i1 %19, label %dec_label_pc_3a48, label %dec_label_pc_3f41, !insn.addr !1189

dec_label_pc_3a48:                                ; preds = %dec_label_pc_39d1, %dec_label_pc_3f11
  %stack_var_-594.115.reload = load i32, i32* %stack_var_-594.115.reg2mem
  %20 = call i64 @_ZNK4llvm21ilist_iterator_w_bitsINS_12ilist_detail12node_optionsINS_11InstructionELb0ELb0EvLb1ENS_10BasicBlockEEELb0ELb0EEdeEv(i64* nonnull %stack_var_-456), !insn.addr !1190
  %21 = inttoptr i64 %20 to i64*, !insn.addr !1191
  %22 = call i64 @_ZN4llvm8dyn_castINS_8CallBaseENS_11InstructionEEEDcPT0_(i64* %21), !insn.addr !1191
  %23 = icmp eq i64 %22, 0, !insn.addr !1192
  br i1 %23, label %dec_label_pc_3aac, label %dec_label_pc_3a7e, !insn.addr !1193

dec_label_pc_3a7e:                                ; preds = %dec_label_pc_3a48
  %24 = inttoptr i64 %22 to i64*, !insn.addr !1194
  %25 = call i64 @_ZNK4llvm8CallBase15onlyReadsMemoryEv(i64* %24), !insn.addr !1194
  %26 = trunc i64 %25 to i8
  %27 = icmp eq i8 %26, 1, !insn.addr !1195
  store i32 %stack_var_-594.115.reload, i32* %stack_var_-594.0.reg2mem, !insn.addr !1196
  br i1 %27, label %dec_label_pc_3f11, label %dec_label_pc_3a98, !insn.addr !1196

dec_label_pc_3a98:                                ; preds = %dec_label_pc_3a7e
  %28 = call i64 @_ZN4llvm12DenseMapBaseINS_8DenseMapIN25deobfuscate_select_memory12_GLOBAL__N_17ByteKeyEhNS3_11ByteKeyInfoENS_6detail12DenseMapPairIS4_hEEEES4_hS5_S8_E5clearEv(i64* nonnull %stack_var_-376, i64 %10, i64 %10), !insn.addr !1197
  store i32 %stack_var_-594.115.reload, i32* %stack_var_-594.0.reg2mem, !insn.addr !1198
  br label %dec_label_pc_3f11, !insn.addr !1198

dec_label_pc_3aac:                                ; preds = %dec_label_pc_3a48
  %29 = call i64 @_ZN4llvm8dyn_castINS_9StoreInstENS_11InstructionEEEDcPT0_(i64* %21), !insn.addr !1199
  %30 = icmp eq i64 %29, 0, !insn.addr !1200
  br i1 %30, label %dec_label_pc_3c8e, label %dec_label_pc_3ad0, !insn.addr !1201

dec_label_pc_3ad0:                                ; preds = %dec_label_pc_3aac
  %31 = inttoptr i64 %29 to i64*, !insn.addr !1202
  %32 = call i64 @_ZN4llvm9StoreInst17getPointerOperandEv(i64* %31), !insn.addr !1202
  %33 = inttoptr i64 %32 to i64*, !insn.addr !1203
  %34 = call i64 @_ZN25deobfuscate_select_memory12_GLOBAL__N_122resolveSymbolicAddressEPN4llvm5ValueERKNS1_10DataLayoutE(i64* nonnull %stack_var_-344, i64* %33, i64* %arg2), !insn.addr !1203
  %35 = call i64 @_ZNKSt8optionalIN25deobfuscate_select_memory12_GLOBAL__N_115SymbolicAddressEEcvbEv(i64* nonnull %stack_var_-344), !insn.addr !1204
  %36 = trunc i64 %35 to i8
  %37 = icmp eq i8 %36, 1, !insn.addr !1205
  br i1 %37, label %dec_label_pc_3b25, label %dec_label_pc_3b11, !insn.addr !1206

dec_label_pc_3b11:                                ; preds = %dec_label_pc_3ad0
  %38 = call i64 @_ZN4llvm12DenseMapBaseINS_8DenseMapIN25deobfuscate_select_memory12_GLOBAL__N_17ByteKeyEhNS3_11ByteKeyInfoENS_6detail12DenseMapPairIS4_hEEEES4_hS5_S8_E5clearEv(i64* nonnull %stack_var_-376, i64 %32, i64 %8), !insn.addr !1207
  store i32 %stack_var_-594.115.reload, i32* %stack_var_-594.0.reg2mem, !insn.addr !1208
  br label %dec_label_pc_3f11, !insn.addr !1208

dec_label_pc_3b25:                                ; preds = %dec_label_pc_3ad0
  %39 = call i64 @_ZN4llvm9StoreInst15getValueOperandEv(i64* %31), !insn.addr !1209
  %40 = inttoptr i64 %39 to i64*, !insn.addr !1210
  %41 = call i64 @_ZNK4llvm5Value7getTypeEv(i64* %40), !insn.addr !1210
  %42 = inttoptr i64 %41 to i64*, !insn.addr !1211
  %43 = call i64 @_ZN25deobfuscate_select_memory12_GLOBAL__N_120loadOrStoreByteWidthEPN4llvm4TypeE(i64* %42), !insn.addr !1211
  store i64 %43, i64* %stack_var_-424, align 8, !insn.addr !1212
  %44 = call i64 @_ZNKSt8optionalIjEcvbEv(i64* nonnull %stack_var_-424), !insn.addr !1213
  %45 = trunc i64 %44 to i8
  %46 = icmp eq i8 %45, 1, !insn.addr !1214
  %47 = icmp eq i1 %46, false, !insn.addr !1215
  store i32 %stack_var_-594.115.reload, i32* %stack_var_-594.0.reg2mem, !insn.addr !1215
  br i1 %47, label %dec_label_pc_3f11, label %dec_label_pc_3b65, !insn.addr !1215

dec_label_pc_3b65:                                ; preds = %dec_label_pc_3b25
  %48 = call i64 @_ZN4llvm9StoreInst15getValueOperandEv(i64* %31), !insn.addr !1216
  %49 = inttoptr i64 %48 to i64*, !insn.addr !1217
  %50 = call i64 @_ZNK4llvm5Value7getTypeEv(i64* %49), !insn.addr !1217
  %51 = call i64 @_ZN4llvm9StoreInst15getValueOperandEv(i64* %31), !insn.addr !1218
  %52 = inttoptr i64 %51 to i64*, !insn.addr !1219
  %53 = inttoptr i64 %50 to i64*, !insn.addr !1219
  %54 = call i64 @_ZN25deobfuscate_select_memory12_GLOBAL__N_118constantScalarBitsEPN4llvm5ValueEPNS1_4TypeE(i64* %52, i64* %53), !insn.addr !1219
  store i64 %54, i64* %stack_var_-408, align 8, !insn.addr !1220
  %55 = call i64 @_ZNRSt8optionalIjEdeEv(i64* nonnull %stack_var_-424), !insn.addr !1221
  %56 = inttoptr i64 %55 to i32*, !insn.addr !1222
  %57 = load i32, i32* %56, align 4, !insn.addr !1222
  %58 = icmp ne i32 %57, 0, !insn.addr !1223
  %59 = icmp eq i1 %58, false, !insn.addr !1224
  %60 = icmp eq i1 %59, false, !insn.addr !1225
  store i32 0, i32* %storemerge11.reg2mem, !insn.addr !1225
  store i32 %stack_var_-594.115.reload, i32* %stack_var_-594.0.reg2mem, !insn.addr !1225
  br i1 %60, label %dec_label_pc_3bb6, label %dec_label_pc_3f11, !insn.addr !1225

dec_label_pc_3bb6:                                ; preds = %dec_label_pc_3b65, %dec_label_pc_3c60
  %storemerge11.reload = load i32, i32* %storemerge11.reg2mem
  %61 = call i64 @_ZNSt8optionalIN25deobfuscate_select_memory12_GLOBAL__N_115SymbolicAddressEEptEv(i64* nonnull %stack_var_-344), !insn.addr !1226
  %62 = inttoptr i64 %61 to i64*, !insn.addr !1227
  %63 = load i64, i64* %62, align 8, !insn.addr !1227
  store i64 %63, i64* %stack_var_-392, align 8, !insn.addr !1228
  %64 = call i64 @_ZNSt8optionalIN25deobfuscate_select_memory12_GLOBAL__N_115SymbolicAddressEEptEv(i64* nonnull %stack_var_-344), !insn.addr !1229
  %65 = call i64 @_ZNKSt8optionalImEcvbEv(i64* nonnull %stack_var_-408), !insn.addr !1230
  %66 = trunc i64 %65 to i8, !insn.addr !1231
  %67 = icmp eq i8 %66, 0, !insn.addr !1231
  br i1 %67, label %dec_label_pc_3c47, label %dec_label_pc_3c05, !insn.addr !1232

dec_label_pc_3c05:                                ; preds = %dec_label_pc_3bb6
  %68 = call i64 @_ZNRSt8optionalImEdeEv(i64* nonnull %stack_var_-408), !insn.addr !1233
  %69 = inttoptr i64 %68 to i64*, !insn.addr !1234
  %70 = load i64, i64* %69, align 8, !insn.addr !1234
  %.tr = zext i32 %storemerge11.reload to i64
  %71 = mul i64 %.tr, 8, !insn.addr !1235
  %72 = and i64 %71, and (i64 ptrtoint ([3 x i8]* @global_var_3f to i64), i64 248), !insn.addr !1235
  %73 = lshr i64 %70, %72
  %74 = call i64 @_ZN4llvm12DenseMapBaseINS_8DenseMapIN25deobfuscate_select_memory12_GLOBAL__N_17ByteKeyEhNS3_11ByteKeyInfoENS_6detail12DenseMapPairIS4_hEEEES4_hS5_S8_EixERKS4_(i64* nonnull %stack_var_-376, i64* nonnull %stack_var_-392), !insn.addr !1236
  %75 = trunc i64 %73 to i8, !insn.addr !1237
  %76 = inttoptr i64 %74 to i8*, !insn.addr !1237
  store i8 %75, i8* %76, align 1, !insn.addr !1237
  br label %dec_label_pc_3c60, !insn.addr !1238

dec_label_pc_3c47:                                ; preds = %dec_label_pc_3bb6
  %77 = call i64 @_ZN4llvm12DenseMapBaseINS_8DenseMapIN25deobfuscate_select_memory12_GLOBAL__N_17ByteKeyEhNS3_11ByteKeyInfoENS_6detail12DenseMapPairIS4_hEEEES4_hS5_S8_E5eraseERKS4_(i64* nonnull %stack_var_-376, i64* nonnull %stack_var_-392), !insn.addr !1239
  br label %dec_label_pc_3c60, !insn.addr !1239

dec_label_pc_3c60:                                ; preds = %dec_label_pc_3c47, %dec_label_pc_3c05
  %78 = add i32 %storemerge11.reload, 1, !insn.addr !1240
  %79 = call i64 @_ZNRSt8optionalIjEdeEv(i64* nonnull %stack_var_-424), !insn.addr !1221
  %80 = inttoptr i64 %79 to i32*, !insn.addr !1222
  %81 = load i32, i32* %80, align 4, !insn.addr !1222
  %82 = icmp ult i32 %78, %81, !insn.addr !1223
  %83 = icmp eq i1 %82, false, !insn.addr !1224
  %84 = icmp eq i1 %83, false, !insn.addr !1225
  store i32 %78, i32* %storemerge11.reg2mem, !insn.addr !1225
  store i32 %stack_var_-594.115.reload, i32* %stack_var_-594.0.reg2mem, !insn.addr !1225
  br i1 %84, label %dec_label_pc_3bb6, label %dec_label_pc_3f11, !insn.addr !1225

dec_label_pc_3c8e:                                ; preds = %dec_label_pc_3aac
  %85 = call i64 @_ZN4llvm8dyn_castINS_8LoadInstENS_11InstructionEEEDcPT0_(i64* %21), !insn.addr !1241
  %86 = icmp eq i64 %85, 0, !insn.addr !1242
  store i32 %stack_var_-594.115.reload, i32* %stack_var_-594.0.reg2mem, !insn.addr !1243
  br i1 %86, label %dec_label_pc_3f11, label %dec_label_pc_3cae, !insn.addr !1243

dec_label_pc_3cae:                                ; preds = %dec_label_pc_3c8e
  %87 = inttoptr i64 %85 to i64*
  %88 = call i64 @_ZNK4llvm8LoadInst10isVolatileEv(i64* %87), !insn.addr !1244
  %89 = trunc i64 %88 to i8, !insn.addr !1245
  %90 = icmp eq i8 %89, 0, !insn.addr !1245
  %91 = icmp eq i1 %90, false, !insn.addr !1246
  store i32 %stack_var_-594.115.reload, i32* %stack_var_-594.0.reg2mem, !insn.addr !1246
  br i1 %91, label %dec_label_pc_3f11, label %dec_label_pc_3ce0, !insn.addr !1246

dec_label_pc_3ce0:                                ; preds = %dec_label_pc_3cae
  %92 = call i64 @_ZNK4llvm11Instruction8isAtomicEv(i64* %87), !insn.addr !1247
  %93 = trunc i64 %92 to i8, !insn.addr !1248
  %94 = icmp ne i8 %93, 0, !insn.addr !1248
  %95 = icmp eq i1 %94, false, !insn.addr !1249
  %96 = icmp eq i1 %95, false, !insn.addr !1250
  store i32 %stack_var_-594.115.reload, i32* %stack_var_-594.0.reg2mem, !insn.addr !1250
  br i1 %96, label %dec_label_pc_3f11, label %dec_label_pc_3ce8, !insn.addr !1250

dec_label_pc_3ce8:                                ; preds = %dec_label_pc_3ce0
  %97 = call i64 @_ZN4llvm8LoadInst17getPointerOperandEv(i64* %87), !insn.addr !1251
  %98 = inttoptr i64 %97 to i64*, !insn.addr !1252
  %99 = call i64 @_ZN25deobfuscate_select_memory12_GLOBAL__N_122resolveSymbolicAddressEPN4llvm5ValueERKNS1_10DataLayoutE(i64* nonnull %stack_var_-344, i64* %98, i64* %arg2), !insn.addr !1252
  %100 = call i64 @_ZNKSt8optionalIN25deobfuscate_select_memory12_GLOBAL__N_115SymbolicAddressEEcvbEv(i64* nonnull %stack_var_-344), !insn.addr !1253
  %101 = trunc i64 %100 to i8
  %102 = icmp eq i8 %101, 1, !insn.addr !1254
  %103 = icmp eq i1 %102, false, !insn.addr !1255
  store i32 %stack_var_-594.115.reload, i32* %stack_var_-594.0.reg2mem, !insn.addr !1255
  br i1 %103, label %dec_label_pc_3f11, label %dec_label_pc_3d2d, !insn.addr !1255

dec_label_pc_3d2d:                                ; preds = %dec_label_pc_3ce8
  %104 = call i64 @_ZNK4llvm5Value7getTypeEv(i64* %87), !insn.addr !1256
  %105 = inttoptr i64 %104 to i64*, !insn.addr !1257
  %106 = call i64 @_ZN25deobfuscate_select_memory12_GLOBAL__N_120loadOrStoreByteWidthEPN4llvm4TypeE(i64* %105), !insn.addr !1257
  store i64 %106, i64* %stack_var_-464, align 8, !insn.addr !1258
  %107 = call i64 @_ZNKSt8optionalIjEcvbEv(i64* nonnull %stack_var_-464), !insn.addr !1259
  %108 = trunc i64 %107 to i8
  %109 = icmp eq i8 %108, 1, !insn.addr !1260
  %110 = icmp eq i1 %109, false, !insn.addr !1261
  store i32 %stack_var_-594.115.reload, i32* %stack_var_-594.0.reg2mem, !insn.addr !1261
  br i1 %110, label %dec_label_pc_3f11, label %dec_label_pc_3e61.preheader, !insn.addr !1261

dec_label_pc_3e61.preheader:                      ; preds = %dec_label_pc_3d2d
  %111 = call i64 @_ZNRSt8optionalIjEdeEv(i64* nonnull %stack_var_-464), !insn.addr !1262
  %112 = inttoptr i64 %111 to i32*, !insn.addr !1263
  %113 = load i32, i32* %112, align 4, !insn.addr !1263
  %114 = icmp ne i32 %113, 0, !insn.addr !1264
  %115 = icmp eq i1 %114, false, !insn.addr !1265
  %116 = icmp eq i1 %115, false, !insn.addr !1266
  store i32 0, i32* %storemerge414.reg2mem, !insn.addr !1266
  store i64 0, i64* %stack_var_-568.013.reg2mem, !insn.addr !1266
  store i64 0, i64* %stack_var_-568.0.lcssa.reg2mem, !insn.addr !1266
  br i1 %116, label %dec_label_pc_3d86, label %dec_label_pc_3e91.critedge, !insn.addr !1266

dec_label_pc_3d86:                                ; preds = %dec_label_pc_3e61.preheader, %dec_label_pc_3e2c
  %117 = call i64 @_ZNSt8optionalIN25deobfuscate_select_memory12_GLOBAL__N_115SymbolicAddressEEptEv(i64* nonnull %stack_var_-344), !insn.addr !1267
  %118 = inttoptr i64 %117 to i64*, !insn.addr !1268
  %119 = load i64, i64* %118, align 8, !insn.addr !1268
  store i64 %119, i64* %stack_var_-424, align 8, !insn.addr !1269
  %120 = call i64 @_ZNSt8optionalIN25deobfuscate_select_memory12_GLOBAL__N_115SymbolicAddressEEptEv(i64* nonnull %stack_var_-344), !insn.addr !1270
  %121 = call i64 @_ZN4llvm12DenseMapBaseINS_8DenseMapIN25deobfuscate_select_memory12_GLOBAL__N_17ByteKeyEhNS3_11ByteKeyInfoENS_6detail12DenseMapPairIS4_hEEEES4_hS5_S8_E4findERKS4_(i64* nonnull %stack_var_-376, i64* nonnull %stack_var_-424), !insn.addr !1271
  store i64 %121, i64* %stack_var_-408, align 8, !insn.addr !1272
  %122 = call i64 @_ZN4llvm12DenseMapBaseINS_8DenseMapIN25deobfuscate_select_memory12_GLOBAL__N_17ByteKeyEhNS3_11ByteKeyInfoENS_6detail12DenseMapPairIS4_hEEEES4_hS5_S8_E3endEv(i64* nonnull %stack_var_-376), !insn.addr !1273
  store i64 %122, i64* %stack_var_-392, align 8, !insn.addr !1274
  %123 = call i64 @_ZN4llvmeqERKNS_16DenseMapIteratorIN25deobfuscate_select_memory12_GLOBAL__N_17ByteKeyEhNS2_11ByteKeyInfoENS_6detail12DenseMapPairIS3_hEELb0EEESA_(i64* nonnull %stack_var_-408, i64* nonnull %stack_var_-392), !insn.addr !1275
  %124 = trunc i64 %123 to i8, !insn.addr !1276
  %125 = icmp eq i8 %124, 0, !insn.addr !1276
  store i32 %stack_var_-594.115.reload, i32* %stack_var_-594.0.reg2mem, !insn.addr !1277
  br i1 %125, label %dec_label_pc_3e2c, label %dec_label_pc_3f11, !insn.addr !1277

dec_label_pc_3e2c:                                ; preds = %dec_label_pc_3d86
  %stack_var_-568.013.reload = load i64, i64* %stack_var_-568.013.reg2mem
  %storemerge414.reload = load i32, i32* %storemerge414.reg2mem
  %126 = call i64 @_ZNK4llvm16DenseMapIteratorIN25deobfuscate_select_memory12_GLOBAL__N_17ByteKeyEhNS2_11ByteKeyInfoENS_6detail12DenseMapPairIS3_hEELb0EEptEv(i64* nonnull %stack_var_-408), !insn.addr !1278
  %127 = add i64 %126, 16, !insn.addr !1279
  %128 = inttoptr i64 %127 to i8*, !insn.addr !1279
  %129 = load i8, i8* %128, align 1, !insn.addr !1279
  %130 = zext i8 %129 to i64, !insn.addr !1280
  %.tr3 = zext i32 %storemerge414.reload to i64
  %131 = mul i64 %.tr3, 8, !insn.addr !1281
  %132 = and i64 %131, and (i64 ptrtoint ([3 x i8]* @global_var_3f to i64), i64 248), !insn.addr !1281
  %133 = shl i64 %130, %132
  %134 = or i64 %133, %stack_var_-568.013.reload, !insn.addr !1282
  %135 = add i32 %storemerge414.reload, 1, !insn.addr !1283
  %136 = call i64 @_ZNRSt8optionalIjEdeEv(i64* nonnull %stack_var_-464), !insn.addr !1262
  %137 = inttoptr i64 %136 to i32*, !insn.addr !1263
  %138 = load i32, i32* %137, align 4, !insn.addr !1263
  %139 = icmp ult i32 %135, %138, !insn.addr !1264
  %140 = icmp eq i1 %139, false, !insn.addr !1265
  %141 = icmp eq i1 %140, false, !insn.addr !1266
  store i32 %135, i32* %storemerge414.reg2mem, !insn.addr !1266
  store i64 %134, i64* %stack_var_-568.013.reg2mem, !insn.addr !1266
  store i64 %134, i64* %stack_var_-568.0.lcssa.reg2mem, !insn.addr !1266
  br i1 %141, label %dec_label_pc_3d86, label %dec_label_pc_3e91.critedge, !insn.addr !1266

dec_label_pc_3e91.critedge:                       ; preds = %dec_label_pc_3e2c, %dec_label_pc_3e61.preheader
  %stack_var_-568.0.lcssa.reload = load i64, i64* %stack_var_-568.0.lcssa.reg2mem
  %142 = call i64 @_ZNK4llvm5Value7getTypeEv(i64* %87), !insn.addr !1284
  %143 = inttoptr i64 %142 to i64*, !insn.addr !1285
  %144 = call i64 @_ZN25deobfuscate_select_memory12_GLOBAL__N_116constantFromBitsEPN4llvm4TypeEm(i64* %143, i64 %stack_var_-568.0.lcssa.reload), !insn.addr !1285
  %145 = icmp eq i64 %144, 0, !insn.addr !1286
  store i32 %stack_var_-594.115.reload, i32* %stack_var_-594.0.reg2mem, !insn.addr !1287
  br i1 %145, label %dec_label_pc_3f11, label %dec_label_pc_3ec6, !insn.addr !1287

dec_label_pc_3ec6:                                ; preds = %dec_label_pc_3e91.critedge
  %146 = inttoptr i64 %144 to i64*, !insn.addr !1288
