source_filename = "test"
target datalayout = "e-m:e-p:64:64-i64:64-f80:128-n8:16:32:64-S128"

@global_var_3e68 = constant [46 x i8] c"/usr/include/llvm-21/llvm/IR/DiagnosticInfo.h\00"
@global_var_3e96 = constant [28 x i8] c"unknown SourceMgr::DiagKind\00"
@global_var_4178 = constant [7 x i8] c".local\00"
@global_var_417f = constant [6 x i8] c".init\00"
@global_var_41d8 = constant [34 x i8] c"deobfuscate-memory-state-ssa-pass\00"
@global_var_41fa = constant [30 x i8] c"DeobfuscateMemoryStateSSAPass\00"
@global_var_4218 = constant [6 x i8] c"0.1.0\00"
@global_var_12658 = global i64 0
@global_var_2d50 = constant [44 x i8] c"constexpr uint64_t llvm::maxUIntN(uint64_t)\00"
@global_var_2d80 = constant [47 x i8] c"/usr/include/llvm-21/llvm/Support/MathExtras.h\00"
@global_var_2db0 = constant [40 x i8] c"N <= 64 && \22integer width out of range\22\00"
@global_var_3f = constant [3 x i8] c"%(\00"
@global_var_2dd8 = constant [41 x i8] c"constexpr int64_t llvm::minIntN(int64_t)\00"
@global_var_2e08 = constant [41 x i8] c"constexpr int64_t llvm::maxIntN(int64_t)\00"
@global_var_2e38 = constant [51 x i8] c"int64_t llvm::SignExtend64(uint64_t, unsigned int)\00"
@global_var_2e70 = constant [37 x i8] c"B <= 64 && \22Bit width out of range.\22\00"
@global_var_2e98 = constant [55 x i8] c"llvm::APInt::APInt(unsigned int, uint64_t, bool, bool)\00"
@global_var_2ed0 = constant [38 x i8] c"/usr/include/llvm-21/llvm/ADT/APInt.h\00"
@global_var_2ef8 = constant [84 x i8] c"(val == 0 || val == uint64_t(-1)) && \22Value must be 0 or -1 for signed 0-bit APInt\22\00"
@global_var_2f50 = constant [68 x i8] c"llvm::isIntN(BitWidth, val) && \22Value is not an N-bit signed value\22\00"
@global_var_2f98 = constant [58 x i8] c"val == 0 && \22Value must be zero for unsigned 0-bit APInt\22\00"
@global_var_2fd8 = constant [71 x i8] c"llvm::isUIntN(BitWidth, val) && \22Value is not an N-bit unsigned value\22\00"
@global_var_3020 = constant [49 x i8] c"bool llvm::APInt::operator[](unsigned int) const\00"
@global_var_3058 = constant [61 x i8] c"bitPosition < getBitWidth() && \22Bit position out of bounds!\22\00"
@global_var_3098 = constant [42 x i8] c"int64_t llvm::APInt::getSExtValue() const\00"
@global_var_30c8 = constant [58 x i8] c"getSignificantBits() <= 64 && \22Too many bits for int64_t\22\00"
@global_var_3108 = constant [75 x i8] c"llvm::SmallPtrSetImplBase::SmallPtrSetImplBase(const void**, unsigned int)\00"
@global_var_3158 = constant [44 x i8] c"/usr/include/llvm-21/llvm/ADT/SmallPtrSet.h\00"
@global_var_3188 = constant [74 x i8] c"llvm::has_single_bit(SmallSize) && \22Initial size must be a power of two!\22\00"
@global_var_31d8 = constant [56 x i8] c"void llvm::SmallPtrSetIteratorImpl::AdvanceIfNotValid()\00"
@global_var_3210 = constant [14 x i8] c"Bucket <= End\00"
@global_var_3220 = constant [56 x i8] c"void llvm::SmallPtrSetIteratorImpl::RetreatIfNotValid()\00"
@global_var_3258 = constant [14 x i8] c"Bucket >= End\00"
@global_var_32d0 = constant [66 x i8] c"llvm::Value::user_iterator llvm::Value::materialized_user_begin()\00"
@global_var_3318 = constant [37 x i8] c"/usr/include/llvm-21/llvm/IR/Value.h\00"
@global_var_333d = constant [13 x i8] c"hasUseList()\00"
@global_var_3350 = constant [78 x i8] c"llvm::Value::const_user_iterator llvm::Value::materialized_user_begin() const\00"
@global_var_339e = constant [21 x i8] c"llvm::Twine::Twine()\00"
@global_var_33b8 = constant [38 x i8] c"/usr/include/llvm-21/llvm/ADT/Twine.h\00"
@global_var_33de = constant [30 x i8] c"isValid() && \22Invalid twine!\22\00"
@global_var_3400 = constant [32 x i8] c"llvm::Twine::Twine(const char*)\00"
@global_var_3420 = constant [56 x i8] c"llvm::Twine::Twine(const llvm::StringRef&, const char*)\00"
@global_var_3468 = constant [70 x i8] c"decltype(auto) llvm::cast(From*) [with To = IntegerType; From = Type]\00"
@global_var_34b0 = constant [44 x i8] c"/usr/include/llvm-21/llvm/Support/Casting.h\00"
@global_var_34e0 = constant [60 x i8] c"isa<To>(Val) && \22cast<Ty>() argument of incompatible type!\22\00"
@global_var_3528 = constant [56 x i8] c"void llvm::TrackingMDRef::retrack(llvm::TrackingMDRef&)\00"
@global_var_3560 = constant [45 x i8] c"/usr/include/llvm-21/llvm/IR/TrackingMDRef.h\00"
@global_var_3590 = constant [41 x i8] c"MD == X.MD && \22Expected values to match\22\00"
@global_var_35c8 = constant [65 x i8] c"decltype(auto) llvm::cast(From*) [with To = Value; From = Value]\00"
@global_var_3610 = local_unnamed_addr constant [59 x i8] c"auto llvm::cast_if_present(Y*) [with X = Value; Y = Value]\00"
@global_var_3650 = local_unnamed_addr constant [70 x i8] c"isa<X>(Val) && \22cast_if_present<Ty>() argument of incompatible type!\22\00"
@global_var_3698 = constant [77 x i8] c"decltype(auto) llvm::cast(From*) [with To = Instruction; From = const Value]\00"
@global_var_36e8 = constant [68 x i8] c"llvm::Value* llvm::UnaryInstruction::getOperand(unsigned int) const\00"
@global_var_3730 = constant [42 x i8] c"/usr/include/llvm-21/llvm/IR/InstrTypes.h\00"
@global_var_3760 = constant [94 x i8] c"i_nocapture < OperandTraits<UnaryInstruction>::operands(this) && \22getOperand() out of range!\22\00"
@global_var_37c0 = constant [68 x i8] c"void llvm::UnaryInstruction::setOperand(unsigned int, llvm::Value*)\00"
@global_var_3808 = constant [94 x i8] c"i_nocapture < OperandTraits<UnaryInstruction>::operands(this) && \22setOperand() out of range!\22\00"
@global_var_3870 = constant [61 x i8] c"llvm::Value* llvm::StoreInst::getOperand(unsigned int) const\00"
@global_var_38b0 = constant [44 x i8] c"/usr/include/llvm-21/llvm/IR/Instructions.h\00"
@global_var_38e0 = constant [87 x i8] c"i_nocapture < OperandTraits<StoreInst>::operands(this) && \22getOperand() out of range!\22\00"
@global_var_3938 = constant [61 x i8] c"void llvm::StoreInst::setOperand(unsigned int, llvm::Value*)\00"
@global_var_3978 = constant [87 x i8] c"i_nocapture < OperandTraits<StoreInst>::operands(this) && \22setOperand() out of range!\22\00"
@global_var_39d8 = constant [78 x i8] c"decltype(auto) llvm::dyn_cast(From*) [with To = LoadInst; From = Instruction]\00"
@global_var_3a28 = constant [61 x i8] c"detail::isPresent(Val) && \22dyn_cast on a non-existent value\22\00"
@global_var_3a68 = constant [79 x i8] c"decltype(auto) llvm::dyn_cast(From*) [with To = StoreInst; From = Instruction]\00"
@global_var_3ae0 = constant [55 x i8] c"llvm::Constant* llvm::GlobalVariable::getInitializer()\00"
@global_var_3b18 = constant [46 x i8] c"/usr/include/llvm-21/llvm/IR/GlobalVariable.h\00"
@global_var_3b48 = constant [51 x i8] c"hasInitializer() && \22GV doesn't have initializer!\22\00"
@global_var_3b80 = constant [68 x i8] c"decltype(auto) llvm::cast(From*) [with To = Function; From = Value]\00"
@global_var_3bc8 = constant [74 x i8] c"decltype(auto) llvm::cast(From*) [with To = CallInst; From = const Value]\00"
@global_var_3c18 = constant [78 x i8] c"decltype(auto) llvm::cast(From*) [with To = ConstantExpr; From = const Value]\00"
@global_var_3c68 = constant [63 x i8] c"llvm::Value* llvm::GEPOperator::getOperand(unsigned int) const\00"
@global_var_3ca8 = constant [40 x i8] c"/usr/include/llvm-21/llvm/IR/Operator.h\00"
@global_var_3cd0 = constant [89 x i8] c"i_nocapture < OperandTraits<GEPOperator>::operands(this) && \22getOperand() out of range!\22\00"
@global_var_3d30 = constant [61 x i8] c"void llvm::IRBuilderBase::SetInsertPoint(llvm::Instruction*)\00"
@global_var_3d70 = constant [41 x i8] c"/usr/include/llvm-21/llvm/IR/IRBuilder.h\00"
@global_var_3da0 = constant [59 x i8] c"InsertPt != BB->end() && \22Can't read debug loc from end()\22\00"
@global_var_3eb8 = constant [75 x i8] c"decltype(auto) llvm::dyn_cast(From*) [with To = GEPOperator; From = Value]\00"
@global_var_3f08 = constant [76 x i8] c"decltype(auto) llvm::dyn_cast(From*) [with To = IntrinsicInst; From = User]\00"
@global_var_3f58 = constant [74 x i8] c"decltype(auto) llvm::dyn_cast(From*) [with To = Instruction; From = User]\00"
@global_var_3fa8 = constant [71 x i8] c"decltype(auto) llvm::dyn_cast(From*) [with To = LoadInst; From = User]\00"
@global_var_3ff0 = constant [72 x i8] c"decltype(auto) llvm::dyn_cast(From*) [with To = StoreInst; From = User]\00"
@global_var_4038 = constant [77 x i8] c"decltype(auto) llvm::dyn_cast(From*) [with To = LoadInst; From = const User]\00"
@global_var_4088 = constant [78 x i8] c"decltype(auto) llvm::dyn_cast(From*) [with To = GlobalVariable; From = Value]\00"
@global_var_40d8 = constant [78 x i8] c"decltype(auto) llvm::dyn_cast(From*) [with To = CallInst; From = Instruction]\00"
@global_var_4128 = constant [80 x i8] c"decltype(auto) llvm::dyn_cast(From*) [with To = ReturnInst; From = Instruction]\00"
@global_var_4188 = constant [80 x i8] c"decltype(auto) llvm::dyn_cast(From*) [with To = AllocaInst; From = Instruction]\00"
@global_var_4220 = constant [309 x i8] c"llvm::ilist_iterator<OptionsT, IsReverse, IsConst>::reference llvm::ilist_iterator<OptionsT, IsReverse, IsConst>::operator*() const [with OptionsT = llvm::ilist_detail::node_options<llvm::DbgRecord, false, false, void, false, void>; bool IsReverse = false; bool IsConst = false; reference = llvm::DbgRecord&]\00"
@global_var_4358 = constant [47 x i8] c"/usr/include/llvm-21/llvm/ADT/ilist_iterator.h\00"
@global_var_4387 = constant [28 x i8] c"!NodePtr->isKnownSentinel()\00"
@global_var_43a8 = constant [338 x i8] c"llvm::ilist_iterator_w_bits<OptionsT, IsReverse, IsConst>::reference llvm::ilist_iterator_w_bits<OptionsT, IsReverse, IsConst>::operator*() const [with OptionsT = llvm::ilist_detail::node_options<llvm::Instruction, false, false, void, true, llvm::BasicBlock>; bool IsReverse = false; bool IsConst = false; reference = llvm::Instruction&]\00"
@global_var_4500 = constant [113 x i8] c"llvm::Value::use_iterator_impl<UseT>& llvm::Value::use_iterator_impl<UseT>::operator++() [with UseT = llvm::Use]\00"
@global_var_4578 = constant [38 x i8] c"U && \22Cannot increment end iterator!\22\00"
@global_var_45a0 = constant [86 x i8] c"UseT& llvm::Value::use_iterator_impl<UseT>::operator*() const [with UseT = llvm::Use]\00"
@global_var_45f8 = constant [40 x i8] c"U && \22Cannot dereference end iterator!\22\00"
@global_var_4620 = constant [311 x i8] c"llvm::ilist_iterator<OptionsT, IsReverse, IsConst>::reference llvm::ilist_iterator<OptionsT, IsReverse, IsConst>::operator*() const [with OptionsT = llvm::ilist_detail::node_options<llvm::BasicBlock, false, false, void, false, void>; bool IsReverse = false; bool IsConst = false; reference = llvm::BasicBlock&]\00"
@global_var_4758 = constant [118 x i8] c"llvm::SmallPtrSetIterator<PtrTy>& llvm::SmallPtrSetIterator<PtrTy>::operator++() [with PtrTy = llvm::GlobalVariable*]\00"
@global_var_47d0 = constant [47 x i8] c"isHandleInSync() && \22invalid iterator access!\22\00"
@global_var_4800 = constant [101 x i8] c"const PtrTy llvm::SmallPtrSetIterator<PtrTy>::operator*() const [with PtrTy = llvm::GlobalVariable*]\00"
@global_var_4865 = constant [13 x i8] c"Bucket > End\00"
@global_var_4872 = constant [13 x i8] c"Bucket < End\00"
@global_var_4880 = constant [236 x i8] c"typename PassT::Result& llvm::AnalysisManager<IRUnitT, ExtraArgTs>::getResult(IRUnitT&, ExtraArgTs ...) [with PassT = llvm::DominatorTreeAnalysis; IRUnitT = llvm::Function; ExtraArgTs = {}; typename PassT::Result = llvm::DominatorTree]\00"
@global_var_4970 = constant [43 x i8] c"/usr/include/llvm-21/llvm/IR/PassManager.h\00"
@global_var_49a0 = constant [100 x i8] c"AnalysisPasses.count(PassT::ID()) && \22This analysis pass was not registered prior to being queried\22\00"
@global_var_4a08 = constant [153 x i8] c"static T llvm::bitfields_details::Compressor<T, Bits, <anonymous> >::pack(T, T) [with T = unsigned char; unsigned int Bits = 1; bool <anonymous> = true]\00"
@global_var_4aa8 = constant [42 x i8] c"/usr/include/llvm-21/llvm/ADT/Bitfields.h\00"
@global_var_4ad8 = constant [48 x i8] c"UserValue <= UserMaxValue && \22value is too big\22\00"
@global_var_4b08 = constant [44 x i8] c"UserValue <= BP::Umax && \22value is too big\22\00"
@global_var_4b38 = constant [305 x i8] c"static intptr_t llvm::PointerIntPairInfo<PointerT, IntBits, PtrTraits>::updatePointer(intptr_t, PointerT) [with PointerT = void*; unsigned int IntBits = 2; PtrTraits = llvm::pointer_union_detail::PointerUnionUIntTraits<llvm::MetadataAsValue*, llvm::Metadata*, llvm::DebugValueUser*>; intptr_t = long int]\00"
@global_var_4c70 = constant [47 x i8] c"/usr/include/llvm-21/llvm/ADT/PointerIntPair.h\00"
@global_var_4ca0 = constant [74 x i8] c"(PtrWord & ~PointerBitMask) == 0 && \22Pointer is not sufficiently aligned\22\00"
@global_var_4cf0 = constant [301 x i8] c"static intptr_t llvm::PointerIntPairInfo<PointerT, IntBits, PtrTraits>::updateInt(intptr_t, intptr_t) [with PointerT = void*; unsigned int IntBits = 2; PtrTraits = llvm::pointer_union_detail::PointerUnionUIntTraits<llvm::MetadataAsValue*, llvm::Metadata*, llvm::DebugValueUser*>; intptr_t = long int]\00"
@global_var_4e20 = constant [55 x i8] c"(Int & ~IntMask) == 0 && \22Integer too large for field\22\00"
@global_var_4e58 = constant [152 x i8] c"static T llvm::bitfields_details::Compressor<T, Bits, <anonymous> >::pack(T, T) [with T = unsigned int; unsigned int Bits = 6; bool <anonymous> = true]\00"
@global_var_4ef0 = constant [26 x i8] c"vector::_M_realloc_insert\00"
@global_var_4f10 = constant [113 x i8] c"static bool llvm::isa_impl_cl<To, const From*>::doit(const From*) [with To = llvm::Function; From = llvm::Value]\00"
@global_var_4f88 = constant [38 x i8] c"Val && \22isa<> used on a null pointer\22\00"
@global_var_4fb0 = constant [119 x i8] c"static bool llvm::isa_impl_cl<To, const From*>::doit(const From*) [with To = llvm::LoadInst; From = llvm::Instruction]\00"
@global_var_5028 = constant [120 x i8] c"static bool llvm::isa_impl_cl<To, const From*>::doit(const From*) [with To = llvm::StoreInst; From = llvm::Instruction]\00"
@global_var_50a0 = constant [119 x i8] c"static bool llvm::isa_impl_cl<To, const From*>::doit(const From*) [with To = llvm::ConstantInt; From = llvm::Constant]\00"
@global_var_5118 = constant [116 x i8] c"static bool llvm::isa_impl_cl<To, const From*>::doit(const From*) [with To = llvm::Instruction; From = llvm::Value]\00"
@global_var_5190 = constant [117 x i8] c"static bool llvm::isa_impl_cl<To, const From*>::doit(const From*) [with To = llvm::ConstantExpr; From = llvm::Value]\00"
@global_var_5208 = constant [116 x i8] c"static bool llvm::isa_impl_cl<To, const From*>::doit(const From*) [with To = llvm::GEPOperator; From = llvm::Value]\00"
@global_var_5280 = constant [117 x i8] c"static bool llvm::isa_impl_cl<To, const From*>::doit(const From*) [with To = llvm::IntrinsicInst; From = llvm::User]\00"
@global_var_52f8 = constant [115 x i8] c"static bool llvm::isa_impl_cl<To, const From*>::doit(const From*) [with To = llvm::Instruction; From = llvm::User]\00"
@global_var_5370 = constant [112 x i8] c"static bool llvm::isa_impl_cl<To, const From*>::doit(const From*) [with To = llvm::LoadInst; From = llvm::User]\00"
@global_var_53e0 = constant [113 x i8] c"static bool llvm::isa_impl_cl<To, const From*>::doit(const From*) [with To = llvm::StoreInst; From = llvm::User]\00"
@global_var_5458 = constant [119 x i8] c"static bool llvm::isa_impl_cl<To, const From*>::doit(const From*) [with To = llvm::GlobalVariable; From = llvm::Value]\00"
@global_var_54d0 = constant [119 x i8] c"static bool llvm::isa_impl_cl<To, const From*>::doit(const From*) [with To = llvm::CallInst; From = llvm::Instruction]\00"
@global_var_5548 = constant [121 x i8] c"static bool llvm::isa_impl_cl<To, const From*>::doit(const From*) [with To = llvm::ReturnInst; From = llvm::Instruction]\00"
@global_var_55c8 = constant [121 x i8] c"static bool llvm::isa_impl_cl<To, const From*>::doit(const From*) [with To = llvm::AllocaInst; From = llvm::Instruction]\00"
@global_var_5648 = constant [117 x i8] c"static bool llvm::isa_impl_cl<To, const From*>::doit(const From*) [with To = llvm::ConstantData; From = llvm::Value]\00"
@global_var_56c0 = constant [115 x i8] c"static bool llvm::isa_impl_cl<To, const From*>::doit(const From*) [with To = llvm::IntegerType; From = llvm::Type]\00"
@global_var_5738 = constant [110 x i8] c"static bool llvm::isa_impl_cl<To, const From*>::doit(const From*) [with To = llvm::Value; From = llvm::Value]\00"
@global_var_57a8 = constant [113 x i8] c"static bool llvm::isa_impl_cl<To, const From*>::doit(const From*) [with To = llvm::CallInst; From = llvm::Value]\00"
@global_var_5820 = constant [121 x i8] c"static bool llvm::isa_impl_cl<To, const From*>::doit(const From*) [with To = llvm::IntrinsicInst; From = llvm::CallInst]\00"
@global_var_59de = constant [29 x i8] c"ModuleToFunctionPassAdaptor]\00"
@global_var_59fb = constant [7 x i8] c"llvm::\00"
@global_var_5a4e = constant [61 x i8] c"deobfuscate_memory_state_ssa::DeobfuscateMemoryStateSSAPass]\00"
@0 = external global i32
@global_var_40 = constant i128* inttoptr (i64 -556888036579737560 to i128*)
@global_var_3ddb = external constant i8*

define i64 @_GLOBAL_OFFSET_TABLE_.1(i64 %arg1, i64 %arg2) local_unnamed_addr {
dec_label_pc_0:
  %0 = inttoptr i64 %arg2 to i64*, !insn.addr !0
  %1 = call i1 @_ZN4llvm3isaINS_17DbgVariableRecordENS_9DbgRecordEEEbRKT0_(i64* %0), !insn.addr !0
  %2 = sext i1 %1 to i64, !insn.addr !0
  ret i64 %2, !insn.addr !1
}

define i64 @_ZN4llvm9map_rangeINS_14iterator_rangeINS_20filter_iterator_implINS_14ilist_iteratorINS_12ilist_detail12node_optionsINS_9DbgRecordELb0ELb0EvLb0EvEELb0ELb0EEEZNS_L13filterDbgVarsENS1_IS8_EEEUlRS6_E_St26bidirectional_iterator_tagEEEEZNS_L13filterDbgVarsES9_EUlSA_E0_EEDaOT_T0_(i64* %arg1, i64 %arg2) local_unnamed_addr {
dec_label_pc_1e:
  %0 = ptrtoint i64* %arg1 to i64
  %stack_var_-56 = alloca i64, align 8
  %stack_var_-120 = alloca i64, align 8
  %stack_var_-88 = alloca i64, align 8
  %stack_var_-152 = alloca i64, align 8
  %1 = call i64 @__readfsqword(i64 40), !insn.addr !2
  %2 = inttoptr i64 %arg2 to i64**, !insn.addr !3
  %3 = call i64 @_ZN4llvm7adl_endIRNS_14iterator_rangeINS_20filter_iterator_implINS_14ilist_iteratorINS_12ilist_detail12node_optionsINS_9DbgRecordELb0ELb0EvLb0EvEELb0ELb0EEEZNS_L13filterDbgVarsENS1_IS8_EEEUlRS6_E_St26bidirectional_iterator_tagEEEEEEDTcl8end_implcl7forwardIT_Efp_EEEOSG_(i64* nonnull %stack_var_-152, i64** %2), !insn.addr !3
  %4 = ptrtoint i64* %stack_var_-88 to i64, !insn.addr !4
  %5 = call i64 @_ZN4llvm12map_iteratorINS_20filter_iterator_implINS_14ilist_iteratorINS_12ilist_detail12node_optionsINS_9DbgRecordELb0ELb0EvLb0EvEELb0ELb0EEEZNS_L13filterDbgVarsENS_14iterator_rangeIS7_EEEUlRS5_E_St26bidirectional_iterator_tagEEZNS_L13filterDbgVarsES9_EUlSA_E0_EENS_15mapped_iteratorIT_T0_DTclcl7declvalISH_EEdecl7declvalISG_EEEEEESG_SH_(i64 %4, i64 ptrtoint (i32* @0 to i64)), !insn.addr !5
  %6 = call i64 @_ZN4llvm9adl_beginIRNS_14iterator_rangeINS_20filter_iterator_implINS_14ilist_iteratorINS_12ilist_detail12node_optionsINS_9DbgRecordELb0ELb0EvLb0EvEELb0ELb0EEEZNS_L13filterDbgVarsENS1_IS8_EEEUlRS6_E_St26bidirectional_iterator_tagEEEEEEDTcl10begin_implcl7forwardIT_Efp_EEEOSG_(i64* nonnull %stack_var_-120, i64** %2), !insn.addr !6
  %7 = ptrtoint i64* %stack_var_-56 to i64, !insn.addr !7
  %8 = call i64 @_ZN4llvm12map_iteratorINS_20filter_iterator_implINS_14ilist_iteratorINS_12ilist_detail12node_optionsINS_9DbgRecordELb0ELb0EvLb0EvEELb0ELb0EEEZNS_L13filterDbgVarsENS_14iterator_rangeIS7_EEEUlRS5_E_St26bidirectional_iterator_tagEEZNS_L13filterDbgVarsES9_EUlSA_E0_EENS_15mapped_iteratorIT_T0_DTclcl7declvalISH_EEdecl7declvalISG_EEEEEESG_SH_(i64 %7, i64 ptrtoint (i32* @0 to i64)), !insn.addr !8
  %9 = call i64 @_ZN4llvm10make_rangeINS_15mapped_iteratorINS_20filter_iterator_implINS_14ilist_iteratorINS_12ilist_detail12node_optionsINS_9DbgRecordELb0ELb0EvLb0EvEELb0ELb0EEEZNS_L13filterDbgVarsENS_14iterator_rangeIS8_EEEUlRS6_E_St26bidirectional_iterator_tagEEZNS_L13filterDbgVarsESA_EUlSB_E0_St17reference_wrapperINS_17DbgVariableRecordEEEEEENS9_IT_EESK_SK_(i64 %0, i64 ptrtoint (i32* @0 to i64)), !insn.addr !9
  %10 = call i64 @__readfsqword(i64 40), !insn.addr !10
  %11 = icmp eq i64 %1, %10, !insn.addr !10
  br i1 %11, label %dec_label_pc_157, label %dec_label_pc_152, !insn.addr !11

dec_label_pc_152:                                 ; preds = %dec_label_pc_1e
  %12 = call i64 @__stack_chk_fail(), !insn.addr !12
  br label %dec_label_pc_157, !insn.addr !12

dec_label_pc_157:                                 ; preds = %dec_label_pc_152, %dec_label_pc_1e
  ret i64 %0, !insn.addr !13

; uselistorder directives
  uselistorder i64 (i64, i64)* @_ZN4llvm12map_iteratorINS_20filter_iterator_implINS_14ilist_iteratorINS_12ilist_detail12node_optionsINS_9DbgRecordELb0ELb0EvLb0EvEELb0ELb0EEEZNS_L13filterDbgVarsENS_14iterator_rangeIS7_EEEUlRS5_E_St26bidirectional_iterator_tagEEZNS_L13filterDbgVarsES9_EUlSA_E0_EENS_15mapped_iteratorIT_T0_DTclcl7declvalISH_EEdecl7declvalISG_EEEEEESG_SH_, { 1, 0 }
}

define i64 @_ZN4llvmL21getDiagnosticSeverityENS_9SourceMgr8DiagKindE(i64 %arg1) local_unnamed_addr {
dec_label_pc_160:
  %rax.0.reg2mem = alloca i64, !insn.addr !14
  %0 = trunc i64 %arg1 to i32, !insn.addr !15
  %1 = icmp eq i32 %0, 3, !insn.addr !15
  store i64 3, i64* %rax.0.reg2mem, !insn.addr !16
  br i1 %1, label %dec_label_pc_1cb, label %dec_label_pc_177, !insn.addr !16

dec_label_pc_177:                                 ; preds = %dec_label_pc_160
  %2 = icmp sgt i32 %0, 3, !insn.addr !17
  br i1 %2, label %dec_label_pc_1ad, label %dec_label_pc_17c, !insn.addr !17

dec_label_pc_17c:                                 ; preds = %dec_label_pc_177
  store i64 2, i64* %rax.0.reg2mem
  switch i32 %0, label %dec_label_pc_1ad [
    i32 2, label %dec_label_pc_1cb
    i32 0, label %dec_label_pc_1cb.fold.split
    i32 1, label %dec_label_pc_198
  ]

dec_label_pc_198:                                 ; preds = %dec_label_pc_17c
  store i64 1, i64* %rax.0.reg2mem, !insn.addr !18
  br label %dec_label_pc_1cb, !insn.addr !18

dec_label_pc_1ad:                                 ; preds = %dec_label_pc_17c, %dec_label_pc_177
  %3 = call i64 @_ZN4llvm25llvm_unreachable_internalEPKcS1_j(i8* getelementptr inbounds ([28 x i8], [28 x i8]* @global_var_3e96, i64 0, i64 0), i8* getelementptr inbounds ([46 x i8], [46 x i8]* @global_var_3e68, i64 0, i64 0), i32 1138), !insn.addr !19
  store i64 %3, i64* %rax.0.reg2mem, !insn.addr !19
  br label %dec_label_pc_1cb, !insn.addr !19

dec_label_pc_1cb.fold.split:                      ; preds = %dec_label_pc_17c
  store i64 0, i64* %rax.0.reg2mem
  br label %dec_label_pc_1cb

dec_label_pc_1cb:                                 ; preds = %dec_label_pc_17c, %dec_label_pc_1cb.fold.split, %dec_label_pc_160, %dec_label_pc_1ad, %dec_label_pc_198
  %rax.0.reload = load i64, i64* %rax.0.reg2mem
  ret i64 %rax.0.reload, !insn.addr !20

; uselistorder directives
  uselistorder i64* %rax.0.reg2mem, { 0, 1, 5, 4, 2, 3 }
  uselistorder label %dec_label_pc_1cb, { 1, 3, 4, 0, 2 }
}

define i64 @_ZN28deobfuscate_memory_state_ssa12_GLOBAL__N_118constantByteOffsetEPN4llvm5ValueEPNS1_10AllocaInstERKNS1_10DataLayoutE(i64* %arg1, i64* %arg2, i64* %arg3) local_unnamed_addr {
dec_label_pc_1cd:
  %0 = alloca i64
  %rax.0.reg2mem = alloca i64, !insn.addr !21
  %.reg2mem = alloca i64, !insn.addr !21
  %1 = ptrtoint i64* %arg2 to i64
  %stack_var_-104 = alloca i64, align 8
  %2 = load i64, i64* %0
  %stack_var_-56 = alloca i64, align 8
  %stack_var_-72 = alloca i64, align 8
  %stack_var_-88 = alloca i32, align 4
  %3 = call i64 @__readfsqword(i64 40), !insn.addr !22
  %4 = call i64 @_ZN4llvm5Value17stripPointerCastsEv(i64* %arg1), !insn.addr !23
  %5 = icmp eq i64 %4, %1, !insn.addr !24
  %6 = icmp eq i1 %5, false, !insn.addr !25
  br i1 %6, label %dec_label_pc_241, label %dec_label_pc_212, !insn.addr !25

dec_label_pc_212:                                 ; preds = %dec_label_pc_1cd
  store i32 0, i32* %stack_var_-88, align 4, !insn.addr !26
  %7 = call i64 @_ZNSt8optionalIlEC1IiLb1EEEOT_(i64* nonnull %stack_var_-72, i32* nonnull %stack_var_-88), !insn.addr !27
  %8 = load i64, i64* %stack_var_-72, align 8, !insn.addr !28
  store i64 %8, i64* %stack_var_-56, align 8, !insn.addr !29
  store i64 %8, i64* %.reg2mem, !insn.addr !30
  br label %dec_label_pc_37f, !insn.addr !30

dec_label_pc_241:                                 ; preds = %dec_label_pc_1cd
  %9 = inttoptr i64 %4 to i64*, !insn.addr !31
  %10 = call i64 @_ZN4llvm8dyn_castINS_11GEPOperatorENS_5ValueEEEDcPT0_(i64* %9), !insn.addr !31
  %11 = icmp eq i64 %10, 0, !insn.addr !32
  %12 = icmp eq i1 %11, false, !insn.addr !33
  br i1 %12, label %dec_label_pc_279, label %dec_label_pc_258, !insn.addr !33

dec_label_pc_258:                                 ; preds = %dec_label_pc_241
  %13 = ptrtoint i64* %stack_var_-72 to i64, !insn.addr !34
  %14 = call i64 @_ZNSt8optionalIlEC1ESt9nullopt_t(i64 %13), !insn.addr !35
  %15 = load i64, i64* %stack_var_-72, align 8, !insn.addr !36
  store i64 %15, i64* %stack_var_-56, align 8, !insn.addr !37
  store i64 %15, i64* %.reg2mem, !insn.addr !38
  br label %dec_label_pc_37f, !insn.addr !38

dec_label_pc_279:                                 ; preds = %dec_label_pc_241
  %16 = inttoptr i64 %10 to i64*, !insn.addr !39
  %17 = call i64 @_ZN4llvm11GEPOperator17getPointerOperandEv(i64* %16), !insn.addr !39
  %18 = inttoptr i64 %17 to i64*, !insn.addr !40
  %19 = call i64 @_ZN4llvm5Value17stripPointerCastsEv(i64* %18), !insn.addr !40
  %20 = icmp eq i64 %19, %1, !insn.addr !41
  %21 = icmp eq i1 %20, false, !insn.addr !42
  %22 = icmp eq i1 %21, false, !insn.addr !43
  br i1 %22, label %dec_label_pc_2b9, label %dec_label_pc_298, !insn.addr !44

dec_label_pc_298:                                 ; preds = %dec_label_pc_279
  %23 = ptrtoint i64* %stack_var_-72 to i64, !insn.addr !45
  %24 = call i64 @_ZNSt8optionalIlEC1ESt9nullopt_t(i64 %23), !insn.addr !46
  %25 = load i64, i64* %stack_var_-72, align 8, !insn.addr !47
  store i64 %25, i64* %stack_var_-56, align 8, !insn.addr !48
  store i64 %25, i64* %.reg2mem, !insn.addr !49
  br label %dec_label_pc_37f, !insn.addr !49

dec_label_pc_2b9:                                 ; preds = %dec_label_pc_279
  %26 = call i64 @_ZNK4llvm10DataLayout20getPointerSizeInBitsEj(i64* %arg3, i32 0), !insn.addr !50
  %27 = trunc i64 %26 to i32, !insn.addr !51
  %28 = bitcast i32* %stack_var_-88 to i64*, !insn.addr !52
  %29 = call i64 @_ZN4llvm5APIntC1Ejmbb(i64* nonnull %28, i32 %27, i64 0, i1 false, i1 false), !insn.addr !52
  %30 = call i64 @_ZN4llvm12function_refIFbRNS_5ValueERNS_5APIntEEEC1EDn(i64* nonnull %stack_var_-56, i64 0), !insn.addr !53
  %31 = load i64, i64* %stack_var_-56, align 8, !insn.addr !54
  %32 = inttoptr i64 %31 to i64*, !insn.addr !55
  %33 = call i64 @_ZNK4llvm11GEPOperator24accumulateConstantOffsetERKNS_10DataLayoutERNS_5APIntENS_12function_refIFbRNS_5ValueES5_EEE(i64* %16, i64* %arg3, i64* nonnull %28, i64* %32, i64 %2), !insn.addr !55
  %34 = trunc i64 %33 to i8
  %35 = icmp eq i8 %34, 1, !insn.addr !56
  br i1 %35, label %dec_label_pc_340, label %dec_label_pc_322, !insn.addr !57

dec_label_pc_322:                                 ; preds = %dec_label_pc_2b9
  %36 = ptrtoint i64* %stack_var_-72 to i64, !insn.addr !58
  %37 = call i64 @_ZNSt8optionalIlEC1ESt9nullopt_t(i64 %36), !insn.addr !59
  br label %dec_label_pc_373, !insn.addr !60

dec_label_pc_340:                                 ; preds = %dec_label_pc_2b9
  %38 = call i64 @_ZNK4llvm5APInt12getSExtValueEv(i64* nonnull %28), !insn.addr !61
  store i64 %38, i64* %stack_var_-104, align 8, !insn.addr !62
  %39 = bitcast i64* %stack_var_-104 to i32*, !insn.addr !63
  %40 = call i64 @_ZNSt8optionalIlEC1IlLb1EEEOT_(i64* nonnull %stack_var_-72, i32* nonnull %39), !insn.addr !63
  br label %dec_label_pc_373, !insn.addr !64

dec_label_pc_373:                                 ; preds = %dec_label_pc_340, %dec_label_pc_322
  %storemerge1 = load i64, i64* %stack_var_-72, align 8
  store i64 %storemerge1, i64* %stack_var_-56, align 8
  %41 = call i64 @_ZN4llvm5APIntD1Ev(i64* nonnull %28), !insn.addr !65
  %.pre = load i64, i64* %stack_var_-56, align 8
  store i64 %.pre, i64* %.reg2mem, !insn.addr !65
  br label %dec_label_pc_37f, !insn.addr !65

dec_label_pc_37f:                                 ; preds = %dec_label_pc_373, %dec_label_pc_298, %dec_label_pc_258, %dec_label_pc_212
  %.reload = load i64, i64* %.reg2mem, !insn.addr !66
  %42 = call i64 @__readfsqword(i64 40), !insn.addr !67
  %43 = icmp eq i64 %3, %42, !insn.addr !67
  store i64 %.reload, i64* %rax.0.reg2mem, !insn.addr !68
  br i1 %43, label %dec_label_pc_39b, label %dec_label_pc_396, !insn.addr !68

dec_label_pc_396:                                 ; preds = %dec_label_pc_37f
  %44 = call i64 @__stack_chk_fail(), !insn.addr !69
  store i64 %44, i64* %rax.0.reg2mem, !insn.addr !69
  br label %dec_label_pc_39b, !insn.addr !69

dec_label_pc_39b:                                 ; preds = %dec_label_pc_396, %dec_label_pc_37f
  %rax.0.reload = load i64, i64* %rax.0.reg2mem
  ret i64 %rax.0.reload, !insn.addr !70

; uselistorder directives
  uselistorder i64* %stack_var_-72, { 0, 1, 3, 4, 5, 6, 7, 8, 2 }
  uselistorder i64* %stack_var_-56, { 0, 1, 3, 2, 4, 5, 6 }
  uselistorder i64* %.reg2mem, { 0, 4, 3, 2, 1 }
  uselistorder i64 (i64)* @_ZNSt8optionalIlEC1ESt9nullopt_t, { 2, 1, 0 }
}

define i64 @_ZN28deobfuscate_memory_state_ssa12_GLOBAL__N_117isBenignIntrinsicEPN4llvm4UserE(i64* %arg1) local_unnamed_addr {
dec_label_pc_3a1:
  %rax.0.reg2mem = alloca i64, !insn.addr !71
  %0 = call i64 @_ZN4llvm8dyn_castINS_13IntrinsicInstENS_4UserEEEDcPT0_(i64* %arg1), !insn.addr !72
  %1 = icmp eq i64 %0, 0, !insn.addr !73
  %2 = icmp eq i1 %1, false, !insn.addr !74
  store i64 0, i64* %rax.0.reg2mem, !insn.addr !74
  br i1 %2, label %dec_label_pc_3cf, label %dec_label_pc_3ff, !insn.addr !74

dec_label_pc_3cf:                                 ; preds = %dec_label_pc_3a1
  %3 = inttoptr i64 %0 to i64*, !insn.addr !75
  %4 = call i64 @_ZNK4llvm13IntrinsicInst14getIntrinsicIDEv(i64* %3), !insn.addr !75
  %5 = trunc i64 %4 to i32, !insn.addr !76
  %6 = icmp ult i32 %5, 215
  br i1 %6, label %dec_label_pc_3e2, label %dec_label_pc_3fa, !insn.addr !77

dec_label_pc_3e2:                                 ; preds = %dec_label_pc_3cf
  %7 = icmp ult i32 %5, 213, !insn.addr !78
  %8 = icmp ne i32 %5, 69, !insn.addr !79
  %or.cond.not = icmp eq i1 %8, %7
  %9 = icmp eq i32 %5, 71, !insn.addr !80
  %10 = icmp eq i1 %9, false, !insn.addr !81
  %or.cond2 = icmp eq i1 %or.cond.not, %10
  store i64 1, i64* %rax.0.reg2mem, !insn.addr !82
  br i1 %or.cond2, label %dec_label_pc_3fa, label %dec_label_pc_3ff, !insn.addr !82

dec_label_pc_3fa:                                 ; preds = %dec_label_pc_3e2, %dec_label_pc_3cf
  store i64 0, i64* %rax.0.reg2mem, !insn.addr !83
  br label %dec_label_pc_3ff, !insn.addr !83

dec_label_pc_3ff:                                 ; preds = %dec_label_pc_3e2, %dec_label_pc_3a1, %dec_label_pc_3fa
  %rax.0.reload = load i64, i64* %rax.0.reg2mem
  ret i64 %rax.0.reload, !insn.addr !84

; uselistorder directives
  uselistorder i64* %rax.0.reg2mem, { 0, 3, 1, 2 }
  uselistorder label %dec_label_pc_3ff, { 2, 0, 1 }
}

define i64 @_ZN28deobfuscate_memory_state_ssa12_GLOBAL__N_117isZeroOffsetAliasEPN4llvm5ValueEPNS1_10AllocaInstERKNS1_10DataLayoutE(i64* %arg1, i64* %arg2, i64* %arg3) local_unnamed_addr {
dec_label_pc_401:
  %rax.0.reg2mem = alloca i64, !insn.addr !85
  %storemerge.reg2mem = alloca i64, !insn.addr !85
  %stack_var_-40 = alloca i64, align 8
  %0 = call i64 @__readfsqword(i64 40), !insn.addr !86
  %1 = call i64 @_ZN28deobfuscate_memory_state_ssa12_GLOBAL__N_118constantByteOffsetEPN4llvm5ValueEPNS1_10AllocaInstERKNS1_10DataLayoutE(i64* %arg1, i64* %arg2, i64* %arg3), !insn.addr !87
  store i64 %1, i64* %stack_var_-40, align 8, !insn.addr !88
  %2 = call i64 @_ZNKSt8optionalIlEcvbEv(i64* nonnull %stack_var_-40), !insn.addr !89
  %3 = trunc i64 %2 to i8, !insn.addr !90
  %4 = icmp eq i8 %3, 0, !insn.addr !90
  br i1 %4, label %dec_label_pc_472, label %dec_label_pc_457, !insn.addr !91

dec_label_pc_457:                                 ; preds = %dec_label_pc_401
  %5 = call i64 @_ZNRSt8optionalIlEdeEv(i64* nonnull %stack_var_-40), !insn.addr !92
  %6 = inttoptr i64 %5 to i64*, !insn.addr !93
  %7 = load i64, i64* %6, align 8, !insn.addr !93
  %8 = icmp eq i64 %7, 0, !insn.addr !94
  %9 = icmp eq i1 %8, false, !insn.addr !95
  store i64 1, i64* %storemerge.reg2mem, !insn.addr !95
  br i1 %9, label %dec_label_pc_472, label %dec_label_pc_477, !insn.addr !95

dec_label_pc_472:                                 ; preds = %dec_label_pc_457, %dec_label_pc_401
  store i64 0, i64* %storemerge.reg2mem, !insn.addr !96
  br label %dec_label_pc_477, !insn.addr !96

dec_label_pc_477:                                 ; preds = %dec_label_pc_457, %dec_label_pc_472
  %storemerge.reload = load i64, i64* %storemerge.reg2mem
  %10 = call i64 @__readfsqword(i64 40), !insn.addr !97
  %11 = icmp eq i64 %0, %10, !insn.addr !97
  store i64 %storemerge.reload, i64* %rax.0.reg2mem, !insn.addr !98
  br i1 %11, label %dec_label_pc_48b, label %dec_label_pc_486, !insn.addr !98

dec_label_pc_486:                                 ; preds = %dec_label_pc_477
  %12 = call i64 @__stack_chk_fail(), !insn.addr !99
  store i64 %12, i64* %rax.0.reg2mem, !insn.addr !99
  br label %dec_label_pc_48b, !insn.addr !99

dec_label_pc_48b:                                 ; preds = %dec_label_pc_486, %dec_label_pc_477
  %rax.0.reload = load i64, i64* %rax.0.reg2mem
  ret i64 %rax.0.reload, !insn.addr !100

; uselistorder directives
  uselistorder i64* %storemerge.reg2mem, { 0, 2, 1 }
  uselistorder label %dec_label_pc_477, { 1, 0 }
}

define i64 @_ZN28deobfuscate_memory_state_ssa12_GLOBAL__N_124rewriteZeroOffsetAliasesEPN4llvm10AllocaInstERKNS1_10DataLayoutE(i64* %arg1, i64* %arg2) local_unnamed_addr {
dec_label_pc_48d:
  %rax.0.reg2mem = alloca i64, !insn.addr !101
  %stack_var_-168.01.reg2mem = alloca i64, !insn.addr !101
  %stack_var_-194.13.reg2mem = alloca i64, !insn.addr !101
  %stack_var_-176 = alloca i64, align 8
  %stack_var_-184 = alloca i64, align 8
  %stack_var_-192 = alloca i64, align 8
  %stack_var_-120 = alloca i64, align 8
  %stack_var_-104 = alloca i64, align 8
  %0 = call i64 @__readfsqword(i64 40), !insn.addr !102
  %1 = bitcast i64* %stack_var_-176 to i64**
  store i64 0, i64* %stack_var_-194.13.reg2mem
  br label %dec_label_pc_4cc

dec_label_pc_4cc:                                 ; preds = %dec_label_pc_6b9, %dec_label_pc_48d
  %stack_var_-194.13.reload = load i64, i64* %stack_var_-194.13.reg2mem
  %2 = call i64 @_ZN4llvm11SmallVectorIPNS_11InstructionELj8EEC1Ev(i64* nonnull %stack_var_-104), !insn.addr !103
  %3 = call i64 @_ZN4llvm5Value5usersEv(i64* %arg1), !insn.addr !104
  store i64 %3, i64* %stack_var_-120, align 8, !insn.addr !105
  %4 = call i64 @_ZNK4llvm14iterator_rangeINS_5Value18user_iterator_implINS_4UserEEEE5beginEv(i64* nonnull %stack_var_-120), !insn.addr !106
  store i64 %4, i64* %stack_var_-192, align 8, !insn.addr !107
  %5 = call i64 @_ZNK4llvm14iterator_rangeINS_5Value18user_iterator_implINS_4UserEEEE3endEv(i64* nonnull %stack_var_-120), !insn.addr !108
  store i64 %5, i64* %stack_var_-184, align 8, !insn.addr !109
  %6 = call i64 @_ZNK4llvm5Value18user_iterator_implINS_4UserEEneERKS3_(i64* nonnull %stack_var_-192, i64* nonnull %stack_var_-184), !insn.addr !110
  %7 = trunc i64 %6 to i8, !insn.addr !111
  %8 = icmp eq i8 %7, 0, !insn.addr !111
  %9 = icmp eq i1 %8, false, !insn.addr !112
  br i1 %9, label %dec_label_pc_532, label %dec_label_pc_61a, !insn.addr !112

dec_label_pc_532:                                 ; preds = %dec_label_pc_4cc, %dec_label_pc_5ea
  %10 = call i64 @_ZNK4llvm5Value18user_iterator_implINS_4UserEEdeEv(i64* nonnull %stack_var_-192), !insn.addr !113
  %11 = inttoptr i64 %10 to i64*, !insn.addr !114
  %12 = call i64 @_ZN4llvm8dyn_castINS_11InstructionENS_4UserEEEDcPT0_(i64* %11), !insn.addr !114
  store i64 %12, i64* %stack_var_-176, align 8, !insn.addr !115
  %13 = icmp eq i64 %12, 0, !insn.addr !116
  br i1 %13, label %dec_label_pc_5ea, label %dec_label_pc_564, !insn.addr !117

dec_label_pc_564:                                 ; preds = %dec_label_pc_532
  %14 = call i1 @_ZN4llvm3isaINS_8LoadInstEPNS_11InstructionEEEbRKT0_(i64** nonnull %1), !insn.addr !118
  %15 = icmp eq i1 %14, false, !insn.addr !119
  %16 = icmp eq i1 %15, false, !insn.addr !120
  br i1 %16, label %dec_label_pc_5ea, label %dec_label_pc_577, !insn.addr !120

dec_label_pc_577:                                 ; preds = %dec_label_pc_564
  %17 = call i1 @_ZN4llvm3isaINS_9StoreInstEPNS_11InstructionEEEbRKT0_(i64** nonnull %1), !insn.addr !121
  %18 = icmp eq i1 %17, false, !insn.addr !122
  %19 = icmp eq i1 %18, false, !insn.addr !123
  br i1 %19, label %dec_label_pc_5ea, label %dec_label_pc_5a9, !insn.addr !123

dec_label_pc_5a9:                                 ; preds = %dec_label_pc_577
  %20 = load i64, i64* %stack_var_-176, align 8, !insn.addr !124
  %21 = inttoptr i64 %20 to i64*, !insn.addr !125
  %22 = call i64 @_ZN28deobfuscate_memory_state_ssa12_GLOBAL__N_117isBenignIntrinsicEPN4llvm4UserE(i64* %21), !insn.addr !125
  %23 = trunc i64 %22 to i8, !insn.addr !126
  %24 = icmp ne i8 %23, 0, !insn.addr !126
  %25 = icmp eq i1 %24, false, !insn.addr !127
  %26 = icmp eq i1 %25, false, !insn.addr !128
  br i1 %26, label %dec_label_pc_5ea, label %dec_label_pc_5ad, !insn.addr !128

dec_label_pc_5ad:                                 ; preds = %dec_label_pc_5a9
  %27 = load i64, i64* %stack_var_-176, align 8, !insn.addr !129
  %28 = inttoptr i64 %27 to i64*, !insn.addr !130
  %29 = call i64 @_ZN28deobfuscate_memory_state_ssa12_GLOBAL__N_117isZeroOffsetAliasEPN4llvm5ValueEPNS1_10AllocaInstERKNS1_10DataLayoutE(i64* %28, i64* %arg1, i64* %arg2), !insn.addr !130
  %30 = trunc i64 %29 to i8, !insn.addr !131
  %31 = icmp eq i8 %30, 0, !insn.addr !131
  br i1 %31, label %dec_label_pc_5ea, label %dec_label_pc_5d1, !insn.addr !132

dec_label_pc_5d1:                                 ; preds = %dec_label_pc_5ad
  %32 = load i64, i64* %stack_var_-176, align 8, !insn.addr !133
  %33 = inttoptr i64 %32 to i64*, !insn.addr !134
  %34 = call i64 @_ZN4llvm23SmallVectorTemplateBaseIPNS_11InstructionELb1EE9push_backES2_(i64* nonnull %stack_var_-104, i64* %33), !insn.addr !134
  br label %dec_label_pc_5ea, !insn.addr !135

dec_label_pc_5ea:                                 ; preds = %dec_label_pc_532, %dec_label_pc_564, %dec_label_pc_577, %dec_label_pc_5a9, %dec_label_pc_5d1, %dec_label_pc_5ad
  %35 = call i64 @_ZN4llvm5Value18user_iterator_implINS_4UserEEppEv(i64* nonnull %stack_var_-192), !insn.addr !136
  %36 = call i64 @_ZNK4llvm5Value18user_iterator_implINS_4UserEEneERKS3_(i64* nonnull %stack_var_-192, i64* nonnull %stack_var_-184), !insn.addr !110
  %37 = trunc i64 %36 to i8, !insn.addr !111
  %38 = icmp eq i8 %37, 0, !insn.addr !111
  %39 = icmp eq i1 %38, false, !insn.addr !112
  br i1 %39, label %dec_label_pc_532, label %dec_label_pc_61a, !insn.addr !112

dec_label_pc_61a:                                 ; preds = %dec_label_pc_5ea, %dec_label_pc_4cc
  %40 = call i64 @_ZN4llvm25SmallVectorTemplateCommonIPNS_11InstructionEvE5beginEv(i64* nonnull %stack_var_-104), !insn.addr !137
  %41 = call i64 @_ZN4llvm25SmallVectorTemplateCommonIPNS_11InstructionEvE3endEv(i64* nonnull %stack_var_-104), !insn.addr !138
  %42 = icmp eq i64 %40, %41, !insn.addr !139
  %43 = icmp eq i1 %42, false, !insn.addr !140
  store i64 %40, i64* %stack_var_-168.01.reg2mem, !insn.addr !140
  br i1 %43, label %dec_label_pc_653, label %dec_label_pc_6d2, !insn.addr !140

dec_label_pc_653:                                 ; preds = %dec_label_pc_61a, %dec_label_pc_693
  %stack_var_-168.01.reload = load i64, i64* %stack_var_-168.01.reg2mem
  %44 = inttoptr i64 %stack_var_-168.01.reload to i64*, !insn.addr !141
  %45 = load i64, i64* %44, align 8, !insn.addr !141
  %46 = inttoptr i64 %45 to i64*, !insn.addr !142
  %47 = call i64 @_ZN4llvm5Value18replaceAllUsesWithEPS0_(i64* %46, i64* %arg1), !insn.addr !142
  %48 = call i64 @_ZNK4llvm5Value9use_emptyEv(i64* %46), !insn.addr !143
  %49 = trunc i64 %48 to i8, !insn.addr !144
  %50 = icmp eq i8 %49, 0, !insn.addr !144
  br i1 %50, label %dec_label_pc_693, label %dec_label_pc_687, !insn.addr !145

dec_label_pc_687:                                 ; preds = %dec_label_pc_653
  %51 = call i64 @_ZN4llvm11Instruction15eraseFromParentEv(i64* %46), !insn.addr !146
  br label %dec_label_pc_693, !insn.addr !146

dec_label_pc_693:                                 ; preds = %dec_label_pc_687, %dec_label_pc_653
  %52 = add i64 %stack_var_-168.01.reload, 8, !insn.addr !147
  %53 = icmp eq i64 %52, %41, !insn.addr !139
  %54 = icmp eq i1 %53, false, !insn.addr !140
  store i64 %52, i64* %stack_var_-168.01.reg2mem, !insn.addr !140
  br i1 %54, label %dec_label_pc_653, label %dec_label_pc_6b9, !insn.addr !140

dec_label_pc_6b9:                                 ; preds = %dec_label_pc_693
  %55 = call i64 @_ZN4llvm11SmallVectorIPNS_11InstructionELj8EED1Ev(i64* nonnull %stack_var_-104), !insn.addr !148
  store i64 1, i64* %stack_var_-194.13.reg2mem
  br label %dec_label_pc_4cc

dec_label_pc_6d2:                                 ; preds = %dec_label_pc_61a
  %56 = call i64 @_ZN4llvm11SmallVectorIPNS_11InstructionELj8EED1Ev(i64* nonnull %stack_var_-104), !insn.addr !148
  %57 = call i64 @__readfsqword(i64 40), !insn.addr !149
  %58 = icmp eq i64 %0, %57, !insn.addr !149
  store i64 %stack_var_-194.13.reload, i64* %rax.0.reg2mem, !insn.addr !150
  br i1 %58, label %dec_label_pc_6ed, label %dec_label_pc_6e8, !insn.addr !150

dec_label_pc_6e8:                                 ; preds = %dec_label_pc_6d2
  %59 = call i64 @__stack_chk_fail(), !insn.addr !151
  store i64 %59, i64* %rax.0.reg2mem, !insn.addr !151
  br label %dec_label_pc_6ed, !insn.addr !151

dec_label_pc_6ed:                                 ; preds = %dec_label_pc_6e8, %dec_label_pc_6d2
  %rax.0.reload = load i64, i64* %rax.0.reg2mem
  ret i64 %rax.0.reload, !insn.addr !152

; uselistorder directives
  uselistorder i64 %41, { 1, 0 }
  uselistorder i64* %stack_var_-192, { 1, 2, 3, 0, 4 }
  uselistorder i64* %stack_var_-184, { 1, 0, 2 }
  uselistorder i64* %stack_var_-176, { 1, 2, 3, 4, 0 }
  uselistorder i64* %stack_var_-194.13.reg2mem, { 1, 0, 2 }
  uselistorder i64* %stack_var_-168.01.reg2mem, { 2, 0, 1 }
  uselistorder i64* %arg1, { 1, 0, 2 }
  uselistorder label %dec_label_pc_653, { 1, 0 }
  uselistorder label %dec_label_pc_5ea, { 4, 5, 3, 2, 1, 0 }
  uselistorder label %dec_label_pc_532, { 1, 0 }
}

define i64 @_ZN28deobfuscate_memory_state_ssa12_GLOBAL__N_126hasOnlyPromotableStateUsesEPN4llvm10AllocaInstERKNS1_10DataLayoutE(i64* %result, i64* %arg2, i64* %arg3) local_unnamed_addr {
dec_label_pc_6ef:
  %rax.1.reg2mem = alloca i64, !insn.addr !153
  %rax.0.reg2mem = alloca i64, !insn.addr !153
  %stack_var_-88 = alloca i64, align 8
  %stack_var_-96 = alloca i64, align 8
  %stack_var_-40 = alloca i64, align 8
  %0 = call i64 @__readfsqword(i64 40), !insn.addr !154
  %1 = call i64 @_ZNK4llvm10AllocaInst16getAllocatedTypeEv(i64* %result), !insn.addr !155
  %2 = inttoptr i64 %1 to i64*, !insn.addr !156
  %3 = call i64 @_ZNK4llvm4Type11isIntegerTyEv(i64* %2), !insn.addr !156
  %4 = trunc i64 %3 to i8
  %5 = icmp eq i8 %4, 1, !insn.addr !157
  br i1 %5, label %dec_label_pc_74f, label %dec_label_pc_735, !insn.addr !158

dec_label_pc_735:                                 ; preds = %dec_label_pc_6ef
  %6 = call i64 @_ZNK4llvm4Type11isPointerTyEv(i64* %2), !insn.addr !159
  %7 = trunc i64 %6 to i8
  %8 = icmp eq i8 %7, 1, !insn.addr !160
  store i64 0, i64* %rax.0.reg2mem, !insn.addr !161
  br i1 %8, label %dec_label_pc_74f, label %dec_label_pc_8dc, !insn.addr !161

dec_label_pc_74f:                                 ; preds = %dec_label_pc_735, %dec_label_pc_6ef
  %9 = call i64 @_ZNK4llvm10AllocaInst14isStaticAllocaEv(i64* %result), !insn.addr !162
  %10 = trunc i64 %9 to i8
  %11 = icmp eq i8 %10, 1, !insn.addr !163
  store i64 0, i64* %rax.0.reg2mem, !insn.addr !164
  br i1 %11, label %dec_label_pc_77f, label %dec_label_pc_8dc, !insn.addr !164

dec_label_pc_77f:                                 ; preds = %dec_label_pc_74f
  %12 = call i64 @_ZN4llvm5Value5usersEv(i64* %result), !insn.addr !165
  store i64 %12, i64* %stack_var_-40, align 8, !insn.addr !166
  %13 = call i64 @_ZNK4llvm14iterator_rangeINS_5Value18user_iterator_implINS_4UserEEEE5beginEv(i64* nonnull %stack_var_-40), !insn.addr !167
  store i64 %13, i64* %stack_var_-96, align 8, !insn.addr !168
  %14 = call i64 @_ZNK4llvm14iterator_rangeINS_5Value18user_iterator_implINS_4UserEEEE3endEv(i64* nonnull %stack_var_-40), !insn.addr !169
  store i64 %14, i64* %stack_var_-88, align 8, !insn.addr !170
  %15 = call i64 @_ZNK4llvm5Value18user_iterator_implINS_4UserEEneERKS3_(i64* nonnull %stack_var_-96, i64* nonnull %stack_var_-88), !insn.addr !171
  %16 = trunc i64 %15 to i8, !insn.addr !172
  %17 = icmp eq i8 %16, 0, !insn.addr !172
  %18 = icmp eq i1 %17, false, !insn.addr !173
  store i64 1, i64* %rax.0.reg2mem, !insn.addr !173
  br i1 %18, label %dec_label_pc_7c0, label %dec_label_pc_8dc, !insn.addr !173

dec_label_pc_7c0:                                 ; preds = %dec_label_pc_77f, %dec_label_pc_8b0
  %19 = call i64 @_ZNK4llvm5Value18user_iterator_implINS_4UserEEdeEv(i64* nonnull %stack_var_-96), !insn.addr !174
  %20 = inttoptr i64 %19 to i64*, !insn.addr !175
  %21 = call i64 @_ZN4llvm8dyn_castINS_8LoadInstENS_4UserEEEDcPT0_(i64* %20), !insn.addr !175
  %22 = icmp eq i64 %21, 0, !insn.addr !176
  br i1 %22, label %dec_label_pc_834, label %dec_label_pc_7e7, !insn.addr !177

dec_label_pc_7e7:                                 ; preds = %dec_label_pc_7c0
  %23 = inttoptr i64 %21 to i64*, !insn.addr !178
  %24 = call i64 @_ZN4llvm8LoadInst17getPointerOperandEv(i64* %23), !insn.addr !178
  %25 = inttoptr i64 %24 to i64*, !insn.addr !179
  %26 = call i64 @_ZN28deobfuscate_memory_state_ssa12_GLOBAL__N_117isZeroOffsetAliasEPN4llvm5ValueEPNS1_10AllocaInstERKNS1_10DataLayoutE(i64* %25, i64* %result, i64* %arg2), !insn.addr !179
  %27 = trunc i64 %26 to i8
  %28 = icmp eq i8 %27, 1, !insn.addr !180
  store i64 0, i64* %rax.0.reg2mem, !insn.addr !181
  br i1 %28, label %dec_label_pc_81a, label %dec_label_pc_8dc, !insn.addr !181

dec_label_pc_81a:                                 ; preds = %dec_label_pc_7e7
  %29 = call i64 @_ZNK4llvm11Instruction8isAtomicEv(i64* %23), !insn.addr !182
  %30 = trunc i64 %29 to i8, !insn.addr !183
  %31 = icmp eq i8 %30, 0, !insn.addr !183
  store i64 0, i64* %rax.0.reg2mem, !insn.addr !184
  br i1 %31, label %dec_label_pc_8b0, label %dec_label_pc_8dc, !insn.addr !184

dec_label_pc_834:                                 ; preds = %dec_label_pc_7c0
  %32 = call i64 @_ZN4llvm8dyn_castINS_9StoreInstENS_4UserEEEDcPT0_(i64* %20), !insn.addr !185
  %33 = icmp eq i64 %32, 0, !insn.addr !186
  br i1 %33, label %dec_label_pc_892, label %dec_label_pc_84b, !insn.addr !187

dec_label_pc_84b:                                 ; preds = %dec_label_pc_834
  %34 = inttoptr i64 %32 to i64*, !insn.addr !188
  %35 = call i64 @_ZN4llvm9StoreInst17getPointerOperandEv(i64* %34), !insn.addr !188
  %36 = inttoptr i64 %35 to i64*, !insn.addr !189
  %37 = call i64 @_ZN28deobfuscate_memory_state_ssa12_GLOBAL__N_117isZeroOffsetAliasEPN4llvm5ValueEPNS1_10AllocaInstERKNS1_10DataLayoutE(i64* %36, i64* %result, i64* %arg2), !insn.addr !189
  %38 = trunc i64 %37 to i8
  %39 = icmp eq i8 %38, 1, !insn.addr !190
  store i64 0, i64* %rax.0.reg2mem, !insn.addr !191
  br i1 %39, label %dec_label_pc_87b, label %dec_label_pc_8dc, !insn.addr !191

dec_label_pc_87b:                                 ; preds = %dec_label_pc_84b
  %40 = call i64 @_ZNK4llvm11Instruction8isAtomicEv(i64* %34), !insn.addr !192
  %41 = trunc i64 %40 to i8, !insn.addr !193
  %42 = icmp eq i8 %41, 0, !insn.addr !193
  store i64 0, i64* %rax.0.reg2mem, !insn.addr !194
  br i1 %42, label %dec_label_pc_8b0, label %dec_label_pc_8dc, !insn.addr !194

dec_label_pc_892:                                 ; preds = %dec_label_pc_834
  %43 = call i64 @_ZN28deobfuscate_memory_state_ssa12_GLOBAL__N_117isBenignIntrinsicEPN4llvm4UserE(i64* %20), !insn.addr !195
  %44 = trunc i64 %43 to i8, !insn.addr !196
  %45 = icmp eq i8 %44, 0, !insn.addr !196
  %46 = icmp eq i1 %45, false, !insn.addr !197
  store i64 0, i64* %rax.0.reg2mem, !insn.addr !197
  br i1 %46, label %dec_label_pc_8b0, label %dec_label_pc_8dc, !insn.addr !197

dec_label_pc_8b0:                                 ; preds = %dec_label_pc_892, %dec_label_pc_87b, %dec_label_pc_81a
  %47 = call i64 @_ZN4llvm5Value18user_iterator_implINS_4UserEEppEv(i64* nonnull %stack_var_-96), !insn.addr !198
  %48 = call i64 @_ZNK4llvm5Value18user_iterator_implINS_4UserEEneERKS3_(i64* nonnull %stack_var_-96, i64* nonnull %stack_var_-88), !insn.addr !171
  %49 = trunc i64 %48 to i8, !insn.addr !172
  %50 = icmp eq i8 %49, 0, !insn.addr !172
  %51 = icmp eq i1 %50, false, !insn.addr !173
  store i64 1, i64* %rax.0.reg2mem, !insn.addr !173
  br i1 %51, label %dec_label_pc_7c0, label %dec_label_pc_8dc, !insn.addr !173

dec_label_pc_8dc:                                 ; preds = %dec_label_pc_7e7, %dec_label_pc_81a, %dec_label_pc_84b, %dec_label_pc_87b, %dec_label_pc_892, %dec_label_pc_8b0, %dec_label_pc_77f, %dec_label_pc_74f, %dec_label_pc_735
  %rax.0.reload = load i64, i64* %rax.0.reg2mem
  %52 = call i64 @__readfsqword(i64 40), !insn.addr !199
  %53 = icmp eq i64 %0, %52, !insn.addr !199
  store i64 %rax.0.reload, i64* %rax.1.reg2mem, !insn.addr !200
  br i1 %53, label %dec_label_pc_8f0, label %dec_label_pc_8eb, !insn.addr !200

dec_label_pc_8eb:                                 ; preds = %dec_label_pc_8dc
  %54 = call i64 @__stack_chk_fail(), !insn.addr !201
  store i64 %54, i64* %rax.1.reg2mem, !insn.addr !201
  br label %dec_label_pc_8f0, !insn.addr !201

dec_label_pc_8f0:                                 ; preds = %dec_label_pc_8eb, %dec_label_pc_8dc
  %rax.1.reload = load i64, i64* %rax.1.reg2mem
  ret i64 %rax.1.reload, !insn.addr !202

; uselistorder directives
  uselistorder i64* %stack_var_-96, { 1, 2, 3, 0, 4 }
  uselistorder i64* %stack_var_-88, { 1, 0, 2 }
  uselistorder i64* %rax.0.reg2mem, { 0, 6, 5, 4, 3, 2, 1, 7, 8, 9 }
  uselistorder i64 (i64*)* @_ZN28deobfuscate_memory_state_ssa12_GLOBAL__N_117isBenignIntrinsicEPN4llvm4UserE, { 1, 0 }
  uselistorder i64 (i64*)* @_ZNK4llvm11Instruction8isAtomicEv, { 1, 0 }
  uselistorder i64 (i64*, i64*, i64*)* @_ZN28deobfuscate_memory_state_ssa12_GLOBAL__N_117isZeroOffsetAliasEPN4llvm5ValueEPNS1_10AllocaInstERKNS1_10DataLayoutE, { 2, 1, 0 }
  uselistorder label %dec_label_pc_8dc, { 5, 4, 3, 2, 1, 0, 6, 7, 8 }
  uselistorder label %dec_label_pc_7c0, { 1, 0 }
}

define i64 @_ZN28deobfuscate_memory_state_ssa12_GLOBAL__N_118stripLocalVolatileEPN4llvm10AllocaInstE(i64* %this, i64* %result, i64* %arg3) local_unnamed_addr {
dec_label_pc_8f2:
  %rax.0.reg2mem = alloca i64, !insn.addr !203
  %stack_var_-89.1.lcssa.reg2mem = alloca i8, !insn.addr !203
  %stack_var_-89.0.reg2mem = alloca i8, !insn.addr !203
  %stack_var_-89.11.reg2mem = alloca i8, !insn.addr !203
  %stack_var_-80 = alloca i64, align 8
  %stack_var_-88 = alloca i64, align 8
  %stack_var_-40 = alloca i64, align 8
  %0 = call i64 @__readfsqword(i64 40), !insn.addr !204
  %1 = call i64 @_ZN4llvm5Value5usersEv(i64* %this), !insn.addr !205
  store i64 %1, i64* %stack_var_-40, align 8, !insn.addr !206
  %2 = call i64 @_ZNK4llvm14iterator_rangeINS_5Value18user_iterator_implINS_4UserEEEE5beginEv(i64* nonnull %stack_var_-40), !insn.addr !207
  store i64 %2, i64* %stack_var_-88, align 8, !insn.addr !208
  %3 = call i64 @_ZNK4llvm14iterator_rangeINS_5Value18user_iterator_implINS_4UserEEEE3endEv(i64* nonnull %stack_var_-40), !insn.addr !209
  store i64 %3, i64* %stack_var_-80, align 8, !insn.addr !210
  %4 = call i64 @_ZNK4llvm5Value18user_iterator_implINS_4UserEEneERKS3_(i64* nonnull %stack_var_-88, i64* nonnull %stack_var_-80), !insn.addr !211
  %5 = trunc i64 %4 to i8, !insn.addr !212
  %6 = icmp eq i8 %5, 0, !insn.addr !212
  %7 = icmp eq i1 %6, false, !insn.addr !213
  store i8 0, i8* %stack_var_-89.11.reg2mem, !insn.addr !213
  store i8 0, i8* %stack_var_-89.1.lcssa.reg2mem, !insn.addr !213
  br i1 %7, label %dec_label_pc_956, label %dec_label_pc_a0d, !insn.addr !213

dec_label_pc_956:                                 ; preds = %dec_label_pc_8f2, %dec_label_pc_9e6
  %stack_var_-89.11.reload = load i8, i8* %stack_var_-89.11.reg2mem
  %8 = call i64 @_ZNK4llvm5Value18user_iterator_implINS_4UserEEdeEv(i64* nonnull %stack_var_-88), !insn.addr !214
  %9 = inttoptr i64 %8 to i64*, !insn.addr !215
  %10 = call i64 @_ZN4llvm8dyn_castINS_8LoadInstENS_4UserEEEDcPT0_(i64* %9), !insn.addr !215
  %11 = icmp eq i64 %10, 0, !insn.addr !216
  br i1 %11, label %dec_label_pc_9a4, label %dec_label_pc_97d, !insn.addr !217

dec_label_pc_97d:                                 ; preds = %dec_label_pc_956
  %12 = inttoptr i64 %10 to i64*, !insn.addr !218
  %13 = call i64 @_ZNK4llvm8LoadInst10isVolatileEv(i64* %12), !insn.addr !218
  %14 = trunc i64 %13 to i8, !insn.addr !219
  %15 = icmp eq i8 %14, 0, !insn.addr !219
  store i8 %stack_var_-89.11.reload, i8* %stack_var_-89.0.reg2mem, !insn.addr !220
  br i1 %15, label %dec_label_pc_9e6, label %dec_label_pc_98d, !insn.addr !220

dec_label_pc_98d:                                 ; preds = %dec_label_pc_97d
  %16 = call i64 @_ZN4llvm8LoadInst11setVolatileEb(i64* %12, i1 false), !insn.addr !221
  store i8 1, i8* %stack_var_-89.0.reg2mem, !insn.addr !222
  br label %dec_label_pc_9e6, !insn.addr !222

dec_label_pc_9a4:                                 ; preds = %dec_label_pc_956
  %17 = call i64 @_ZN4llvm8dyn_castINS_9StoreInstENS_4UserEEEDcPT0_(i64* %9), !insn.addr !223
  %18 = icmp eq i64 %17, 0, !insn.addr !224
  store i8 %stack_var_-89.11.reload, i8* %stack_var_-89.0.reg2mem, !insn.addr !225
  br i1 %18, label %dec_label_pc_9e6, label %dec_label_pc_9bb, !insn.addr !225

dec_label_pc_9bb:                                 ; preds = %dec_label_pc_9a4
  %19 = inttoptr i64 %17 to i64*, !insn.addr !226
  %20 = call i64 @_ZNK4llvm9StoreInst10isVolatileEv(i64* %19), !insn.addr !226
  %21 = trunc i64 %20 to i8, !insn.addr !227
  %22 = icmp eq i8 %21, 0, !insn.addr !227
  store i8 %stack_var_-89.11.reload, i8* %stack_var_-89.0.reg2mem, !insn.addr !228
  br i1 %22, label %dec_label_pc_9e6, label %dec_label_pc_9cb, !insn.addr !228

dec_label_pc_9cb:                                 ; preds = %dec_label_pc_9bb
  %23 = call i64 @_ZN4llvm9StoreInst11setVolatileEb(i64* %19, i1 false), !insn.addr !229
  store i8 1, i8* %stack_var_-89.0.reg2mem, !insn.addr !230
  br label %dec_label_pc_9e6, !insn.addr !230

dec_label_pc_9e6:                                 ; preds = %dec_label_pc_9bb, %dec_label_pc_9cb, %dec_label_pc_97d, %dec_label_pc_98d, %dec_label_pc_9a4
  %stack_var_-89.0.reload = load i8, i8* %stack_var_-89.0.reg2mem
  %24 = call i64 @_ZN4llvm5Value18user_iterator_implINS_4UserEEppEv(i64* nonnull %stack_var_-88), !insn.addr !231
  %25 = call i64 @_ZNK4llvm5Value18user_iterator_implINS_4UserEEneERKS3_(i64* nonnull %stack_var_-88, i64* nonnull %stack_var_-80), !insn.addr !211
  %26 = trunc i64 %25 to i8, !insn.addr !212
  %27 = icmp eq i8 %26, 0, !insn.addr !212
  %28 = icmp eq i1 %27, false, !insn.addr !213
  store i8 %stack_var_-89.0.reload, i8* %stack_var_-89.11.reg2mem, !insn.addr !213
  store i8 %stack_var_-89.0.reload, i8* %stack_var_-89.1.lcssa.reg2mem, !insn.addr !213
  br i1 %28, label %dec_label_pc_956, label %dec_label_pc_a0d, !insn.addr !213

dec_label_pc_a0d:                                 ; preds = %dec_label_pc_9e6, %dec_label_pc_8f2
  %stack_var_-89.1.lcssa.reload = load i8, i8* %stack_var_-89.1.lcssa.reg2mem
  %29 = zext i8 %stack_var_-89.1.lcssa.reload to i64, !insn.addr !232
  %30 = call i64 @__readfsqword(i64 40), !insn.addr !233
  %31 = icmp eq i64 %0, %30, !insn.addr !233
  store i64 %29, i64* %rax.0.reg2mem, !insn.addr !234
  br i1 %31, label %dec_label_pc_a25, label %dec_label_pc_a20, !insn.addr !234

dec_label_pc_a20:                                 ; preds = %dec_label_pc_a0d
  %32 = call i64 @__stack_chk_fail(), !insn.addr !235
  store i64 %32, i64* %rax.0.reg2mem, !insn.addr !235
  br label %dec_label_pc_a25, !insn.addr !235

dec_label_pc_a25:                                 ; preds = %dec_label_pc_a20, %dec_label_pc_a0d
  %rax.0.reload = load i64, i64* %rax.0.reg2mem
  ret i64 %rax.0.reload, !insn.addr !236

; uselistorder directives
  uselistorder i8 %stack_var_-89.11.reload, { 1, 2, 0 }
  uselistorder i64* %stack_var_-88, { 1, 2, 3, 0, 4 }
  uselistorder i64* %stack_var_-80, { 1, 0, 2 }
  uselistorder i8* %stack_var_-89.11.reg2mem, { 2, 0, 1 }
  uselistorder i8* %stack_var_-89.0.reg2mem, { 0, 3, 4, 5, 1, 2 }
  uselistorder i64 (i64*)* @_ZN4llvm8dyn_castINS_9StoreInstENS_4UserEEEDcPT0_, { 1, 0 }
  uselistorder i64 (i64*)* @_ZN4llvm8dyn_castINS_8LoadInstENS_4UserEEEDcPT0_, { 1, 0 }
  uselistorder label %dec_label_pc_9e6, { 1, 0, 4, 3, 2 }
  uselistorder label %dec_label_pc_956, { 1, 0 }
}

define i64 @_ZN28deobfuscate_memory_state_ssa12_GLOBAL__N_114hasNumericNameERKN4llvm14GlobalVariableE(i64* %this, i64* %result, i64* %arg3) local_unnamed_addr {
dec_label_pc_a27:
  %rax.1.reg2mem = alloca i64, !insn.addr !237
  %rax.0.reg2mem = alloca i64, !insn.addr !237
  %stack_var_-64.0.in3.reg2mem = alloca i64, !insn.addr !237
  %stack_var_-40 = alloca i64, align 8
  %0 = call i64 @__readfsqword(i64 40), !insn.addr !238
  %1 = call i64 @_ZNK4llvm5Value7getNameEv(i64* %this), !insn.addr !239
  store i64 %1, i64* %stack_var_-40, align 8, !insn.addr !240
  %2 = call i64 @_ZNK4llvm9StringRef5emptyEv(i64* nonnull %stack_var_-40), !insn.addr !241
  %3 = trunc i64 %2 to i8, !insn.addr !242
  %4 = icmp eq i8 %3, 0, !insn.addr !242
  store i64 1, i64* %rax.0.reg2mem, !insn.addr !243
  br i1 %4, label %dec_label_pc_a71, label %dec_label_pc_acc, !insn.addr !243

dec_label_pc_a71:                                 ; preds = %dec_label_pc_a27
  %5 = call i64 @_ZNK4llvm9StringRef5beginEv(i64* nonnull %stack_var_-40), !insn.addr !244
  %6 = call i64 @_ZNK4llvm9StringRef3endEv(i64* nonnull %stack_var_-40), !insn.addr !245
  %7 = icmp eq i64 %6, %5, !insn.addr !246
  %8 = icmp eq i1 %7, false, !insn.addr !247
  store i64 %5, i64* %stack_var_-64.0.in3.reg2mem, !insn.addr !247
  store i64 1, i64* %rax.0.reg2mem, !insn.addr !247
  br i1 %8, label %dec_label_pc_a9b, label %dec_label_pc_acc, !insn.addr !247

dec_label_pc_a9b:                                 ; preds = %dec_label_pc_a71, %dec_label_pc_abd
  %stack_var_-64.0.in3.reload = load i64, i64* %stack_var_-64.0.in3.reg2mem
  %stack_var_-64.0 = inttoptr i64 %stack_var_-64.0.in3.reload to i8*
  %9 = load i8, i8* %stack_var_-64.0, align 1, !insn.addr !248
  %.off = add i8 %9, -48
  %10 = icmp ult i8 %.off, 10
  store i64 0, i64* %rax.0.reg2mem, !insn.addr !249
  br i1 %10, label %dec_label_pc_abd, label %dec_label_pc_acc, !insn.addr !249

dec_label_pc_abd:                                 ; preds = %dec_label_pc_a9b
  %11 = add i64 %stack_var_-64.0.in3.reload, 1, !insn.addr !250
  %12 = icmp eq i64 %6, %11, !insn.addr !246
  %13 = icmp eq i1 %12, false, !insn.addr !247
  store i64 %11, i64* %stack_var_-64.0.in3.reg2mem, !insn.addr !247
  store i64 1, i64* %rax.0.reg2mem, !insn.addr !247
  br i1 %13, label %dec_label_pc_a9b, label %dec_label_pc_acc, !insn.addr !247

dec_label_pc_acc:                                 ; preds = %dec_label_pc_a9b, %dec_label_pc_abd, %dec_label_pc_a71, %dec_label_pc_a27
  %rax.0.reload = load i64, i64* %rax.0.reg2mem
  %14 = call i64 @__readfsqword(i64 40), !insn.addr !251
  %15 = icmp eq i64 %0, %14, !insn.addr !251
  store i64 %rax.0.reload, i64* %rax.1.reg2mem, !insn.addr !252
  br i1 %15, label %dec_label_pc_ae0, label %dec_label_pc_adb, !insn.addr !252

dec_label_pc_adb:                                 ; preds = %dec_label_pc_acc
  %16 = call i64 @__stack_chk_fail(), !insn.addr !253
  store i64 %16, i64* %rax.1.reg2mem, !insn.addr !253
  br label %dec_label_pc_ae0, !insn.addr !253

dec_label_pc_ae0:                                 ; preds = %dec_label_pc_adb, %dec_label_pc_acc
  %rax.1.reload = load i64, i64* %rax.1.reg2mem
  ret i64 %rax.1.reload, !insn.addr !254

; uselistorder directives
  uselistorder i64 %6, { 1, 0 }
  uselistorder i64* %stack_var_-64.0.in3.reg2mem, { 2, 0, 1 }
  uselistorder i64* %rax.0.reg2mem, { 0, 2, 1, 3, 4 }
  uselistorder label %dec_label_pc_acc, { 1, 0, 2, 3 }
  uselistorder label %dec_label_pc_a9b, { 1, 0 }
}

define i64 @_ZN28deobfuscate_memory_state_ssa12_GLOBAL__N_112isOpaqueSeedERKN4llvm14GlobalVariableE(i64* %this, i64* %result, i64* %arg3) local_unnamed_addr {
dec_label_pc_ae2:
  %rax.1.reg2mem = alloca i64, !insn.addr !255
  %rax.0.reg2mem = alloca i64, !insn.addr !255
  %stack_var_-81.1.lcssa.reg2mem = alloca i8, !insn.addr !255
  %stack_var_-81.0.reg2mem = alloca i8, !insn.addr !255
  %stack_var_-81.16.reg2mem = alloca i8, !insn.addr !255
  %stack_var_-72 = alloca i64, align 8
  %stack_var_-80 = alloca i64, align 8
  %stack_var_-40 = alloca i64, align 8
  %0 = call i64 @__readfsqword(i64 40), !insn.addr !256
  %1 = call i64 @_ZNK4llvm11GlobalValue13isDeclarationEv(i64* %this), !insn.addr !257
  %2 = trunc i64 %1 to i8, !insn.addr !258
  %3 = icmp eq i8 %2, 0, !insn.addr !258
  %4 = icmp eq i1 %3, false, !insn.addr !259
  store i64 0, i64* %rax.0.reg2mem, !insn.addr !259
  br i1 %4, label %dec_label_pc_c47, label %dec_label_pc_b11, !insn.addr !259

dec_label_pc_b11:                                 ; preds = %dec_label_pc_ae2
  %5 = call i64 @_ZNK4llvm14GlobalVariable14hasInitializerEv(i64* %this), !insn.addr !260
  %6 = trunc i64 %5 to i8
  %7 = icmp eq i8 %6, 1, !insn.addr !261
  %8 = icmp eq i1 %7, false, !insn.addr !262
  store i64 0, i64* %rax.0.reg2mem, !insn.addr !262
  br i1 %8, label %dec_label_pc_c47, label %dec_label_pc_b24, !insn.addr !262

dec_label_pc_b24:                                 ; preds = %dec_label_pc_b11
  %9 = call i64 @_ZNK4llvm11GlobalValue15hasLocalLinkageEv(i64* %this), !insn.addr !263
  %10 = trunc i64 %9 to i8
  %11 = icmp ne i8 %10, 1, !insn.addr !264
  %phitmp = icmp eq i1 %11, false
  store i64 0, i64* %rax.0.reg2mem, !insn.addr !265
  br i1 %phitmp, label %dec_label_pc_b51, label %dec_label_pc_c47, !insn.addr !265

dec_label_pc_b51:                                 ; preds = %dec_label_pc_b24
  %12 = call i64 @_ZN28deobfuscate_memory_state_ssa12_GLOBAL__N_114hasNumericNameERKN4llvm14GlobalVariableE(i64* %this, i64* %result, i64* %arg3), !insn.addr !266
  %13 = trunc i64 %12 to i8
  %14 = icmp eq i8 %13, 1, !insn.addr !267
  %15 = icmp eq i1 %14, false, !insn.addr !268
  store i64 0, i64* %rax.0.reg2mem, !insn.addr !268
  br i1 %15, label %dec_label_pc_c47, label %dec_label_pc_b64, !insn.addr !268

dec_label_pc_b64:                                 ; preds = %dec_label_pc_b51
  %16 = call i64 @_ZNK4llvm11GlobalValue12getValueTypeEv(i64* %this), !insn.addr !269
  %17 = inttoptr i64 %16 to i64*, !insn.addr !270
  %18 = call i64 @_ZNK4llvm4Type11isIntegerTyEv(i64* %17), !insn.addr !270
  %19 = trunc i64 %18 to i8
  %20 = icmp ne i8 %19, 1, !insn.addr !271
  %phitmp3 = icmp eq i1 %20, false
  store i64 0, i64* %rax.0.reg2mem, !insn.addr !272
  br i1 %phitmp3, label %dec_label_pc_b99, label %dec_label_pc_c47, !insn.addr !272

dec_label_pc_b99:                                 ; preds = %dec_label_pc_b64
  %21 = call i64 @_ZNK4llvm5Value5usersEv(i64* %this), !insn.addr !273
  store i64 %21, i64* %stack_var_-40, align 8, !insn.addr !274
  %22 = call i64 @_ZNK4llvm14iterator_rangeINS_5Value18user_iterator_implIKNS_4UserEEEE5beginEv(i64* nonnull %stack_var_-40), !insn.addr !275
  store i64 %22, i64* %stack_var_-80, align 8, !insn.addr !276
  %23 = call i64 @_ZNK4llvm14iterator_rangeINS_5Value18user_iterator_implIKNS_4UserEEEE3endEv(i64* nonnull %stack_var_-40), !insn.addr !277
  store i64 %23, i64* %stack_var_-72, align 8, !insn.addr !278
  %24 = call i64 @_ZNK4llvm5Value18user_iterator_implIKNS_4UserEEneERKS4_(i64* nonnull %stack_var_-80, i64* nonnull %stack_var_-72), !insn.addr !279
  %25 = trunc i64 %24 to i8, !insn.addr !280
  %26 = icmp eq i8 %25, 0, !insn.addr !280
  %27 = icmp eq i1 %26, false, !insn.addr !281
  store i8 0, i8* %stack_var_-81.16.reg2mem, !insn.addr !281
  store i8 0, i8* %stack_var_-81.1.lcssa.reg2mem, !insn.addr !281
  br i1 %27, label %dec_label_pc_bdb, label %dec_label_pc_c43, !insn.addr !281

dec_label_pc_bdb:                                 ; preds = %dec_label_pc_b99, %dec_label_pc_c20
  %stack_var_-81.16.reload = load i8, i8* %stack_var_-81.16.reg2mem
  %28 = call i64 @_ZNK4llvm5Value18user_iterator_implIKNS_4UserEEdeEv(i64* nonnull %stack_var_-80), !insn.addr !282
  %29 = inttoptr i64 %28 to i64*, !insn.addr !283
  %30 = call i64 @_ZN4llvm8dyn_castINS_8LoadInstEKNS_4UserEEEDcPT0_(i64* %29), !insn.addr !283
  %31 = icmp eq i64 %30, 0, !insn.addr !284
  store i8 %stack_var_-81.16.reload, i8* %stack_var_-81.0.reg2mem, !insn.addr !285
  br i1 %31, label %dec_label_pc_c20, label %dec_label_pc_c02, !insn.addr !285

dec_label_pc_c02:                                 ; preds = %dec_label_pc_bdb
  %32 = inttoptr i64 %30 to i64*, !insn.addr !286
  %33 = call i64 @_ZNK4llvm8LoadInst10isVolatileEv(i64* %32), !insn.addr !286
  %34 = trunc i64 %33 to i8
  %35 = icmp eq i8 %34, 1, !insn.addr !287
  store i8 1, i8* %stack_var_-81.0.reg2mem, !insn.addr !288
  store i64 0, i64* %rax.0.reg2mem, !insn.addr !288
  br i1 %35, label %dec_label_pc_c20, label %dec_label_pc_c47, !insn.addr !288

dec_label_pc_c20:                                 ; preds = %dec_label_pc_c02, %dec_label_pc_bdb
  %stack_var_-81.0.reload = load i8, i8* %stack_var_-81.0.reg2mem
  %36 = call i64 @_ZN4llvm5Value18user_iterator_implIKNS_4UserEEppEv(i64* nonnull %stack_var_-80), !insn.addr !289
  %37 = call i64 @_ZNK4llvm5Value18user_iterator_implIKNS_4UserEEneERKS4_(i64* nonnull %stack_var_-80, i64* nonnull %stack_var_-72), !insn.addr !279
  %38 = trunc i64 %37 to i8, !insn.addr !280
  %39 = icmp eq i8 %38, 0, !insn.addr !280
  %40 = icmp eq i1 %39, false, !insn.addr !281
  store i8 %stack_var_-81.0.reload, i8* %stack_var_-81.16.reg2mem, !insn.addr !281
  store i8 %stack_var_-81.0.reload, i8* %stack_var_-81.1.lcssa.reg2mem, !insn.addr !281
  br i1 %40, label %dec_label_pc_bdb, label %dec_label_pc_c43, !insn.addr !281

dec_label_pc_c43:                                 ; preds = %dec_label_pc_c20, %dec_label_pc_b99
  %stack_var_-81.1.lcssa.reload = load i8, i8* %stack_var_-81.1.lcssa.reg2mem
  %41 = zext i8 %stack_var_-81.1.lcssa.reload to i64, !insn.addr !290
  store i64 %41, i64* %rax.0.reg2mem, !insn.addr !290
  br label %dec_label_pc_c47, !insn.addr !290

dec_label_pc_c47:                                 ; preds = %dec_label_pc_c02, %dec_label_pc_b51, %dec_label_pc_ae2, %dec_label_pc_b11, %dec_label_pc_b64, %dec_label_pc_b24, %dec_label_pc_c43
  %rax.0.reload = load i64, i64* %rax.0.reg2mem
  %42 = call i64 @__readfsqword(i64 40), !insn.addr !291
  %43 = icmp eq i64 %0, %42, !insn.addr !291
  store i64 %rax.0.reload, i64* %rax.1.reg2mem, !insn.addr !292
  br i1 %43, label %dec_label_pc_c5b, label %dec_label_pc_c56, !insn.addr !292

dec_label_pc_c56:                                 ; preds = %dec_label_pc_c47
  %44 = call i64 @__stack_chk_fail(), !insn.addr !293
  store i64 %44, i64* %rax.1.reg2mem, !insn.addr !293
  br label %dec_label_pc_c5b, !insn.addr !293

dec_label_pc_c5b:                                 ; preds = %dec_label_pc_c56, %dec_label_pc_c47
  %rax.1.reload = load i64, i64* %rax.1.reg2mem
  ret i64 %rax.1.reload, !insn.addr !294

; uselistorder directives
  uselistorder i64* %stack_var_-80, { 1, 2, 3, 0, 4 }
  uselistorder i64* %stack_var_-72, { 1, 0, 2 }
  uselistorder i8* %stack_var_-81.16.reg2mem, { 2, 0, 1 }
  uselistorder i64* %rax.0.reg2mem, { 0, 7, 1, 5, 2, 6, 4, 3 }
  uselistorder i64 (i64*)* @_ZNK4llvm8LoadInst10isVolatileEv, { 1, 0 }
  uselistorder i64 (i64*, i64*)* @_ZNK4llvm5Value18user_iterator_implIKNS_4UserEEneERKS4_, { 1, 0 }
  uselistorder label %dec_label_pc_c47, { 6, 0, 4, 1, 5, 3, 2 }
  uselistorder label %dec_label_pc_bdb, { 1, 0 }
}

define i64 @_ZN28deobfuscate_memory_state_ssa12_GLOBAL__N_123localizeGlobalVariablesERN4llvm8FunctionE(i64* %arg1) local_unnamed_addr {
dec_label_pc_c5d:
  %rax.0.reg2mem = alloca i64, !insn.addr !295
  %rbx.0.reg2mem = alloca i64, !insn.addr !295
  %stack_var_-1474.5.lcssa.reg2mem = alloca i32, !insn.addr !295
  %stack_var_-1474.4.reg2mem = alloca i32, !insn.addr !295
  %stack_var_-1474.3.lcssa.reg2mem = alloca i32, !insn.addr !295
  %stack_var_-1408.07.reg2mem = alloca i64, !insn.addr !295
  %stack_var_-1474.2.lcssa.reg2mem = alloca i32, !insn.addr !295
  %stack_var_-1416.05.reg2mem = alloca i64, !insn.addr !295
  %stack_var_-1474.1.lcssa.reg2mem = alloca i32, !insn.addr !295
  %stack_var_-1474.0.reg2mem = alloca i32, !insn.addr !295
  %stack_var_-1474.13.reg2mem = alloca i32, !insn.addr !295
  %stack_var_-1424.04.reg2mem = alloca i64, !insn.addr !295
  %stack_var_-1440.0.reg2mem = alloca i64, !insn.addr !295
  %stack_var_-1432.0.reg2mem = alloca i64, !insn.addr !295
  %stack_var_-1474.59.reg2mem = alloca i32, !insn.addr !295
  %stack_var_-1448.011.reg2mem = alloca i64, !insn.addr !295
  %stack_var_-472 = alloca i64, align 8
  %stack_var_-632 = alloca i64, align 8
  %stack_var_-1472 = alloca i64, align 8
  %stack_var_-984 = alloca i64, align 8
  %stack_var_-872 = alloca i64, align 8
  %stack_var_-312 = alloca i64, align 8
  %stack_var_-792 = alloca i64, align 8
  %stack_var_-1032 = alloca i64, align 8
  %stack_var_-1048 = alloca i64, align 8
  %stack_var_-1064 = alloca i64, align 8
  %stack_var_-1080 = alloca i64, align 8
  %stack_var_-1456 = alloca i64, align 8
  %stack_var_-1464 = alloca i64, align 8
  %stack_var_-936 = alloca i64, align 8
  %0 = call i64 @__readfsqword(i64 40), !insn.addr !296
  %1 = call i64 @_ZN4llvm11GlobalValue9getParentEv(i64* %arg1), !insn.addr !297
  %2 = inttoptr i64 %1 to i64*, !insn.addr !298
  %3 = call i64 @_ZNK4llvm6Module13getDataLayoutEv(i64* %2), !insn.addr !298
  %4 = call i64 @_ZN4llvm11SmallPtrSetIPNS_14GlobalVariableELj4EEC1Ev(i64* nonnull %stack_var_-936), !insn.addr !299
  %5 = call i64 @_ZN4llvm8Function5beginEv(i64* %arg1), !insn.addr !300
  store i64 %5, i64* %stack_var_-1464, align 8, !insn.addr !301
  %6 = call i64 @_ZN4llvm8Function3endEv(i64* %arg1), !insn.addr !302
  store i64 %6, i64* %stack_var_-1456, align 8, !insn.addr !303
  %7 = ptrtoint i64* %stack_var_-1456 to i64, !insn.addr !304
  %8 = call i64 @_ZN4llvmneERKNS_14ilist_iteratorINS_12ilist_detail12node_optionsINS_10BasicBlockELb0ELb0EvLb0EvEELb0ELb0EEES7_(i64* nonnull %stack_var_-1464, i64* nonnull %stack_var_-1456), !insn.addr !305
  %9 = trunc i64 %8 to i8, !insn.addr !306
  %10 = icmp eq i8 %9, 0, !insn.addr !306
  %11 = icmp eq i1 %10, false, !insn.addr !307
  br i1 %11, label %dec_label_pc_d04, label %dec_label_pc_eff, !insn.addr !307

dec_label_pc_d04:                                 ; preds = %dec_label_pc_c5d, %dec_label_pc_ecf
  %12 = call i64 @_ZNK4llvm14ilist_iteratorINS_12ilist_detail12node_optionsINS_10BasicBlockELb0ELb0EvLb0EvEELb0ELb0EEdeEv(i64* nonnull %stack_var_-1464), !insn.addr !308
  %13 = call i64 @_ZN4llvm10BasicBlock5beginEv(i64 %12, i64 %7, i64 %7), !insn.addr !309
  store i64 %13, i64* %stack_var_-1080, align 8, !insn.addr !310
  %14 = inttoptr i64 %12 to i64*, !insn.addr !311
  %15 = call i64 @_ZN4llvm10BasicBlock3endEv(i64* %14), !insn.addr !311
  store i64 %15, i64* %stack_var_-1064, align 8, !insn.addr !312
  %16 = call i64 @_ZN4llvmneERKNS_21ilist_iterator_w_bitsINS_12ilist_detail12node_optionsINS_11InstructionELb0ELb0EvLb1ENS_10BasicBlockEEELb0ELb0EEES8_(i64* nonnull %stack_var_-1080, i64* nonnull %stack_var_-1064), !insn.addr !313
  %17 = trunc i64 %16 to i8, !insn.addr !314
  %18 = icmp eq i8 %17, 0, !insn.addr !314
  %19 = icmp eq i1 %18, false, !insn.addr !315
  br i1 %19, label %dec_label_pc_d67, label %dec_label_pc_ecf, !insn.addr !315

dec_label_pc_d67:                                 ; preds = %dec_label_pc_d04, %dec_label_pc_e9f
  %20 = call i64 @_ZNK4llvm21ilist_iterator_w_bitsINS_12ilist_detail12node_optionsINS_11InstructionELb0ELb0EvLb1ENS_10BasicBlockEEELb0ELb0EEdeEv(i64* nonnull %stack_var_-1080), !insn.addr !316
  %21 = inttoptr i64 %20 to i64*, !insn.addr !317
  %22 = call i64 @_ZN4llvm4User8operandsEv(i64* %21), !insn.addr !317
  store i64 %22, i64* %stack_var_-1048, align 8, !insn.addr !318
  %23 = call i64 @_ZNK4llvm14iterator_rangeIPNS_3UseEE5beginEv(i64* nonnull %stack_var_-1048), !insn.addr !319
  %24 = call i64 @_ZNK4llvm14iterator_rangeIPNS_3UseEE3endEv(i64* nonnull %stack_var_-1048), !insn.addr !320
  %25 = icmp eq i64 %23, %24, !insn.addr !321
  %26 = icmp eq i1 %25, false, !insn.addr !322
  store i64 %23, i64* %stack_var_-1448.011.reg2mem, !insn.addr !322
  br i1 %26, label %dec_label_pc_dd9, label %dec_label_pc_e9f, !insn.addr !322

dec_label_pc_dd9:                                 ; preds = %dec_label_pc_d67, %dec_label_pc_e83
  %stack_var_-1448.011.reload = load i64, i64* %stack_var_-1448.011.reg2mem
  %27 = inttoptr i64 %stack_var_-1448.011.reload to i64*, !insn.addr !323
  %28 = call i64 @_ZNK4llvm3UsecvPNS_5ValueEEv(i64* %27), !insn.addr !323
  %29 = inttoptr i64 %28 to i64*, !insn.addr !324
  %30 = call i64 @_ZN4llvm5Value17stripPointerCastsEv(i64* %29), !insn.addr !324
  %31 = inttoptr i64 %30 to i64*, !insn.addr !325
  %32 = call i64 @_ZN4llvm8dyn_castINS_14GlobalVariableENS_5ValueEEEDcPT0_(i64* %31), !insn.addr !325
  %33 = icmp eq i64 %32, 0, !insn.addr !326
  br i1 %33, label %dec_label_pc_e83, label %dec_label_pc_e25, !insn.addr !327

dec_label_pc_e25:                                 ; preds = %dec_label_pc_dd9
  %34 = inttoptr i64 %32 to i64*, !insn.addr !328
  %35 = call i64 @_ZNK4llvm11GlobalValue18hasInternalLinkageEv(i64* %34), !insn.addr !328
  %36 = trunc i64 %35 to i8, !insn.addr !329
  %37 = icmp eq i8 %36, 0, !insn.addr !329
  br i1 %37, label %dec_label_pc_e83, label %dec_label_pc_e38, !insn.addr !330

dec_label_pc_e38:                                 ; preds = %dec_label_pc_e25
  %38 = call i64 @_ZNK4llvm11GlobalValue12getValueTypeEv(i64* %34), !insn.addr !331
  %39 = inttoptr i64 %38 to i64*, !insn.addr !332
  %40 = call i64 @_ZNK4llvm4Type11isIntegerTyEv(i64* %39), !insn.addr !332
  %41 = trunc i64 %40 to i8, !insn.addr !333
  %42 = icmp eq i8 %41, 0, !insn.addr !333
  br i1 %42, label %dec_label_pc_e83, label %dec_label_pc_e63, !insn.addr !334

dec_label_pc_e63:                                 ; preds = %dec_label_pc_e38
  %43 = call i64 @_ZN4llvm15SmallPtrSetImplIPNS_14GlobalVariableEE6insertES2_(i64* nonnull %stack_var_-1032, i64* nonnull %stack_var_-936, i64* %34), !insn.addr !335
  br label %dec_label_pc_e83, !insn.addr !335

dec_label_pc_e83:                                 ; preds = %dec_label_pc_e25, %dec_label_pc_e38, %dec_label_pc_e63, %dec_label_pc_dd9
  %44 = add i64 %stack_var_-1448.011.reload, 32, !insn.addr !336
  %45 = icmp eq i64 %44, %24, !insn.addr !321
  %46 = icmp eq i1 %45, false, !insn.addr !322
  store i64 %44, i64* %stack_var_-1448.011.reg2mem, !insn.addr !322
  br i1 %46, label %dec_label_pc_dd9, label %dec_label_pc_e9f, !insn.addr !322

dec_label_pc_e9f:                                 ; preds = %dec_label_pc_e83, %dec_label_pc_d67
  %47 = call i64 @_ZN4llvm21ilist_iterator_w_bitsINS_12ilist_detail12node_optionsINS_11InstructionELb0ELb0EvLb1ENS_10BasicBlockEEELb0ELb0EEppEv(i64* nonnull %stack_var_-1080), !insn.addr !337
  %48 = call i64 @_ZN4llvmneERKNS_21ilist_iterator_w_bitsINS_12ilist_detail12node_optionsINS_11InstructionELb0ELb0EvLb1ENS_10BasicBlockEEELb0ELb0EEES8_(i64* nonnull %stack_var_-1080, i64* nonnull %stack_var_-1064), !insn.addr !313
  %49 = trunc i64 %48 to i8, !insn.addr !314
  %50 = icmp eq i8 %49, 0, !insn.addr !314
  %51 = icmp eq i1 %50, false, !insn.addr !315
  br i1 %51, label %dec_label_pc_d67, label %dec_label_pc_ecf, !insn.addr !315

dec_label_pc_ecf:                                 ; preds = %dec_label_pc_e9f, %dec_label_pc_d04
  %52 = call i64 @_ZN4llvm14ilist_iteratorINS_12ilist_detail12node_optionsINS_10BasicBlockELb0ELb0EvLb0EvEELb0ELb0EEppEv(i64* nonnull %stack_var_-1464), !insn.addr !338
  %53 = call i64 @_ZN4llvmneERKNS_14ilist_iteratorINS_12ilist_detail12node_optionsINS_10BasicBlockELb0ELb0EvLb0EvEELb0ELb0EEES7_(i64* nonnull %stack_var_-1464, i64* nonnull %stack_var_-1456), !insn.addr !305
  %54 = trunc i64 %53 to i8, !insn.addr !306
  %55 = icmp eq i8 %54, 0, !insn.addr !306
  %56 = icmp eq i1 %55, false, !insn.addr !307
  br i1 %56, label %dec_label_pc_d04, label %dec_label_pc_eff, !insn.addr !307

dec_label_pc_eff:                                 ; preds = %dec_label_pc_ecf, %dec_label_pc_c5d
  %57 = call i64 @_ZNK4llvm19SmallPtrSetImplBase5emptyEv(i64* nonnull %stack_var_-936), !insn.addr !339
  %58 = trunc i64 %57 to i8, !insn.addr !340
  %59 = icmp eq i8 %58, 0, !insn.addr !340
  store i64 0, i64* %rbx.0.reg2mem, !insn.addr !341
  br i1 %59, label %dec_label_pc_f1c, label %dec_label_pc_1a13, !insn.addr !341

dec_label_pc_f1c:                                 ; preds = %dec_label_pc_eff
  %60 = call i64 @_ZN4llvm8Function13getEntryBlockEv(i64* %arg1), !insn.addr !342
  %61 = call i64 @_ZN4llvm10BasicBlock19getFirstInsertionPtEv(i64 %60, i64 %7, i64 %7), !insn.addr !343
  store i64 %61, i64* %stack_var_-1032, align 8, !insn.addr !344
  %62 = call i64 @_ZNK4llvm21ilist_iterator_w_bitsINS_12ilist_detail12node_optionsINS_11InstructionELb0ELb0EvLb1ENS_10BasicBlockEEELb0ELb0EEdeEv(i64* nonnull %stack_var_-1032), !insn.addr !345
  store i64 0, i64* %stack_var_-1032, align 8, !insn.addr !346
  %63 = call i64 @_ZN4llvm8ArrayRefINS_17OperandBundleDefTIPNS_5ValueEEEEC1Ev(i64* nonnull %stack_var_-1032), !insn.addr !347
  %64 = load i64, i64* %stack_var_-1032, align 8, !insn.addr !348
  %65 = inttoptr i64 %62 to i64*, !insn.addr !349
  %66 = inttoptr i64 %64 to i64*, !insn.addr !349
  %67 = call i64 @_ZN4llvm9IRBuilderINS_14ConstantFolderENS_24IRBuilderDefaultInserterEEC1EPNS_11InstructionEPNS_6MDNodeENS_8ArrayRefINS_17OperandBundleDefTIPNS_5ValueEEEEE(i64* nonnull %stack_var_-792, i64* %65, i64* null, i64* %66, i64 0), !insn.addr !349
  %68 = call i64 @_ZNK4llvm15SmallPtrSetImplIPNS_14GlobalVariableEE5beginEv(i64* nonnull %stack_var_-936), !insn.addr !350
  store i64 %68, i64* %stack_var_-1080, align 8, !insn.addr !351
  %69 = call i64 @_ZNK4llvm15SmallPtrSetImplIPNS_14GlobalVariableEE3endEv(i64* nonnull %stack_var_-936), !insn.addr !352
  store i64 %69, i64* %stack_var_-1064, align 8, !insn.addr !353
  %70 = call i64 @_ZNK4llvm23SmallPtrSetIteratorImplneERKS0_(i64* nonnull %stack_var_-1080, i64* nonnull %stack_var_-1064), !insn.addr !354
  %71 = trunc i64 %70 to i8, !insn.addr !355
  %72 = icmp eq i8 %71, 0, !insn.addr !355
  %73 = icmp eq i1 %72, false, !insn.addr !356
  store i32 0, i32* %stack_var_-1474.5.lcssa.reg2mem, !insn.addr !356
  br i1 %73, label %dec_label_pc_1006.lr.ph, label %dec_label_pc_19fd, !insn.addr !356

dec_label_pc_1006.lr.ph:                          ; preds = %dec_label_pc_f1c
  %74 = ptrtoint i64* %arg1 to i64
  %75 = inttoptr i64 %3 to i64*
  %76 = ptrtoint i64* %stack_var_-1464 to i64
  %77 = bitcast i64* %stack_var_-1456 to i64**
  store i32 0, i32* %stack_var_-1474.59.reg2mem
  br label %dec_label_pc_1006

dec_label_pc_1006:                                ; preds = %dec_label_pc_1006.lr.ph, %dec_label_pc_19be
  %stack_var_-1474.59.reload = load i32, i32* %stack_var_-1474.59.reg2mem
  %78 = call i64 @_ZNK4llvm19SmallPtrSetIteratorIPNS_14GlobalVariableEEdeEv(i64* nonnull %stack_var_-1080), !insn.addr !357
  %79 = inttoptr i64 %78 to i64*, !insn.addr !358
  %80 = call i64 @_ZNK4llvm11GlobalValue12getValueTypeEv(i64* %79), !insn.addr !358
  %81 = call i64 @_ZNK4llvm5Value7getNameEv(i64* %79), !insn.addr !359
  store i64 %81, i64* %stack_var_-1048, align 8, !insn.addr !360
  %82 = call i64 @_ZN4llvmplERKNS_9StringRefEPKc(i64* nonnull %stack_var_-1032, i64* nonnull %stack_var_-1048, i8* getelementptr inbounds ([7 x i8], [7 x i8]* @global_var_4178, i64 0, i64 0)), !insn.addr !361
  %83 = inttoptr i64 %80 to i64*, !insn.addr !362
  %84 = call i64 @_ZN4llvm13IRBuilderBase12CreateAllocaEPNS_4TypeEPNS_5ValueERKNS_5TwineE(i64* nonnull %stack_var_-792, i64* %83, i64* null, i64* nonnull %stack_var_-1032), !insn.addr !362
  %85 = call i64 @_ZNK4llvm10DataLayout15getABITypeAlignEPNS_4TypeE(i64* %75, i64* %83), !insn.addr !363
  %86 = and i64 %85, 4294967295, !insn.addr !364
  %87 = inttoptr i64 %84 to i64*, !insn.addr !365
  %88 = call i64 @_ZN4llvm10AllocaInst12setAlignmentENS_5AlignE(i64* %87, i64 %86), !insn.addr !365
  %89 = inttoptr i64 %86 to i64*, !insn.addr !366
  %90 = call i64 @_ZN28deobfuscate_memory_state_ssa12_GLOBAL__N_112isOpaqueSeedERKN4llvm14GlobalVariableE(i64* %79, i64* %89, i64* %83), !insn.addr !366
  %91 = trunc i64 %90 to i8, !insn.addr !367
  %92 = icmp eq i8 %91, 0, !insn.addr !368
  br i1 %92, label %dec_label_pc_1165, label %dec_label_pc_10ee, !insn.addr !369

dec_label_pc_10ee:                                ; preds = %dec_label_pc_1006
  %93 = call i64 @_ZN4llvm14GlobalVariable14getInitializerEv(i64* %79), !insn.addr !370
  %94 = inttoptr i64 %93 to i64*, !insn.addr !371
  %95 = call i64 @_ZN4llvm16dyn_cast_or_nullINS_11ConstantIntENS_8ConstantEEEDaPT0_(i64* %94), !insn.addr !371
  %96 = icmp eq i64 %95, 0, !insn.addr !372
  %97 = icmp eq i1 %96, false, !insn.addr !373
  store i64 %95, i64* %stack_var_-1432.0.reg2mem, !insn.addr !373
  br i1 %97, label %dec_label_pc_113e, label %dec_label_pc_1116, !insn.addr !373

dec_label_pc_1116:                                ; preds = %dec_label_pc_10ee
  %98 = call i64 @_ZN4llvm4castINS_11IntegerTypeENS_4TypeEEEDcPT0_(i64* %83), !insn.addr !374
  %99 = inttoptr i64 %98 to i64*, !insn.addr !375
  %100 = call i64 @_ZN4llvm11ConstantInt3getEPNS_11IntegerTypeEmb(i64* %99, i64 0, i1 false), !insn.addr !375
  store i64 %100, i64* %stack_var_-1432.0.reg2mem, !insn.addr !376
  br label %dec_label_pc_113e, !insn.addr !376

dec_label_pc_113e:                                ; preds = %dec_label_pc_1116, %dec_label_pc_10ee
  %stack_var_-1432.0.reload = load i64, i64* %stack_var_-1432.0.reg2mem
  %101 = inttoptr i64 %stack_var_-1432.0.reload to i64*, !insn.addr !377
  %102 = call i64 @_ZN4llvm13IRBuilderBase11CreateStoreEPNS_5ValueES2_b(i64* nonnull %stack_var_-792, i64* %101, i64* %87, i1 false), !insn.addr !377
  store i64 0, i64* %stack_var_-1440.0.reg2mem, !insn.addr !378
  br label %dec_label_pc_1203, !insn.addr !378

dec_label_pc_1165:                                ; preds = %dec_label_pc_1006
  %103 = call i64 @_ZNK4llvm5Value7getNameEv(i64* %79), !insn.addr !379
  store i64 %103, i64* %stack_var_-1048, align 8, !insn.addr !380
  %104 = call i64 @_ZN4llvmplERKNS_9StringRefEPKc(i64* nonnull %stack_var_-1032, i64* nonnull %stack_var_-1048, i8* getelementptr inbounds ([6 x i8], [6 x i8]* @global_var_417f, i64 0, i64 0)), !insn.addr !381
  %105 = call i64 @_ZN4llvm13IRBuilderBase10CreateLoadEPNS_4TypeEPNS_5ValueERKNS_5TwineE(i64* nonnull %stack_var_-792, i64* %83, i64* %79, i64* nonnull %stack_var_-1032), !insn.addr !382
  %106 = inttoptr i64 %105 to i64*, !insn.addr !383
  %107 = call i64 @_ZN4llvm8LoadInst11setVolatileEb(i64* %106, i1 true), !insn.addr !383
  %108 = call i64 @_ZN4llvm13IRBuilderBase11CreateStoreEPNS_5ValueES2_b(i64* nonnull %stack_var_-792, i64* %106, i64* %87, i1 false), !insn.addr !384
  store i64 %105, i64* %stack_var_-1440.0.reg2mem, !insn.addr !384
  br label %dec_label_pc_1203, !insn.addr !384

dec_label_pc_1203:                                ; preds = %dec_label_pc_1165, %dec_label_pc_113e
  %stack_var_-1440.0.reload = load i64, i64* %stack_var_-1440.0.reg2mem
  %109 = call i64 @_ZN4llvm11SmallVectorIPNS_11InstructionELj32EEC1Ev(i64* nonnull %stack_var_-312), !insn.addr !385
  %110 = call i64 @_ZN4llvm5Value5usersEv(i64* %79), !insn.addr !386
  store i64 %110, i64* %stack_var_-1032, align 8, !insn.addr !387
  %111 = call i64 @_ZNK4llvm14iterator_rangeINS_5Value18user_iterator_implINS_4UserEEEE5beginEv(i64* nonnull %stack_var_-1032), !insn.addr !388
  store i64 %111, i64* %stack_var_-1456, align 8, !insn.addr !389
  %112 = call i64 @_ZNK4llvm14iterator_rangeINS_5Value18user_iterator_implINS_4UserEEEE3endEv(i64* nonnull %stack_var_-1032), !insn.addr !390
  store i64 %112, i64* %stack_var_-1048, align 8, !insn.addr !391
  %113 = call i64 @_ZNK4llvm5Value18user_iterator_implINS_4UserEEneERKS3_(i64* nonnull %stack_var_-1456, i64* nonnull %stack_var_-1048), !insn.addr !392
  %114 = trunc i64 %113 to i8, !insn.addr !393
  %115 = icmp eq i8 %114, 0, !insn.addr !393
  %116 = icmp eq i1 %115, false, !insn.addr !394
  br i1 %116, label %dec_label_pc_126e, label %dec_label_pc_1316, !insn.addr !394

dec_label_pc_126e:                                ; preds = %dec_label_pc_1203, %dec_label_pc_12e6
  %117 = call i64 @_ZNK4llvm5Value18user_iterator_implINS_4UserEEdeEv(i64* nonnull %stack_var_-1456), !insn.addr !395
  %118 = inttoptr i64 %117 to i64*, !insn.addr !396
  %119 = call i64 @_ZN4llvm8dyn_castINS_11InstructionENS_4UserEEEDcPT0_(i64* %118), !insn.addr !396
  %120 = icmp eq i64 %119, 0, !insn.addr !397
  br i1 %120, label %dec_label_pc_12e6, label %dec_label_pc_12a4, !insn.addr !398

dec_label_pc_12a4:                                ; preds = %dec_label_pc_126e
  %121 = add i64 %119, 24, !insn.addr !399
  %122 = inttoptr i64 %121 to i64*, !insn.addr !400
  %123 = call i64 @_ZN4llvm12ilist_detail18node_parent_accessINS_15ilist_node_implINS0_12node_optionsINS_11InstructionELb0ELb0EvLb1ENS_10BasicBlockEEEEES5_E9getParentEv(i64* %122), !insn.addr !400
  %124 = inttoptr i64 %123 to i64*, !insn.addr !401
  %125 = call i64 @_ZN4llvm10BasicBlock9getParentEv(i64* %124), !insn.addr !401
  %126 = icmp eq i64 %125, %74, !insn.addr !402
  %127 = icmp eq i1 %126, false, !insn.addr !403
  br i1 %127, label %dec_label_pc_12e6, label %dec_label_pc_12cd, !insn.addr !404

dec_label_pc_12cd:                                ; preds = %dec_label_pc_12a4
  %128 = inttoptr i64 %119 to i64*, !insn.addr !405
  %129 = call i64 @_ZN4llvm23SmallVectorTemplateBaseIPNS_11InstructionELb1EE9push_backES2_(i64* nonnull %stack_var_-312, i64* %128), !insn.addr !405
  br label %dec_label_pc_12e6, !insn.addr !405

dec_label_pc_12e6:                                ; preds = %dec_label_pc_12cd, %dec_label_pc_12a4, %dec_label_pc_126e
  %130 = call i64 @_ZN4llvm5Value18user_iterator_implINS_4UserEEppEv(i64* nonnull %stack_var_-1456), !insn.addr !406
  %131 = call i64 @_ZNK4llvm5Value18user_iterator_implINS_4UserEEneERKS3_(i64* nonnull %stack_var_-1456, i64* nonnull %stack_var_-1048), !insn.addr !392
  %132 = trunc i64 %131 to i8, !insn.addr !393
  %133 = icmp eq i8 %132, 0, !insn.addr !393
  %134 = icmp eq i1 %133, false, !insn.addr !394
  br i1 %134, label %dec_label_pc_126e, label %dec_label_pc_1316, !insn.addr !394

dec_label_pc_1316:                                ; preds = %dec_label_pc_12e6, %dec_label_pc_1203
  %135 = call i64 @_ZN4llvm25SmallVectorTemplateCommonIPNS_11InstructionEvE5beginEv(i64* nonnull %stack_var_-312), !insn.addr !407
  %136 = call i64 @_ZN4llvm25SmallVectorTemplateCommonIPNS_11InstructionEvE3endEv(i64* nonnull %stack_var_-312), !insn.addr !408
  %137 = icmp eq i64 %135, %136, !insn.addr !409
  %138 = icmp eq i1 %137, false, !insn.addr !410
  store i32 %stack_var_-1474.59.reload, i32* %stack_var_-1474.1.lcssa.reg2mem, !insn.addr !410
  br i1 %138, label %dec_label_pc_1355.lr.ph, label %dec_label_pc_1463, !insn.addr !410

dec_label_pc_1355.lr.ph:                          ; preds = %dec_label_pc_1316
  %139 = icmp ne i8 %91, 1, !insn.addr !411
  store i64 %135, i64* %stack_var_-1424.04.reg2mem
  store i32 %stack_var_-1474.59.reload, i32* %stack_var_-1474.13.reg2mem
  br label %dec_label_pc_1355

dec_label_pc_1355:                                ; preds = %dec_label_pc_1355.lr.ph, %dec_label_pc_1447
  %stack_var_-1474.13.reload = load i32, i32* %stack_var_-1474.13.reg2mem
  %stack_var_-1424.04.reload = load i64, i64* %stack_var_-1424.04.reg2mem
  %140 = inttoptr i64 %stack_var_-1424.04.reload to i64*, !insn.addr !412
  %141 = load i64, i64* %140, align 8, !insn.addr !412
  %142 = icmp eq i64 %141, %stack_var_-1440.0.reload, !insn.addr !413
  %or.cond = icmp eq i1 %139, %142
  store i32 %stack_var_-1474.13.reload, i32* %stack_var_-1474.0.reg2mem, !insn.addr !414
  br i1 %or.cond, label %dec_label_pc_1447, label %dec_label_pc_1388, !insn.addr !414

dec_label_pc_1388:                                ; preds = %dec_label_pc_1355
  %143 = inttoptr i64 %141 to i64*, !insn.addr !415
  %144 = call i64 @_ZN4llvm8dyn_castINS_8LoadInstENS_11InstructionEEEDcPT0_(i64* %143), !insn.addr !415
  %145 = icmp eq i64 %144, 0, !insn.addr !416
  br i1 %145, label %dec_label_pc_13e7, label %dec_label_pc_13a8, !insn.addr !417

dec_label_pc_13a8:                                ; preds = %dec_label_pc_1388
  %146 = call i64 @_ZN4llvm8LoadInst22getPointerOperandIndexEv(), !insn.addr !418
  %147 = trunc i64 %146 to i32, !insn.addr !419
  %148 = inttoptr i64 %144 to i64*, !insn.addr !420
  %149 = call i64 @_ZN4llvm16UnaryInstruction10setOperandEjPNS_5ValueE(i64* %148, i32 %147, i64* %87), !insn.addr !420
  %150 = call i64 @_ZN4llvm8LoadInst11setVolatileEb(i64* %148, i1 false), !insn.addr !421
  store i32 1, i32* %stack_var_-1474.0.reg2mem, !insn.addr !422
  br label %dec_label_pc_1447, !insn.addr !422

dec_label_pc_13e7:                                ; preds = %dec_label_pc_1388
  %151 = call i64 @_ZN4llvm8dyn_castINS_9StoreInstENS_11InstructionEEEDcPT0_(i64* %143), !insn.addr !423
  %152 = icmp eq i64 %151, 0, !insn.addr !424
  store i32 %stack_var_-1474.13.reload, i32* %stack_var_-1474.0.reg2mem, !insn.addr !425
  br i1 %152, label %dec_label_pc_1447, label %dec_label_pc_1407, !insn.addr !425

dec_label_pc_1407:                                ; preds = %dec_label_pc_13e7
  %153 = call i64 @_ZN4llvm9StoreInst22getPointerOperandIndexEv(), !insn.addr !426
  %154 = trunc i64 %153 to i32, !insn.addr !427
  %155 = inttoptr i64 %151 to i64*, !insn.addr !428
  %156 = call i64 @_ZN4llvm9StoreInst10setOperandEjPNS_5ValueE(i64* %155, i32 %154, i64* %87), !insn.addr !428
  %157 = call i64 @_ZN4llvm9StoreInst11setVolatileEb(i64* %155, i1 false), !insn.addr !429
  store i32 1, i32* %stack_var_-1474.0.reg2mem, !insn.addr !430
  br label %dec_label_pc_1447, !insn.addr !430

dec_label_pc_1447:                                ; preds = %dec_label_pc_1355, %dec_label_pc_1407, %dec_label_pc_13e7, %dec_label_pc_13a8
  %stack_var_-1474.0.reload = load i32, i32* %stack_var_-1474.0.reg2mem
  %158 = add i64 %stack_var_-1424.04.reload, 8, !insn.addr !431
  %159 = icmp eq i64 %158, %136, !insn.addr !409
  %160 = icmp eq i1 %159, false, !insn.addr !410
  store i64 %158, i64* %stack_var_-1424.04.reg2mem, !insn.addr !410
  store i32 %stack_var_-1474.0.reload, i32* %stack_var_-1474.13.reg2mem, !insn.addr !410
  store i32 %stack_var_-1474.0.reload, i32* %stack_var_-1474.1.lcssa.reg2mem, !insn.addr !410
  br i1 %160, label %dec_label_pc_1355, label %dec_label_pc_1463, !insn.addr !410

dec_label_pc_1463:                                ; preds = %dec_label_pc_1447, %dec_label_pc_1316
  %stack_var_-1474.1.lcssa.reload = load i32, i32* %stack_var_-1474.1.lcssa.reg2mem
  %161 = icmp eq i8 %91, 1, !insn.addr !432
  store i32 %stack_var_-1474.1.lcssa.reload, i32* %stack_var_-1474.4.reg2mem, !insn.addr !433
  br i1 %161, label %dec_label_pc_19be, label %dec_label_pc_1475, !insn.addr !433

dec_label_pc_1475:                                ; preds = %dec_label_pc_1463
  %162 = call i64 @_ZN4llvm11SmallVectorIPNS_8CallInstELj8EEC1Ev(i64* nonnull %stack_var_-872), !insn.addr !434
  %163 = call i64 @_ZN4llvm11SmallVectorIPNS_10ReturnInstELj4EEC1Ev(i64* nonnull %stack_var_-984), !insn.addr !435
  %164 = call i64 @_ZN4llvm8Function5beginEv(i64* %arg1), !insn.addr !436
  store i64 %164, i64* %stack_var_-1472, align 8, !insn.addr !437
  %165 = call i64 @_ZN4llvm8Function3endEv(i64* %arg1), !insn.addr !438
  store i64 %165, i64* %stack_var_-1464, align 8, !insn.addr !439
  %166 = call i64 @_ZN4llvmneERKNS_14ilist_iteratorINS_12ilist_detail12node_optionsINS_10BasicBlockELb0ELb0EvLb0EvEELb0ELb0EEES7_(i64* nonnull %stack_var_-1472, i64* nonnull %stack_var_-1464), !insn.addr !440
  %167 = trunc i64 %166 to i8, !insn.addr !441
  %168 = icmp eq i8 %167, 0, !insn.addr !441
  %169 = icmp eq i1 %168, false, !insn.addr !442
  br i1 %169, label %dec_label_pc_14d2, label %dec_label_pc_1637, !insn.addr !442

dec_label_pc_14d2:                                ; preds = %dec_label_pc_1475, %dec_label_pc_1607
  %170 = call i64 @_ZNK4llvm14ilist_iteratorINS_12ilist_detail12node_optionsINS_10BasicBlockELb0ELb0EvLb0EvEELb0ELb0EEdeEv(i64* nonnull %stack_var_-1472), !insn.addr !443
  %171 = call i64 @_ZN4llvm10BasicBlock5beginEv(i64 %170, i64 %76, i64 %76), !insn.addr !444
  store i64 %171, i64* %stack_var_-1048, align 8, !insn.addr !445
  %172 = inttoptr i64 %170 to i64*, !insn.addr !446
  %173 = call i64 @_ZN4llvm10BasicBlock3endEv(i64* %172), !insn.addr !446
  store i64 %173, i64* %stack_var_-1032, align 8, !insn.addr !447
  %174 = call i64 @_ZN4llvmneERKNS_21ilist_iterator_w_bitsINS_12ilist_detail12node_optionsINS_11InstructionELb0ELb0EvLb1ENS_10BasicBlockEEELb0ELb0EEES8_(i64* nonnull %stack_var_-1048, i64* nonnull %stack_var_-1032), !insn.addr !448
  %175 = trunc i64 %174 to i8, !insn.addr !449
  %176 = icmp eq i8 %175, 0, !insn.addr !449
  %177 = icmp eq i1 %176, false, !insn.addr !450
  br i1 %177, label %dec_label_pc_1535, label %dec_label_pc_1607, !insn.addr !450

dec_label_pc_1535:                                ; preds = %dec_label_pc_14d2, %dec_label_pc_15d7
  %178 = call i64 @_ZNK4llvm21ilist_iterator_w_bitsINS_12ilist_detail12node_optionsINS_11InstructionELb0ELb0EvLb1ENS_10BasicBlockEEELb0ELb0EEdeEv(i64* nonnull %stack_var_-1048), !insn.addr !451
  %179 = inttoptr i64 %178 to i64*, !insn.addr !452
  %180 = call i64 @_ZN4llvm8dyn_castINS_8CallInstENS_11InstructionEEEDcPT0_(i64* %179), !insn.addr !452
  store i64 %180, i64* %stack_var_-1456, align 8, !insn.addr !453
  %181 = icmp eq i64 %180, 0, !insn.addr !454
  br i1 %181, label %dec_label_pc_159e, label %dec_label_pc_156d, !insn.addr !455

dec_label_pc_156d:                                ; preds = %dec_label_pc_1535
  %182 = call i1 @_ZN4llvm3isaINS_13IntrinsicInstEPNS_8CallInstEEEbRKT0_(i64** nonnull %77), !insn.addr !456
  %183 = load i64, i64* %stack_var_-1456, align 8, !insn.addr !457
  %184 = inttoptr i64 %183 to i64*, !insn.addr !458
  %185 = call i64 @_ZN4llvm23SmallVectorTemplateBaseIPNS_8CallInstELb1EE9push_backES2_(i64* nonnull %stack_var_-872, i64* %184), !insn.addr !458
  br label %dec_label_pc_15d7, !insn.addr !459

dec_label_pc_159e:                                ; preds = %dec_label_pc_1535
  %186 = call i64 @_ZN4llvm8dyn_castINS_10ReturnInstENS_11InstructionEEEDcPT0_(i64* %179), !insn.addr !460
  %187 = icmp eq i64 %186, 0, !insn.addr !461
  br i1 %187, label %dec_label_pc_15d7, label %dec_label_pc_15be, !insn.addr !462

dec_label_pc_15be:                                ; preds = %dec_label_pc_159e
  %188 = inttoptr i64 %186 to i64*, !insn.addr !463
  %189 = call i64 @_ZN4llvm23SmallVectorTemplateBaseIPNS_10ReturnInstELb1EE9push_backES2_(i64* nonnull %stack_var_-984, i64* %188), !insn.addr !463
  br label %dec_label_pc_15d7, !insn.addr !463

dec_label_pc_15d7:                                ; preds = %dec_label_pc_15be, %dec_label_pc_159e, %dec_label_pc_156d
  %190 = call i64 @_ZN4llvm21ilist_iterator_w_bitsINS_12ilist_detail12node_optionsINS_11InstructionELb0ELb0EvLb1ENS_10BasicBlockEEELb0ELb0EEppEv(i64* nonnull %stack_var_-1048), !insn.addr !464
  %191 = call i64 @_ZN4llvmneERKNS_21ilist_iterator_w_bitsINS_12ilist_detail12node_optionsINS_11InstructionELb0ELb0EvLb1ENS_10BasicBlockEEELb0ELb0EEES8_(i64* nonnull %stack_var_-1048, i64* nonnull %stack_var_-1032), !insn.addr !448
  %192 = trunc i64 %191 to i8, !insn.addr !449
  %193 = icmp eq i8 %192, 0, !insn.addr !449
  %194 = icmp eq i1 %193, false, !insn.addr !450
  br i1 %194, label %dec_label_pc_1535, label %dec_label_pc_1607, !insn.addr !450

dec_label_pc_1607:                                ; preds = %dec_label_pc_15d7, %dec_label_pc_14d2
  %195 = call i64 @_ZN4llvm14ilist_iteratorINS_12ilist_detail12node_optionsINS_10BasicBlockELb0ELb0EvLb0EvEELb0ELb0EEppEv(i64* nonnull %stack_var_-1472), !insn.addr !465
  %196 = call i64 @_ZN4llvmneERKNS_14ilist_iteratorINS_12ilist_detail12node_optionsINS_10BasicBlockELb0ELb0EvLb0EvEELb0ELb0EEES7_(i64* nonnull %stack_var_-1472, i64* nonnull %stack_var_-1464), !insn.addr !440
  %197 = trunc i64 %196 to i8, !insn.addr !441
  %198 = icmp eq i8 %197, 0, !insn.addr !441
  %199 = icmp eq i1 %198, false, !insn.addr !442
  br i1 %199, label %dec_label_pc_14d2, label %dec_label_pc_1637, !insn.addr !442

dec_label_pc_1637:                                ; preds = %dec_label_pc_1607, %dec_label_pc_1475
  %200 = call i64 @_ZN4llvm25SmallVectorTemplateCommonIPNS_8CallInstEvE5beginEv(i64* nonnull %stack_var_-872), !insn.addr !466
  %201 = call i64 @_ZN4llvm25SmallVectorTemplateCommonIPNS_8CallInstEvE3endEv(i64* nonnull %stack_var_-872), !insn.addr !467
  %202 = icmp eq i64 %200, %201, !insn.addr !468
  %203 = icmp eq i1 %202, false, !insn.addr !469
  store i64 %200, i64* %stack_var_-1416.05.reg2mem, !insn.addr !469
  store i32 %stack_var_-1474.1.lcssa.reload, i32* %stack_var_-1474.2.lcssa.reg2mem, !insn.addr !469
  br i1 %203, label %dec_label_pc_1676, label %dec_label_pc_1864, !insn.addr !469

dec_label_pc_1676:                                ; preds = %dec_label_pc_1637, %dec_label_pc_1832
  %stack_var_-1416.05.reload = load i64, i64* %stack_var_-1416.05.reg2mem
  %204 = inttoptr i64 %stack_var_-1416.05.reload to i64*, !insn.addr !470
  %205 = load i64, i64* %204, align 8, !insn.addr !470
  store i64 0, i64* %stack_var_-1032, align 8, !insn.addr !471
  %206 = call i64 @_ZN4llvm8ArrayRefINS_17OperandBundleDefTIPNS_5ValueEEEEC1Ev(i64* nonnull %stack_var_-1032), !insn.addr !472
  %207 = load i64, i64* %stack_var_-1032, align 8, !insn.addr !473
  %208 = inttoptr i64 %205 to i64*, !insn.addr !474
  %209 = inttoptr i64 %207 to i64*, !insn.addr !474
  %210 = call i64 @_ZN4llvm9IRBuilderINS_14ConstantFolderENS_24IRBuilderDefaultInserterEEC1EPNS_11InstructionEPNS_6MDNodeENS_8ArrayRefINS_17OperandBundleDefTIPNS_5ValueEEEEE(i64* nonnull %stack_var_-632, i64* %208, i64* null, i64* %209, i64 0), !insn.addr !474
  %211 = call i64 @_ZN4llvm5TwineC1EPKc(i64* nonnull %stack_var_-1032, i8* bitcast (i8** @global_var_3ddb to i8*)), !insn.addr !475
  %212 = call i64 @_ZN4llvm13IRBuilderBase10CreateLoadEPNS_4TypeEPNS_5ValueERKNS_5TwineE(i64* nonnull %stack_var_-632, i64* %83, i64* %87, i64* nonnull %stack_var_-1032), !insn.addr !476
  %213 = inttoptr i64 %212 to i64*, !insn.addr !477
  %214 = call i64 @_ZN4llvm13IRBuilderBase11CreateStoreEPNS_5ValueES2_b(i64* nonnull %stack_var_-632, i64* %213, i64* %79, i1 false), !insn.addr !477
  %215 = add i64 %205, 24, !insn.addr !478
  %216 = inttoptr i64 %215 to i64*, !insn.addr !479
  %217 = call i64 @_ZN4llvm22ilist_node_with_parentINS_11InstructionENS_10BasicBlockEJNS_19ilist_iterator_bitsILb1EEENS_12ilist_parentIS2_EEEE11getNextNodeEv(i64* %216), !insn.addr !479
  %218 = icmp eq i64 %217, 0, !insn.addr !480
  br i1 %218, label %dec_label_pc_1832, label %dec_label_pc_1769, !insn.addr !481

dec_label_pc_1769:                                ; preds = %dec_label_pc_1676
  store i64 0, i64* %stack_var_-1032, align 8, !insn.addr !482
  %219 = call i64 @_ZN4llvm8ArrayRefINS_17OperandBundleDefTIPNS_5ValueEEEEC1Ev(i64* nonnull %stack_var_-1032), !insn.addr !483
  %220 = load i64, i64* %stack_var_-1032, align 8, !insn.addr !484
  %221 = inttoptr i64 %217 to i64*, !insn.addr !485
  %222 = inttoptr i64 %220 to i64*, !insn.addr !485
  %223 = call i64 @_ZN4llvm9IRBuilderINS_14ConstantFolderENS_24IRBuilderDefaultInserterEEC1EPNS_11InstructionEPNS_6MDNodeENS_8ArrayRefINS_17OperandBundleDefTIPNS_5ValueEEEEE(i64* nonnull %stack_var_-472, i64* %221, i64* null, i64* %222, i64 0), !insn.addr !485
  %224 = call i64 @_ZN4llvm5TwineC1EPKc(i64* nonnull %stack_var_-1032, i8* bitcast (i8** @global_var_3ddb to i8*)), !insn.addr !486
  %225 = call i64 @_ZN4llvm13IRBuilderBase10CreateLoadEPNS_4TypeEPNS_5ValueERKNS_5TwineE(i64* nonnull %stack_var_-472, i64* %83, i64* %79, i64* nonnull %stack_var_-1032), !insn.addr !487
  %226 = inttoptr i64 %225 to i64*, !insn.addr !488
  %227 = call i64 @_ZN4llvm13IRBuilderBase11CreateStoreEPNS_5ValueES2_b(i64* nonnull %stack_var_-472, i64* %226, i64* %87, i1 false), !insn.addr !488
  %228 = call i64 @_ZN4llvm9IRBuilderINS_14ConstantFolderENS_24IRBuilderDefaultInserterEED1Ev(i64* nonnull %stack_var_-472), !insn.addr !489
  br label %dec_label_pc_1832, !insn.addr !489

dec_label_pc_1832:                                ; preds = %dec_label_pc_1769, %dec_label_pc_1676
  %229 = call i64 @_ZN4llvm9IRBuilderINS_14ConstantFolderENS_24IRBuilderDefaultInserterEED1Ev(i64* nonnull %stack_var_-632), !insn.addr !490
  %230 = add i64 %stack_var_-1416.05.reload, 8, !insn.addr !491
  %231 = icmp eq i64 %230, %201, !insn.addr !468
  %232 = icmp eq i1 %231, false, !insn.addr !469
  store i64 %230, i64* %stack_var_-1416.05.reg2mem, !insn.addr !469
  store i32 1, i32* %stack_var_-1474.2.lcssa.reg2mem, !insn.addr !469
  br i1 %232, label %dec_label_pc_1676, label %dec_label_pc_1864, !insn.addr !469

dec_label_pc_1864:                                ; preds = %dec_label_pc_1832, %dec_label_pc_1637
  %stack_var_-1474.2.lcssa.reload = load i32, i32* %stack_var_-1474.2.lcssa.reg2mem
  %233 = call i64 @_ZN4llvm25SmallVectorTemplateCommonIPNS_10ReturnInstEvE5beginEv(i64* nonnull %stack_var_-984), !insn.addr !492
  %234 = call i64 @_ZN4llvm25SmallVectorTemplateCommonIPNS_10ReturnInstEvE3endEv(i64* nonnull %stack_var_-984), !insn.addr !493
  %235 = icmp eq i64 %233, %234, !insn.addr !494
  %236 = icmp eq i1 %235, false, !insn.addr !495
  store i64 %233, i64* %stack_var_-1408.07.reg2mem, !insn.addr !495
  store i32 %stack_var_-1474.2.lcssa.reload, i32* %stack_var_-1474.3.lcssa.reg2mem, !insn.addr !495
  br i1 %236, label %dec_label_pc_18a3, label %dec_label_pc_19a0, !insn.addr !495

dec_label_pc_18a3:                                ; preds = %dec_label_pc_1864, %dec_label_pc_18a3
  %stack_var_-1408.07.reload = load i64, i64* %stack_var_-1408.07.reg2mem
  %237 = inttoptr i64 %stack_var_-1408.07.reload to i64*, !insn.addr !496
  %238 = load i64, i64* %237, align 8, !insn.addr !496
  store i64 0, i64* %stack_var_-1032, align 8, !insn.addr !497
  %239 = call i64 @_ZN4llvm8ArrayRefINS_17OperandBundleDefTIPNS_5ValueEEEEC1Ev(i64* nonnull %stack_var_-1032), !insn.addr !498
  %240 = load i64, i64* %stack_var_-1032, align 8, !insn.addr !499
  %241 = inttoptr i64 %238 to i64*, !insn.addr !500
  %242 = inttoptr i64 %240 to i64*, !insn.addr !500
  %243 = call i64 @_ZN4llvm9IRBuilderINS_14ConstantFolderENS_24IRBuilderDefaultInserterEEC1EPNS_11InstructionEPNS_6MDNodeENS_8ArrayRefINS_17OperandBundleDefTIPNS_5ValueEEEEE(i64* nonnull %stack_var_-472, i64* %241, i64* null, i64* %242, i64 0), !insn.addr !500
  %244 = call i64 @_ZN4llvm5TwineC1EPKc(i64* nonnull %stack_var_-1032, i8* bitcast (i8** @global_var_3ddb to i8*)), !insn.addr !501
  %245 = call i64 @_ZN4llvm13IRBuilderBase10CreateLoadEPNS_4TypeEPNS_5ValueERKNS_5TwineE(i64* nonnull %stack_var_-472, i64* %83, i64* %87, i64* nonnull %stack_var_-1032), !insn.addr !502
  %246 = inttoptr i64 %245 to i64*, !insn.addr !503
  %247 = call i64 @_ZN4llvm13IRBuilderBase11CreateStoreEPNS_5ValueES2_b(i64* nonnull %stack_var_-472, i64* %246, i64* %79, i1 false), !insn.addr !503
  %248 = call i64 @_ZN4llvm9IRBuilderINS_14ConstantFolderENS_24IRBuilderDefaultInserterEED1Ev(i64* nonnull %stack_var_-472), !insn.addr !504
  %249 = add i64 %stack_var_-1408.07.reload, 8, !insn.addr !505
  %250 = icmp eq i64 %249, %234, !insn.addr !494
  %251 = icmp eq i1 %250, false, !insn.addr !495
  store i64 %249, i64* %stack_var_-1408.07.reg2mem, !insn.addr !495
  store i32 1, i32* %stack_var_-1474.3.lcssa.reg2mem, !insn.addr !495
  br i1 %251, label %dec_label_pc_18a3, label %dec_label_pc_19a0, !insn.addr !495

dec_label_pc_19a0:                                ; preds = %dec_label_pc_18a3, %dec_label_pc_1864
  %stack_var_-1474.3.lcssa.reload = load i32, i32* %stack_var_-1474.3.lcssa.reg2mem
  %252 = call i64 @_ZN4llvm11SmallVectorIPNS_10ReturnInstELj4EED1Ev(i64* nonnull %stack_var_-984), !insn.addr !506
  %253 = call i64 @_ZN4llvm11SmallVectorIPNS_8CallInstELj8EED1Ev(i64* nonnull %stack_var_-872), !insn.addr !507
  store i32 %stack_var_-1474.3.lcssa.reload, i32* %stack_var_-1474.4.reg2mem, !insn.addr !507
  br label %dec_label_pc_19be, !insn.addr !507

dec_label_pc_19be:                                ; preds = %dec_label_pc_19a0, %dec_label_pc_1463
  %stack_var_-1474.4.reload = load i32, i32* %stack_var_-1474.4.reg2mem
  %254 = call i64 @_ZN4llvm11SmallVectorIPNS_11InstructionELj32EED1Ev(i64* nonnull %stack_var_-312), !insn.addr !508
  %255 = call i64 @_ZN4llvm19SmallPtrSetIteratorIPNS_14GlobalVariableEEppEv(i64* nonnull %stack_var_-1080), !insn.addr !509
  %256 = call i64 @_ZNK4llvm23SmallPtrSetIteratorImplneERKS0_(i64* nonnull %stack_var_-1080, i64* nonnull %stack_var_-1064), !insn.addr !354
  %257 = trunc i64 %256 to i8, !insn.addr !355
  %258 = icmp eq i8 %257, 0, !insn.addr !355
  %259 = icmp eq i1 %258, false, !insn.addr !356
  store i32 %stack_var_-1474.4.reload, i32* %stack_var_-1474.59.reg2mem, !insn.addr !356
  store i32 %stack_var_-1474.4.reload, i32* %stack_var_-1474.5.lcssa.reg2mem, !insn.addr !356
  br i1 %259, label %dec_label_pc_1006, label %dec_label_pc_19fd, !insn.addr !356

dec_label_pc_19fd:                                ; preds = %dec_label_pc_19be, %dec_label_pc_f1c
  %stack_var_-1474.5.lcssa.reload = load i32, i32* %stack_var_-1474.5.lcssa.reg2mem
  %260 = urem i32 %stack_var_-1474.5.lcssa.reload, 256
  %261 = zext i32 %260 to i64, !insn.addr !510
  %262 = call i64 @_ZN4llvm9IRBuilderINS_14ConstantFolderENS_24IRBuilderDefaultInserterEED1Ev(i64* nonnull %stack_var_-792), !insn.addr !511
  store i64 %261, i64* %rbx.0.reg2mem, !insn.addr !511
  br label %dec_label_pc_1a13, !insn.addr !511

dec_label_pc_1a13:                                ; preds = %dec_label_pc_eff, %dec_label_pc_19fd
  %rbx.0.reload = load i64, i64* %rbx.0.reg2mem
  %263 = call i64 @_ZN4llvm11SmallPtrSetIPNS_14GlobalVariableELj4EED1Ev(i64* nonnull %stack_var_-936), !insn.addr !512
  %264 = call i64 @__readfsqword(i64 40), !insn.addr !513
  %265 = icmp eq i64 %0, %264, !insn.addr !513
  store i64 %rbx.0.reload, i64* %rax.0.reg2mem, !insn.addr !514
  br i1 %265, label %dec_label_pc_1a38, label %dec_label_pc_1a33, !insn.addr !514

dec_label_pc_1a33:                                ; preds = %dec_label_pc_1a13
  %266 = call i64 @__stack_chk_fail(), !insn.addr !515
  store i64 %266, i64* %rax.0.reg2mem, !insn.addr !515
  br label %dec_label_pc_1a38, !insn.addr !515

dec_label_pc_1a38:                                ; preds = %dec_label_pc_1a33, %dec_label_pc_1a13
  %rax.0.reload = load i64, i64* %rax.0.reg2mem
  ret i64 %rax.0.reload, !insn.addr !516

; uselistorder directives
  uselistorder i64 %234, { 1, 0 }
  uselistorder i64 %201, { 1, 0 }
  uselistorder i32 %stack_var_-1474.1.lcssa.reload, { 1, 0 }
  uselistorder i64 %141, { 1, 0 }
  uselistorder i32 %stack_var_-1474.13.reload, { 1, 0 }
  uselistorder i64 %136, { 1, 0 }
  uselistorder i8 %91, { 1, 0, 2 }
  uselistorder i64* %87, { 1, 2, 3, 5, 4, 6, 0, 7 }
  uselistorder i64* %83, { 1, 2, 3, 4, 0, 5, 6, 7 }
  uselistorder i64* %79, { 0, 1, 2, 3, 6, 4, 5, 7, 8, 9 }
  uselistorder i32 %stack_var_-1474.59.reload, { 1, 0 }
  uselistorder i64 %24, { 1, 0 }
  uselistorder i64* %stack_var_-1464, { 2, 1, 7, 6, 3, 4, 5, 0, 8 }
  uselistorder i64* %stack_var_-1456, { 7, 8, 3, 4, 5, 1, 9, 2, 6, 0, 10, 11 }
  uselistorder i64* %stack_var_-1080, { 2, 3, 4, 1, 8, 5, 6, 7, 0, 9 }
  uselistorder i64* %stack_var_-1064, { 2, 1, 4, 3, 0, 5 }
  uselistorder i64* %stack_var_-1048, { 2, 3, 4, 0, 10, 5, 1, 11, 6, 12, 7, 13, 8, 9, 14 }
  uselistorder i64* %stack_var_-1032, { 1, 2, 20, 3, 21, 4, 5, 22, 6, 23, 7, 8, 24, 9, 25, 10, 0, 26, 11, 12, 27, 13, 14, 15, 16, 28, 17, 29, 18, 30, 19 }
  uselistorder i64* %stack_var_-1472, { 1, 2, 3, 0, 4 }
  uselistorder i64* %stack_var_-1448.011.reg2mem, { 2, 0, 1 }
  uselistorder i32* %stack_var_-1474.59.reg2mem, { 1, 0, 2 }
  uselistorder i64* %stack_var_-1440.0.reg2mem, { 0, 2, 1 }
  uselistorder i64* %stack_var_-1424.04.reg2mem, { 1, 0, 2 }
  uselistorder i32* %stack_var_-1474.13.reg2mem, { 1, 0, 2 }
  uselistorder i32* %stack_var_-1474.0.reg2mem, { 0, 3, 4, 2, 1 }
  uselistorder i64* %stack_var_-1416.05.reg2mem, { 2, 0, 1 }
  uselistorder i64* %stack_var_-1408.07.reg2mem, { 2, 0, 1 }
  uselistorder i64* %rbx.0.reg2mem, { 0, 2, 1 }
  uselistorder i64 (i64*)* @_ZN4llvm9IRBuilderINS_14ConstantFolderENS_24IRBuilderDefaultInserterEED1Ev, { 0, 3, 2, 1 }
  uselistorder i64 (i64*, i1)* @_ZN4llvm9StoreInst11setVolatileEb, { 1, 0 }
  uselistorder i64 (i64*)* @_ZN4llvm5Value18user_iterator_implINS_4UserEEppEv, { 3, 2, 1, 0 }
  uselistorder i64 (i64*, i64*)* @_ZN4llvm23SmallVectorTemplateBaseIPNS_11InstructionELb1EE9push_backES2_, { 1, 0 }
  uselistorder i64 (i64*)* @_ZN4llvm8dyn_castINS_11InstructionENS_4UserEEEDcPT0_, { 1, 0 }
  uselistorder i64 (i64*)* @_ZNK4llvm5Value18user_iterator_implINS_4UserEEdeEv, { 3, 2, 1, 0 }
  uselistorder i64 (i64*, i64*)* @_ZNK4llvm5Value18user_iterator_implINS_4UserEEneERKS3_, { 7, 0, 6, 1, 5, 2, 4, 3 }
  uselistorder i64 (i64*)* @_ZNK4llvm14iterator_rangeINS_5Value18user_iterator_implINS_4UserEEEE3endEv, { 3, 2, 1, 0 }
  uselistorder i64 (i64*)* @_ZNK4llvm14iterator_rangeINS_5Value18user_iterator_implINS_4UserEEEE5beginEv, { 3, 2, 1, 0 }
  uselistorder i64 (i64*)* @_ZN4llvm5Value5usersEv, { 3, 2, 1, 0 }
  uselistorder i64 (i64*, i1)* @_ZN4llvm8LoadInst11setVolatileEb, { 2, 1, 0 }
  uselistorder i64 (i64*, i64*, i64*, i64*)* @_ZN4llvm13IRBuilderBase10CreateLoadEPNS_4TypeEPNS_5ValueERKNS_5TwineE, { 3, 2, 1, 0 }
  uselistorder i64 (i64*, i64*, i64*, i1)* @_ZN4llvm13IRBuilderBase11CreateStoreEPNS_5ValueES2_b, { 4, 3, 2, 1, 0 }
  uselistorder i64 (i64*, i64*, i8*)* @_ZN4llvmplERKNS_9StringRefEPKc, { 1, 0 }
  uselistorder i64 (i64*)* @_ZNK4llvm5Value7getNameEv, { 2, 1, 0 }
  uselistorder i64 (i64*, i64*)* @_ZNK4llvm23SmallPtrSetIteratorImplneERKS0_, { 1, 0 }
  uselistorder i64 (i64*, i64*, i64*, i64*, i64)* @_ZN4llvm9IRBuilderINS_14ConstantFolderENS_24IRBuilderDefaultInserterEEC1EPNS_11InstructionEPNS_6MDNodeENS_8ArrayRefINS_17OperandBundleDefTIPNS_5ValueEEEEE, { 3, 2, 1, 0 }
  uselistorder i64 (i64*)* @_ZN4llvm8ArrayRefINS_17OperandBundleDefTIPNS_5ValueEEEEC1Ev, { 3, 2, 1, 0 }
  uselistorder i64 (i64*)* @_ZNK4llvm4Type11isIntegerTyEv, { 2, 1, 0 }
  uselistorder i64 (i64*)* @_ZNK4llvm11GlobalValue12getValueTypeEv, { 2, 1, 0 }
  uselistorder i64 (i64*)* @_ZN4llvm5Value17stripPointerCastsEv, { 2, 1, 0 }
  uselistorder i64 (i64*, i64*)* @_ZN4llvmneERKNS_14ilist_iteratorINS_12ilist_detail12node_optionsINS_10BasicBlockELb0ELb0EvLb0EvEELb0ELb0EEES7_, { 3, 1, 2, 0 }
  uselistorder i64 (i64*)* @_ZN4llvm8Function3endEv, { 1, 0 }
  uselistorder i64 (i64*)* @_ZN4llvm8Function5beginEv, { 1, 0 }
  uselistorder i64* %arg1, { 0, 1, 6, 2, 3, 4, 5 }
  uselistorder label %dec_label_pc_1a13, { 1, 0 }
  uselistorder label %dec_label_pc_18a3, { 1, 0 }
  uselistorder label %dec_label_pc_1676, { 1, 0 }
  uselistorder label %dec_label_pc_1535, { 1, 0 }
  uselistorder label %dec_label_pc_14d2, { 1, 0 }
  uselistorder label %dec_label_pc_1447, { 1, 2, 3, 0 }
  uselistorder label %dec_label_pc_1355, { 1, 0 }
  uselistorder label %dec_label_pc_126e, { 1, 0 }
  uselistorder label %dec_label_pc_1006, { 1, 0 }
  uselistorder label %dec_label_pc_e83, { 2, 1, 0, 3 }
  uselistorder label %dec_label_pc_dd9, { 1, 0 }
  uselistorder label %dec_label_pc_d67, { 1, 0 }
  uselistorder label %dec_label_pc_d04, { 1, 0 }
}

define i64 @_ZN28deobfuscate_memory_state_ssa12_GLOBAL__N_117promoteLocalStateERN4llvm8FunctionERNS1_13DominatorTreeE(i64* %arg1, i64* %arg2) local_unnamed_addr {
dec_label_pc_1a3e:
  %rax.0.reg2mem = alloca i64, !insn.addr !517
  %storemerge.reg2mem = alloca i64, !insn.addr !517
  %stack_var_-242.1.lcssa.reg2mem = alloca i8, !insn.addr !517
  %stack_var_-242.0.reg2mem = alloca i8, !insn.addr !517
  %stack_var_-242.11.reg2mem = alloca i8, !insn.addr !517
  %stack_var_-242.32.reg2mem = alloca i8, !insn.addr !517
  %rdx.23.reg2mem = alloca i64, !insn.addr !517
  %rsi.24.reg2mem = alloca i64, !insn.addr !517
  %rsi.0.reg2mem = alloca i64, !insn.addr !517
  %rdx.0.reg2mem = alloca i64, !insn.addr !517
  %stack_var_-184 = alloca i64, align 8
  %stack_var_-200 = alloca i64, align 8
  %stack_var_-168 = alloca i64, align 8
  %0 = call i64 @__readfsqword(i64 40), !insn.addr !518
  %1 = call i64 @_ZNK4llvm8Function5emptyEv(i64* %arg1), !insn.addr !519
  %2 = trunc i64 %1 to i8, !insn.addr !520
  %3 = icmp eq i8 %2, 0, !insn.addr !520
  store i64 0, i64* %storemerge.reg2mem, !insn.addr !521
  br i1 %3, label %dec_label_pc_1a87, label %dec_label_pc_1cef, !insn.addr !521

dec_label_pc_1a87:                                ; preds = %dec_label_pc_1a3e
  %4 = ptrtoint i64* %arg1 to i64
  %5 = ptrtoint i64* %arg2 to i64
  %6 = call i64 @_ZN28deobfuscate_memory_state_ssa12_GLOBAL__N_123localizeGlobalVariablesERN4llvm8FunctionE(i64* %arg1), !insn.addr !522
  %7 = trunc i64 %6 to i8, !insn.addr !523
  %8 = icmp eq i8 %7, 0, !insn.addr !524
  store i64 %5, i64* %rsi.0.reg2mem, !insn.addr !525
  br i1 %8, label %dec_label_pc_1abe, label %dec_label_pc_1aa5, !insn.addr !525

dec_label_pc_1aa5:                                ; preds = %dec_label_pc_1a87
  %9 = call i64 @_ZN4llvm17DominatorTreeBaseINS_10BasicBlockELb0EE11recalculateERNS_8FunctionE(i64* %arg2, i64* %arg1), !insn.addr !526
  store i64 %4, i64* %rdx.0.reg2mem, !insn.addr !526
  store i64 %4, i64* %rsi.0.reg2mem, !insn.addr !526
  br label %dec_label_pc_1abe, !insn.addr !526

dec_label_pc_1abe:                                ; preds = %dec_label_pc_1aa5, %dec_label_pc_1a87
  %rsi.0.reload = load i64, i64* %rsi.0.reg2mem
  %rdx.0.reload = load i64, i64* %rdx.0.reg2mem
  %10 = call i64 @_ZNK4llvm8Function13getDataLayoutEv(i64* %arg1), !insn.addr !527
  %11 = inttoptr i64 %10 to i64*
  store i64 %rsi.0.reload, i64* %rsi.24.reg2mem
  store i64 %rdx.0.reload, i64* %rdx.23.reg2mem
  store i8 %7, i8* %stack_var_-242.32.reg2mem
  br label %dec_label_pc_1ae0

dec_label_pc_1ae0:                                ; preds = %dec_label_pc_1ccc, %dec_label_pc_1abe
  %stack_var_-242.32.reload = load i8, i8* %stack_var_-242.32.reg2mem
  %rdx.23.reload = load i64, i64* %rdx.23.reg2mem
  %rsi.24.reload = load i64, i64* %rsi.24.reg2mem
  %12 = call i64 @_ZN4llvm11SmallVectorIPNS_10AllocaInstELj16EEC1Ev(i64* nonnull %stack_var_-168), !insn.addr !528
  %13 = call i64 @_ZN4llvm8Function13getEntryBlockEv(i64* %arg1), !insn.addr !529
  %14 = call i64 @_ZN4llvm10BasicBlock5beginEv(i64 %13, i64 %rsi.24.reload, i64 %rdx.23.reload), !insn.addr !530
  store i64 %14, i64* %stack_var_-200, align 8, !insn.addr !531
  %15 = inttoptr i64 %13 to i64*, !insn.addr !532
  %16 = call i64 @_ZN4llvm10BasicBlock3endEv(i64* %15), !insn.addr !532
  store i64 %16, i64* %stack_var_-184, align 8, !insn.addr !533
  %17 = call i64 @_ZN4llvmneERKNS_21ilist_iterator_w_bitsINS_12ilist_detail12node_optionsINS_11InstructionELb0ELb0EvLb1ENS_10BasicBlockEEELb0ELb0EEES8_(i64* nonnull %stack_var_-200, i64* nonnull %stack_var_-184), !insn.addr !534
  %18 = trunc i64 %17 to i8, !insn.addr !535
  %19 = icmp eq i8 %18, 0, !insn.addr !535
  %20 = icmp eq i1 %19, false, !insn.addr !536
  store i8 %stack_var_-242.32.reload, i8* %stack_var_-242.11.reg2mem, !insn.addr !536
  store i8 %stack_var_-242.32.reload, i8* %stack_var_-242.1.lcssa.reg2mem, !insn.addr !536
  br i1 %20, label %dec_label_pc_1b59, label %dec_label_pc_1c51, !insn.addr !536

dec_label_pc_1b59:                                ; preds = %dec_label_pc_1ae0, %dec_label_pc_1c21
  %stack_var_-242.11.reload = load i8, i8* %stack_var_-242.11.reg2mem
  %21 = call i64 @_ZNK4llvm21ilist_iterator_w_bitsINS_12ilist_detail12node_optionsINS_11InstructionELb0ELb0EvLb1ENS_10BasicBlockEEELb0ELb0EEdeEv(i64* nonnull %stack_var_-200), !insn.addr !537
  %22 = inttoptr i64 %21 to i64*, !insn.addr !538
  %23 = call i64 @_ZN4llvm8dyn_castINS_10AllocaInstENS_11InstructionEEEDcPT0_(i64* %22), !insn.addr !538
  %24 = icmp eq i64 %23, 0, !insn.addr !539
  store i8 %stack_var_-242.11.reload, i8* %stack_var_-242.0.reg2mem, !insn.addr !540
  br i1 %24, label %dec_label_pc_1c21, label %dec_label_pc_1b93, !insn.addr !540

dec_label_pc_1b93:                                ; preds = %dec_label_pc_1b59
  %25 = inttoptr i64 %23 to i64*, !insn.addr !541
  %26 = call i64 @_ZN28deobfuscate_memory_state_ssa12_GLOBAL__N_124rewriteZeroOffsetAliasesEPN4llvm10AllocaInstERKNS1_10DataLayoutE(i64* %25, i64* %11), !insn.addr !541
  %27 = trunc i64 %26 to i8, !insn.addr !542
  %28 = or i8 %stack_var_-242.11.reload, %27, !insn.addr !542
  %29 = icmp eq i8 %28, 0, !insn.addr !543
  %30 = icmp eq i1 %29, false, !insn.addr !544
  %31 = zext i1 %30 to i8, !insn.addr !545
  %32 = call i64 @_ZN28deobfuscate_memory_state_ssa12_GLOBAL__N_126hasOnlyPromotableStateUsesEPN4llvm10AllocaInstERKNS1_10DataLayoutE(i64* %25, i64* %11, i64* %11), !insn.addr !546
  %33 = trunc i64 %32 to i8
  %34 = icmp eq i8 %33, 1, !insn.addr !547
  %35 = icmp eq i1 %34, false, !insn.addr !548
  store i8 %31, i8* %stack_var_-242.0.reg2mem, !insn.addr !548
  br i1 %35, label %dec_label_pc_1c21, label %dec_label_pc_1be0, !insn.addr !548

dec_label_pc_1be0:                                ; preds = %dec_label_pc_1b93
  %36 = call i64 @_ZN28deobfuscate_memory_state_ssa12_GLOBAL__N_118stripLocalVolatileEPN4llvm10AllocaInstE(i64* %25, i64* %11, i64* %11), !insn.addr !549
  %37 = call i64 @_ZN4llvm18isAllocaPromotableEPKNS_10AllocaInstE(i64* %25), !insn.addr !550
  %38 = trunc i64 %37 to i8, !insn.addr !551
  %39 = icmp eq i8 %38, 0, !insn.addr !551
  store i8 %31, i8* %stack_var_-242.0.reg2mem, !insn.addr !552
  br i1 %39, label %dec_label_pc_1c21, label %dec_label_pc_1c02, !insn.addr !552

dec_label_pc_1c02:                                ; preds = %dec_label_pc_1be0
  %40 = call i64 @_ZN4llvm23SmallVectorTemplateBaseIPNS_10AllocaInstELb1EE9push_backES2_(i64* nonnull %stack_var_-168, i64* %25), !insn.addr !553
  store i8 %31, i8* %stack_var_-242.0.reg2mem, !insn.addr !554
  br label %dec_label_pc_1c21, !insn.addr !554

dec_label_pc_1c21:                                ; preds = %dec_label_pc_1b93, %dec_label_pc_1b59, %dec_label_pc_1c02, %dec_label_pc_1be0
  %stack_var_-242.0.reload = load i8, i8* %stack_var_-242.0.reg2mem
  %41 = call i64 @_ZN4llvm21ilist_iterator_w_bitsINS_12ilist_detail12node_optionsINS_11InstructionELb0ELb0EvLb1ENS_10BasicBlockEEELb0ELb0EEppEv(i64* nonnull %stack_var_-200), !insn.addr !555
  %42 = call i64 @_ZN4llvmneERKNS_21ilist_iterator_w_bitsINS_12ilist_detail12node_optionsINS_11InstructionELb0ELb0EvLb1ENS_10BasicBlockEEELb0ELb0EEES8_(i64* nonnull %stack_var_-200, i64* nonnull %stack_var_-184), !insn.addr !534
  %43 = trunc i64 %42 to i8, !insn.addr !535
  %44 = icmp eq i8 %43, 0, !insn.addr !535
  %45 = icmp eq i1 %44, false, !insn.addr !536
  store i8 %stack_var_-242.0.reload, i8* %stack_var_-242.11.reg2mem, !insn.addr !536
  store i8 %stack_var_-242.0.reload, i8* %stack_var_-242.1.lcssa.reg2mem, !insn.addr !536
  br i1 %45, label %dec_label_pc_1b59, label %dec_label_pc_1c51, !insn.addr !536

dec_label_pc_1c51:                                ; preds = %dec_label_pc_1c21, %dec_label_pc_1ae0
  %46 = call i64 @_ZNK4llvm15SmallVectorBaseIjE5emptyEv(i64* nonnull %stack_var_-168), !insn.addr !556
  %47 = trunc i64 %46 to i8
  %48 = icmp eq i8 %47, 1, !insn.addr !557
  br i1 %48, label %dec_label_pc_1ce8, label %dec_label_pc_1ccc, !insn.addr !558

dec_label_pc_1ccc:                                ; preds = %dec_label_pc_1c51
  %49 = call i64 @_ZN4llvm8ArrayRefIPNS_10AllocaInstEEC1INS_11SmallVectorIS2_Lj16EEEvEERKT_(i64* nonnull %stack_var_-184, i64* nonnull %stack_var_-168), !insn.addr !559
  %50 = load i64, i64* %stack_var_-184, align 8, !insn.addr !560
  %51 = inttoptr i64 %50 to i64*, !insn.addr !561
  %52 = call i64 @_ZN4llvm15PromoteMemToRegENS_8ArrayRefIPNS_10AllocaInstEEERNS_13DominatorTreeEPNS_15AssumptionCacheE(i64* %51, i64 %rdx.23.reload, i64* %arg2, i64* null), !insn.addr !561
  %53 = call i64 @_ZN4llvm17DominatorTreeBaseINS_10BasicBlockELb0EE11recalculateERNS_8FunctionE(i64* %arg2, i64* %arg1), !insn.addr !562
  %54 = call i64 @_ZN4llvm11SmallVectorIPNS_10AllocaInstELj16EED1Ev(i64* nonnull %stack_var_-168), !insn.addr !563
  store i64 %4, i64* %rsi.24.reg2mem
  store i64 %4, i64* %rdx.23.reg2mem
  store i8 1, i8* %stack_var_-242.32.reg2mem
  br label %dec_label_pc_1ae0

dec_label_pc_1ce8:                                ; preds = %dec_label_pc_1c51
  %stack_var_-242.1.lcssa.reload = load i8, i8* %stack_var_-242.1.lcssa.reg2mem
  %55 = call i64 @_ZN4llvm11SmallVectorIPNS_10AllocaInstELj16EED1Ev(i64* nonnull %stack_var_-168), !insn.addr !563
  %56 = zext i8 %stack_var_-242.1.lcssa.reload to i64, !insn.addr !564
  store i64 %56, i64* %storemerge.reg2mem, !insn.addr !564
  br label %dec_label_pc_1cef, !insn.addr !564

dec_label_pc_1cef:                                ; preds = %dec_label_pc_1a3e, %dec_label_pc_1ce8
  %storemerge.reload = load i64, i64* %storemerge.reg2mem
  %57 = call i64 @__readfsqword(i64 40), !insn.addr !565
  %58 = icmp eq i64 %0, %57, !insn.addr !565
  store i64 %storemerge.reload, i64* %rax.0.reg2mem, !insn.addr !566
  br i1 %58, label %dec_label_pc_1d03, label %dec_label_pc_1cfe, !insn.addr !566

dec_label_pc_1cfe:                                ; preds = %dec_label_pc_1cef
  %59 = call i64 @__stack_chk_fail(), !insn.addr !567
  store i64 %59, i64* %rax.0.reg2mem, !insn.addr !567
  br label %dec_label_pc_1d03, !insn.addr !567

dec_label_pc_1d03:                                ; preds = %dec_label_pc_1cfe, %dec_label_pc_1cef
  %rax.0.reload = load i64, i64* %rax.0.reg2mem
  ret i64 %rax.0.reload, !insn.addr !568

; uselistorder directives
  uselistorder i8 %stack_var_-242.11.reload, { 1, 0 }
  uselistorder i64* %11, { 0, 1, 3, 2, 4 }
  uselistorder i64* %stack_var_-200, { 1, 2, 3, 0, 4 }
  uselistorder i64* %stack_var_-184, { 3, 1, 2, 0, 4 }
  uselistorder i64* %rsi.24.reg2mem, { 1, 0, 2 }
  uselistorder i64* %rdx.23.reg2mem, { 1, 0, 2 }
  uselistorder i8* %stack_var_-242.32.reg2mem, { 1, 0, 2 }
  uselistorder i8* %stack_var_-242.11.reg2mem, { 2, 0, 1 }
  uselistorder i64* %storemerge.reg2mem, { 0, 2, 1 }
  uselistorder i64 (i64, i64, i64)* @_ZN4llvm10BasicBlock5beginEv, { 2, 1, 0 }
  uselistorder i64 (i64*)* @_ZN4llvm8Function13getEntryBlockEv, { 1, 0 }
  uselistorder i64 (i64*, i64*)* @_ZN4llvm17DominatorTreeBaseINS_10BasicBlockELb0EE11recalculateERNS_8FunctionE, { 1, 0 }
  uselistorder i64* %arg1, { 0, 1, 2, 3, 4, 6, 5 }
  uselistorder label %dec_label_pc_1cef, { 1, 0 }
  uselistorder label %dec_label_pc_1c21, { 2, 3, 0, 1 }
  uselistorder label %dec_label_pc_1b59, { 1, 0 }
}

define i64 @_ZZZ21llvmGetPassPluginInfoENKUlRN4llvm11PassBuilderEE_clES1_ENKUlNS_9StringRefERNS_11PassManagerINS_6ModuleENS_15AnalysisManagerIS5_JEEEJEEENS_8ArrayRefINS0_15PipelineElementEEEE_clES3_S9_SC_(i64 %arg1, i64 %arg2, i64 %arg3, i64 %arg4, i64 %arg5, i64 %arg6) local_unnamed_addr {
dec_label_pc_1d06:
  %0 = alloca i64
  %rax.0.reg2mem = alloca i64, !insn.addr !569
  %storemerge.reg2mem = alloca i64, !insn.addr !569
  %stack_var_-41 = alloca i64, align 8
  %1 = load i64, i64* %0
  %stack_var_-40 = alloca i64, align 8
  %2 = call i64 @__readfsqword(i64 40), !insn.addr !570
  %3 = call i64 @_ZN4llvm9StringRefC1EPKc(i64* nonnull %stack_var_-40, i8* getelementptr inbounds ([34 x i8], [34 x i8]* @global_var_41d8, i64 0, i64 0)), !insn.addr !571
  %4 = load i64, i64* %stack_var_-40, align 8, !insn.addr !572
  %5 = inttoptr i64 %arg2 to i64*, !insn.addr !573
  %6 = inttoptr i64 %arg3 to i64*, !insn.addr !573
  %7 = call i64 @_ZN4llvmeqENS_9StringRefES0_(i64* %5, i64* %6, i64 %4, i64 %1), !insn.addr !573
  %8 = trunc i64 %7 to i8, !insn.addr !574
  %9 = icmp eq i8 %8, 0, !insn.addr !574
  store i64 0, i64* %storemerge.reg2mem, !insn.addr !575
  br i1 %9, label %dec_label_pc_1db6, label %dec_label_pc_1d73, !insn.addr !575

dec_label_pc_1d73:                                ; preds = %dec_label_pc_1d06
  %10 = call i64 @_ZN4llvm33createModuleToFunctionPassAdaptorIN28deobfuscate_memory_state_ssa29DeobfuscateMemoryStateSSAPassEEENS_27ModuleToFunctionPassAdaptorEOT_b(i64* nonnull %stack_var_-40, i64* nonnull %stack_var_-41, i1 false), !insn.addr !576
  %11 = inttoptr i64 %arg4 to i64*, !insn.addr !577
  %12 = call i64 @_ZN4llvm11PassManagerINS_6ModuleENS_15AnalysisManagerIS1_JEEEJEE7addPassINS_27ModuleToFunctionPassAdaptorEEENSt9enable_ifIXnt9is_same_vIT_S4_EEvE4typeEOS8_(i64* %11, i64* nonnull %stack_var_-40), !insn.addr !577
  %13 = call i64 @_ZN4llvm27ModuleToFunctionPassAdaptorD1Ev(i64* nonnull %stack_var_-40), !insn.addr !578
  store i64 1, i64* %storemerge.reg2mem, !insn.addr !579
  br label %dec_label_pc_1db6, !insn.addr !579

dec_label_pc_1db6:                                ; preds = %dec_label_pc_1d06, %dec_label_pc_1d73
  %storemerge.reload = load i64, i64* %storemerge.reg2mem
  %14 = call i64 @__readfsqword(i64 40), !insn.addr !580
  %15 = icmp eq i64 %2, %14, !insn.addr !580
  store i64 %storemerge.reload, i64* %rax.0.reg2mem, !insn.addr !581
  br i1 %15, label %dec_label_pc_1dca, label %dec_label_pc_1dc5, !insn.addr !581

dec_label_pc_1dc5:                                ; preds = %dec_label_pc_1db6
  %16 = call i64 @__stack_chk_fail(), !insn.addr !582
  store i64 %16, i64* %rax.0.reg2mem, !insn.addr !582
  br label %dec_label_pc_1dca, !insn.addr !582

dec_label_pc_1dca:                                ; preds = %dec_label_pc_1dc5, %dec_label_pc_1db6
  %rax.0.reload = load i64, i64* %rax.0.reg2mem
  ret i64 %rax.0.reload, !insn.addr !583

; uselistorder directives
  uselistorder i64* %stack_var_-40, { 0, 1, 2, 4, 3 }
  uselistorder i64* %storemerge.reg2mem, { 0, 2, 1 }
  uselistorder label %dec_label_pc_1db6, { 1, 0 }
}

define i64 @_ZZ21llvmGetPassPluginInfoENKUlRN4llvm11PassBuilderEE_clES1_(i64* %result, i64* %arg2) local_unnamed_addr {
dec_label_pc_1dcc:
  %rax.0.reg2mem = alloca i64, !insn.addr !584
  %stack_var_-56 = alloca i64, align 8
  %stack_var_-57 = alloca i64, align 8
  %0 = call i64 @__readfsqword(i64 40), !insn.addr !585
  %1 = call i64 @_ZNSt8functionIFbN4llvm9StringRefERNS0_11PassManagerINS0_6ModuleENS0_15AnalysisManagerIS3_JEEEJEEENS0_8ArrayRefINS0_11PassBuilder15PipelineElementEEEEEC1IZZ21llvmGetPassPluginInfoENKUlRS9_E_clESF_EUlS1_S7_SB_E_vEEOT_(i64* nonnull %stack_var_-56, i64* nonnull %stack_var_-57), !insn.addr !586
  %2 = call i64 @_ZN4llvm11PassBuilder31registerPipelineParsingCallbackERKSt8functionIFbNS_9StringRefERNS_11PassManagerINS_6ModuleENS_15AnalysisManagerIS4_JEEEJEEENS_8ArrayRefINS0_15PipelineElementEEEEE(i64* %arg2, i64* nonnull %stack_var_-56), !insn.addr !587
  %3 = call i64 @_ZNSt8functionIFbN4llvm9StringRefERNS0_11PassManagerINS0_6ModuleENS0_15AnalysisManagerIS3_JEEEJEEENS0_8ArrayRefINS0_11PassBuilder15PipelineElementEEEEED1Ev(i64* nonnull %stack_var_-56), !insn.addr !588
  %4 = call i64 @__readfsqword(i64 40), !insn.addr !589
  %5 = icmp eq i64 %0, %4, !insn.addr !589
  store i64 0, i64* %rax.0.reg2mem, !insn.addr !590
  br i1 %5, label %dec_label_pc_1e32, label %dec_label_pc_1e2d, !insn.addr !590

dec_label_pc_1e2d:                                ; preds = %dec_label_pc_1dcc
  %6 = call i64 @__stack_chk_fail(), !insn.addr !591
  store i64 %6, i64* %rax.0.reg2mem, !insn.addr !591
  br label %dec_label_pc_1e32, !insn.addr !591

dec_label_pc_1e32:                                ; preds = %dec_label_pc_1e2d, %dec_label_pc_1dcc
  %rax.0.reload = load i64, i64* %rax.0.reg2mem
  ret i64 %rax.0.reload, !insn.addr !592
}

define i64 @_ZZ21llvmGetPassPluginInfoENUlRN4llvm11PassBuilderEE_4_FUNES1_(i64* %arg1) local_unnamed_addr {
dec_label_pc_1e34:
  %0 = call i64 @_ZZ21llvmGetPassPluginInfoENKUlRN4llvm11PassBuilderEE_clES1_(i64* null, i64* %arg1), !insn.addr !593
  ret i64 %0, !insn.addr !594
}

define i64 @llvmGetPassPluginInfo(i64 %arg1) local_unnamed_addr {
dec_label_pc_1e57:
  %0 = inttoptr i64 %arg1 to i32*, !insn.addr !595
  store i32 1, i32* %0, align 4, !insn.addr !595
  %1 = add i64 %arg1, 8, !insn.addr !596
  %2 = inttoptr i64 %1 to i64*, !insn.addr !596
  store i64 ptrtoint ([30 x i8]* @global_var_41fa to i64), i64* %2, align 8, !insn.addr !596
  %3 = add i64 %arg1, 16, !insn.addr !597
  %4 = inttoptr i64 %3 to i64*, !insn.addr !597
  store i64 ptrtoint ([6 x i8]* @global_var_4218 to i64), i64* %4, align 8, !insn.addr !597
  %5 = add i64 %arg1, 24, !insn.addr !598
  %6 = inttoptr i64 %5 to i64*, !insn.addr !598
  store i64 7732, i64* %6, align 8, !insn.addr !598
  ret i64 %arg1, !insn.addr !599
}

define i64 @_ZN4llvm17make_filter_rangeIRNS_14iterator_rangeINS_14ilist_iteratorINS_12ilist_detail12node_optionsINS_9DbgRecordELb0ELb0EvLb0EvEELb0ELb0EEEEEZNS_L13filterDbgVarsES8_EUlRS5_E_EENS1_INS_20filter_iterator_implIDTcl9adl_begincl7declvalIRT_EEEET0_NS_6detail15fwd_or_bidi_tagISF_E4typeEEEEEOSD_SG_(i64** %arg1, i64 %arg2) local_unnamed_addr {
dec_label_pc_1ea0:
  %0 = ptrtoint i64** %arg1 to i64
  %stack_var_-72 = alloca i64, align 8
  %stack_var_-40 = alloca i64, align 8
  %1 = call i64 @__readfsqword(i64 40), !insn.addr !600
  %2 = inttoptr i64 %arg2 to i64**, !insn.addr !601
  %3 = call i64 @_ZN4llvm9adl_beginIRNS_14iterator_rangeINS_14ilist_iteratorINS_12ilist_detail12node_optionsINS_9DbgRecordELb0ELb0EvLb0EvEELb0ELb0EEEEEEEDTcl10begin_implcl7forwardIT_Efp_EEEOSA_(i64** %2), !insn.addr !601
  %4 = call i64 @_ZN4llvm7adl_endIRNS_14iterator_rangeINS_14ilist_iteratorINS_12ilist_detail12node_optionsINS_9DbgRecordELb0ELb0EvLb0EvEELb0ELb0EEEEEEEDTcl8end_implcl7forwardIT_Efp_EEEOSA_(i64** %2), !insn.addr !602
  %5 = ptrtoint i64* %stack_var_-40 to i64, !insn.addr !603
  %6 = call i64 @_ZN4llvm20filter_iterator_implINS_14ilist_iteratorINS_12ilist_detail12node_optionsINS_9DbgRecordELb0ELb0EvLb0EvEELb0ELb0EEEZNS_L13filterDbgVarsENS_14iterator_rangeIS6_EEEUlRS4_E_St26bidirectional_iterator_tagEC1ES6_S6_SA_(i64 %5, i64 %4, i64 %4), !insn.addr !604
  %7 = ptrtoint i64* %stack_var_-72 to i64, !insn.addr !605
  %8 = call i64 @_ZN4llvm20filter_iterator_implINS_14ilist_iteratorINS_12ilist_detail12node_optionsINS_9DbgRecordELb0ELb0EvLb0EvEELb0ELb0EEEZNS_L13filterDbgVarsENS_14iterator_rangeIS6_EEEUlRS4_E_St26bidirectional_iterator_tagEC1ES6_S6_SA_(i64 %7, i64 %3, i64 %4), !insn.addr !606
  %9 = call i64 @_ZN4llvm10make_rangeINS_20filter_iterator_implINS_14ilist_iteratorINS_12ilist_detail12node_optionsINS_9DbgRecordELb0ELb0EvLb0EvEELb0ELb0EEEZNS_L13filterDbgVarsENS_14iterator_rangeIS7_EEEUlRS5_E_St26bidirectional_iterator_tagEEEENS8_IT_EESE_SE_(i64 %0, i64 ptrtoint (i32* @0 to i64)), !insn.addr !607
  %10 = call i64 @__readfsqword(i64 40), !insn.addr !608
  %11 = icmp eq i64 %1, %10, !insn.addr !608
  br i1 %11, label %dec_label_pc_1f72, label %dec_label_pc_1f6d, !insn.addr !609

dec_label_pc_1f6d:                                ; preds = %dec_label_pc_1ea0
  %12 = call i64 @__stack_chk_fail(), !insn.addr !610
  br label %dec_label_pc_1f72, !insn.addr !610

dec_label_pc_1f72:                                ; preds = %dec_label_pc_1f6d, %dec_label_pc_1ea0
  ret i64 %0, !insn.addr !611

; uselistorder directives
  uselistorder i64 %4, { 0, 2, 1 }
  uselistorder i64 (i64, i64, i64)* @_ZN4llvm20filter_iterator_implINS_14ilist_iteratorINS_12ilist_detail12node_optionsINS_9DbgRecordELb0ELb0EvLb0EvEELb0ELb0EEEZNS_L13filterDbgVarsENS_14iterator_rangeIS6_EEEUlRS4_E_St26bidirectional_iterator_tagEC1ES6_S6_SA_, { 1, 0 }
}

define i64 @_ZN4llvm9adl_beginIRNS_14iterator_rangeINS_20filter_iterator_implINS_14ilist_iteratorINS_12ilist_detail12node_optionsINS_9DbgRecordELb0ELb0EvLb0EvEELb0ELb0EEEZNS_L13filterDbgVarsENS1_IS8_EEEUlRS6_E_St26bidirectional_iterator_tagEEEEEEDTcl10begin_implcl7forwardIT_Efp_EEEOSG_(i64* %result, i64** %arg2) local_unnamed_addr {
dec_label_pc_1f78:
  %0 = call i64 @__readfsqword(i64 40), !insn.addr !612
  %1 = bitcast i64** %arg2 to i64*
  %2 = call i64** @_ZSt7forwardIRN4llvm14iterator_rangeINS0_20filter_iterator_implINS0_14ilist_iteratorINS0_12ilist_detail12node_optionsINS0_9DbgRecordELb0ELb0EvLb0EvEELb0ELb0EEEZNS0_L13filterDbgVarsENS1_IS8_EEEUlRS6_E_St26bidirectional_iterator_tagEEEEEOT_RNSt16remove_referenceISG_E4typeE(i64* %1), !insn.addr !613
  %3 = call i64 @_ZN4llvm10adl_detail10begin_implIRNS_14iterator_rangeINS_20filter_iterator_implINS_14ilist_iteratorINS_12ilist_detail12node_optionsINS_9DbgRecordELb0ELb0EvLb0EvEELb0ELb0EEEZNS_L13filterDbgVarsENS2_IS9_EEEUlRS7_E_St26bidirectional_iterator_tagEEEEEEDTcl5begincl7forwardIT_Efp_EEEOSH_(i64* %result, i64** %2), !insn.addr !614
  %4 = call i64 @__readfsqword(i64 40), !insn.addr !615
  %5 = icmp eq i64 %0, %4, !insn.addr !615
  br i1 %5, label %dec_label_pc_1fca, label %dec_label_pc_1fc5, !insn.addr !616

dec_label_pc_1fc5:                                ; preds = %dec_label_pc_1f78
  %6 = call i64 @__stack_chk_fail(), !insn.addr !617
  br label %dec_label_pc_1fca, !insn.addr !617

dec_label_pc_1fca:                                ; preds = %dec_label_pc_1fc5, %dec_label_pc_1f78
  %7 = ptrtoint i64* %result to i64
  ret i64 %7, !insn.addr !618

; uselistorder directives
  uselistorder i64* %result, { 1, 0 }
}

define i64 @_ZN4llvm12map_iteratorINS_20filter_iterator_implINS_14ilist_iteratorINS_12ilist_detail12node_optionsINS_9DbgRecordELb0ELb0EvLb0EvEELb0ELb0EEEZNS_L13filterDbgVarsENS_14iterator_rangeIS7_EEEUlRS5_E_St26bidirectional_iterator_tagEEZNS_L13filterDbgVarsES9_EUlSA_E0_EENS_15mapped_iteratorIT_T0_DTclcl7declvalISH_EEdecl7declvalISG_EEEEEESG_SH_(i64 %arg1, i64 %arg2) local_unnamed_addr {
dec_label_pc_1fd0:
  %stack_var_8 = alloca i64, align 8
  %stack_var_-17 = alloca i64, align 8
  %0 = bitcast i64* %stack_var_-17 to i64**, !insn.addr !619
  %1 = call i64* @_ZSt4moveIRZN4llvmL13filterDbgVarsENS0_14iterator_rangeINS0_14ilist_iteratorINS0_12ilist_detail12node_optionsINS0_9DbgRecordELb0ELb0EvLb0EvEELb0ELb0EEEEEEUlRS5_E0_EONSt16remove_referenceIT_E4typeEOSD_(i64** nonnull %0), !insn.addr !619
  %2 = bitcast i64* %stack_var_8 to i64**, !insn.addr !620
  %3 = call i64* @_ZSt4moveIRN4llvm20filter_iterator_implINS0_14ilist_iteratorINS0_12ilist_detail12node_optionsINS0_9DbgRecordELb0ELb0EvLb0EvEELb0ELb0EEEZNS0_L13filterDbgVarsENS0_14iterator_rangeIS7_EEEUlRS5_E_St26bidirectional_iterator_tagEEEONSt16remove_referenceIT_E4typeEOSG_(i64** nonnull %2), !insn.addr !620
  %4 = call i64 @_ZN4llvm15mapped_iteratorINS_20filter_iterator_implINS_14ilist_iteratorINS_12ilist_detail12node_optionsINS_9DbgRecordELb0ELb0EvLb0EvEELb0ELb0EEEZNS_L13filterDbgVarsENS_14iterator_rangeIS7_EEEUlRS5_E_St26bidirectional_iterator_tagEEZNS_L13filterDbgVarsES9_EUlSA_E0_St17reference_wrapperINS_17DbgVariableRecordEEEC1ESD_SE_(i64 %arg1, i64 ptrtoint (i32* @0 to i64)), !insn.addr !621
  ret i64 %arg1, !insn.addr !622
}

define i64 @_ZN4llvm7adl_endIRNS_14iterator_rangeINS_20filter_iterator_implINS_14ilist_iteratorINS_12ilist_detail12node_optionsINS_9DbgRecordELb0ELb0EvLb0EvEELb0ELb0EEEZNS_L13filterDbgVarsENS1_IS8_EEEUlRS6_E_St26bidirectional_iterator_tagEEEEEEDTcl8end_implcl7forwardIT_Efp_EEEOSG_(i64* %result, i64** %arg2) local_unnamed_addr {
dec_label_pc_2028:
  %0 = call i64 @__readfsqword(i64 40), !insn.addr !623
  %1 = bitcast i64** %arg2 to i64*
  %2 = call i64** @_ZSt7forwardIRN4llvm14iterator_rangeINS0_20filter_iterator_implINS0_14ilist_iteratorINS0_12ilist_detail12node_optionsINS0_9DbgRecordELb0ELb0EvLb0EvEELb0ELb0EEEZNS0_L13filterDbgVarsENS1_IS8_EEEUlRS6_E_St26bidirectional_iterator_tagEEEEEOT_RNSt16remove_referenceISG_E4typeE(i64* %1), !insn.addr !624
  %3 = call i64 @_ZN4llvm10adl_detail8end_implIRNS_14iterator_rangeINS_20filter_iterator_implINS_14ilist_iteratorINS_12ilist_detail12node_optionsINS_9DbgRecordELb0ELb0EvLb0EvEELb0ELb0EEEZNS_L13filterDbgVarsENS2_IS9_EEEUlRS7_E_St26bidirectional_iterator_tagEEEEEEDTcl3endcl7forwardIT_Efp_EEEOSH_(i64* %result, i64** %2), !insn.addr !625
  %4 = call i64 @__readfsqword(i64 40), !insn.addr !626
  %5 = icmp eq i64 %0, %4, !insn.addr !626
  br i1 %5, label %dec_label_pc_207a, label %dec_label_pc_2075, !insn.addr !627

dec_label_pc_2075:                                ; preds = %dec_label_pc_2028
  %6 = call i64 @__stack_chk_fail(), !insn.addr !628
  br label %dec_label_pc_207a, !insn.addr !628

dec_label_pc_207a:                                ; preds = %dec_label_pc_2075, %dec_label_pc_2028
  %7 = ptrtoint i64* %result to i64
  ret i64 %7, !insn.addr !629

; uselistorder directives
  uselistorder i64* %result, { 1, 0 }
}

define i64 @_ZN4llvm10make_rangeINS_15mapped_iteratorINS_20filter_iterator_implINS_14ilist_iteratorINS_12ilist_detail12node_optionsINS_9DbgRecordELb0ELb0EvLb0EvEELb0ELb0EEEZNS_L13filterDbgVarsENS_14iterator_rangeIS8_EEEUlRS6_E_St26bidirectional_iterator_tagEEZNS_L13filterDbgVarsESA_EUlSB_E0_St17reference_wrapperINS_17DbgVariableRecordEEEEEENS9_IT_EESK_SK_(i64 %arg1, i64 %arg2) local_unnamed_addr {
dec_label_pc_2080:
  %stack_var_8 = alloca i64, align 8
  %stack_var_40 = alloca i64, align 8
  %0 = bitcast i64* %stack_var_40 to i64**, !insn.addr !630
  %1 = call i64* @_ZSt4moveIRN4llvm15mapped_iteratorINS0_20filter_iterator_implINS0_14ilist_iteratorINS0_12ilist_detail12node_optionsINS0_9DbgRecordELb0ELb0EvLb0EvEELb0ELb0EEEZNS0_L13filterDbgVarsENS0_14iterator_rangeIS8_EEEUlRS6_E_St26bidirectional_iterator_tagEEZNS0_L13filterDbgVarsESA_EUlSB_E0_St17reference_wrapperINS0_17DbgVariableRecordEEEEEONSt16remove_referenceIT_E4typeEOSM_(i64** nonnull %0), !insn.addr !630
  %2 = bitcast i64* %stack_var_8 to i64**, !insn.addr !631
  %3 = call i64* @_ZSt4moveIRN4llvm15mapped_iteratorINS0_20filter_iterator_implINS0_14ilist_iteratorINS0_12ilist_detail12node_optionsINS0_9DbgRecordELb0ELb0EvLb0EvEELb0ELb0EEEZNS0_L13filterDbgVarsENS0_14iterator_rangeIS8_EEEUlRS6_E_St26bidirectional_iterator_tagEEZNS0_L13filterDbgVarsESA_EUlSB_E0_St17reference_wrapperINS0_17DbgVariableRecordEEEEEONSt16remove_referenceIT_E4typeEOSM_(i64** nonnull %2), !insn.addr !631
  %4 = call i64 @_ZN4llvm14iterator_rangeINS_15mapped_iteratorINS_20filter_iterator_implINS_14ilist_iteratorINS_12ilist_detail12node_optionsINS_9DbgRecordELb0ELb0EvLb0EvEELb0ELb0EEEZNS_L13filterDbgVarsENS0_IS8_EEEUlRS6_E_St26bidirectional_iterator_tagEEZNS_L13filterDbgVarsES9_EUlSA_E0_St17reference_wrapperINS_17DbgVariableRecordEEEEEC1ESI_SI_(i64 %arg1, i64 ptrtoint (i32* @0 to i64)), !insn.addr !632
  ret i64 %arg1, !insn.addr !633
}

define i64 @_ZNSt8functionIFbN4llvm9StringRefERNS0_11PassManagerINS0_6ModuleENS0_15AnalysisManagerIS3_JEEEJEEENS0_8ArrayRefINS0_11PassBuilder15PipelineElementEEEEEC1IZZ21llvmGetPassPluginInfoENKUlRS9_E_clESF_EUlS1_S7_SB_E_vEEOT_(i64* %result, i64* %arg2) local_unnamed_addr {
dec_label_pc_210e:
  %0 = alloca i128
  %rax.0.reg2mem = alloca i64, !insn.addr !634
  %rdi = alloca i64, align 8
  %1 = load i128, i128* %0
  %2 = ptrtoint i64* %result to i64
  %3 = call i128 @__asm_pxor(i128 %1, i128 %1), !insn.addr !635
  %4 = bitcast i64* %rdi to i128*
  %5 = load i128, i128* %4, align 8, !insn.addr !636
  call void @__asm_movups(i128 %5, i128 %3), !insn.addr !636
  %6 = add i64 %2, 16, !insn.addr !637
  %7 = inttoptr i64 %6 to i64*, !insn.addr !637
  %8 = load i64, i64* %7, align 8, !insn.addr !637
  call void @__asm_movq(i64 %8, i128 %3), !insn.addr !637
  %9 = call i64 @_ZNSt14_Function_baseC1Ev(i64* %result), !insn.addr !638
  %10 = add i64 %2, 24, !insn.addr !639
  %11 = inttoptr i64 %10 to i64*, !insn.addr !639
  store i64 0, i64* %11, align 8, !insn.addr !639
  %12 = call i1 @_ZNSt14_Function_base13_Base_managerIZZ21llvmGetPassPluginInfoENKUlRN4llvm11PassBuilderEE_clES3_EUlNS1_9StringRefERNS1_11PassManagerINS1_6ModuleENS1_15AnalysisManagerIS7_JEEEJEEENS1_8ArrayRefINS2_15PipelineElementEEEE_E21_M_not_empty_functionISF_EEbRKT_(i64* %arg2), !insn.addr !640
  %13 = icmp eq i1 %12, false, !insn.addr !641
  store i64 0, i64* %rax.0.reg2mem, !insn.addr !642
  br i1 %13, label %dec_label_pc_2192, label %dec_label_pc_2156, !insn.addr !642

dec_label_pc_2156:                                ; preds = %dec_label_pc_210e
  %14 = call i64* @_ZSt7forwardIZZ21llvmGetPassPluginInfoENKUlRN4llvm11PassBuilderEE_clES2_EUlNS0_9StringRefERNS0_11PassManagerINS0_6ModuleENS0_15AnalysisManagerIS6_JEEEJEEENS0_8ArrayRefINS1_15PipelineElementEEEE_EOT_RNSt16remove_referenceISF_E4typeE(i64* %arg2), !insn.addr !643
  call void @_ZNSt14_Function_base13_Base_managerIZZ21llvmGetPassPluginInfoENKUlRN4llvm11PassBuilderEE_clES3_EUlNS1_9StringRefERNS1_11PassManagerINS1_6ModuleENS1_15AnalysisManagerIS7_JEEEJEEENS1_8ArrayRefINS2_15PipelineElementEEEE_E15_M_init_functorISF_EEvRSt9_Any_dataOT_(i64* %result, i64* %14), !insn.addr !644
  store i64 9315, i64* %11, align 8, !insn.addr !645
  store i64 9433, i64* %7, align 8, !insn.addr !646
  store i64 %2, i64* %rax.0.reg2mem, !insn.addr !646
  br label %dec_label_pc_2192, !insn.addr !646

dec_label_pc_2192:                                ; preds = %dec_label_pc_2156, %dec_label_pc_210e
  %rax.0.reload = load i64, i64* %rax.0.reg2mem
  ret i64 %rax.0.reload, !insn.addr !647

; uselistorder directives
  uselistorder i128 %3, { 1, 0 }
}

define i64 @_ZN4llvm20filter_iterator_implINS_14ilist_iteratorINS_12ilist_detail12node_optionsINS_9DbgRecordELb0ELb0EvLb0EvEELb0ELb0EEEZNS_L13filterDbgVarsENS_14iterator_rangeIS6_EEEUlRS4_E_St26bidirectional_iterator_tagEC1ES6_S6_SA_(i64 %arg1, i64 %arg2, i64 %arg3) local_unnamed_addr {
dec_label_pc_2196:
  %0 = call i64 @_ZN4llvm20filter_iterator_baseINS_14ilist_iteratorINS_12ilist_detail12node_optionsINS_9DbgRecordELb0ELb0EvLb0EvEELb0ELb0EEEZNS_L13filterDbgVarsENS_14iterator_rangeIS6_EEEUlRS4_E_St26bidirectional_iterator_tagEC2ES6_S6_SA_(i64 %arg1, i64 %arg2, i64 %arg3), !insn.addr !648
  ret i64 %0, !insn.addr !649
}

define i64 @_ZN4llvm10make_rangeINS_20filter_iterator_implINS_14ilist_iteratorINS_12ilist_detail12node_optionsINS_9DbgRecordELb0ELb0EvLb0EvEELb0ELb0EEEZNS_L13filterDbgVarsENS_14iterator_rangeIS7_EEEUlRS5_E_St26bidirectional_iterator_tagEEEENS8_IT_EESE_SE_(i64 %arg1, i64 %arg2) local_unnamed_addr {
dec_label_pc_21c4:
  %stack_var_8 = alloca i64, align 8
  %stack_var_32 = alloca i64, align 8
  %0 = bitcast i64* %stack_var_32 to i64**, !insn.addr !650
  %1 = call i64* @_ZSt4moveIRN4llvm20filter_iterator_implINS0_14ilist_iteratorINS0_12ilist_detail12node_optionsINS0_9DbgRecordELb0ELb0EvLb0EvEELb0ELb0EEEZNS0_L13filterDbgVarsENS0_14iterator_rangeIS7_EEEUlRS5_E_St26bidirectional_iterator_tagEEEONSt16remove_referenceIT_E4typeEOSG_(i64** nonnull %0), !insn.addr !650
  %2 = bitcast i64* %stack_var_8 to i64**, !insn.addr !651
  %3 = call i64* @_ZSt4moveIRN4llvm20filter_iterator_implINS0_14ilist_iteratorINS0_12ilist_detail12node_optionsINS0_9DbgRecordELb0ELb0EvLb0EvEELb0ELb0EEEZNS0_L13filterDbgVarsENS0_14iterator_rangeIS7_EEEUlRS5_E_St26bidirectional_iterator_tagEEEONSt16remove_referenceIT_E4typeEOSG_(i64** nonnull %2), !insn.addr !651
  %4 = call i64 @_ZN4llvm14iterator_rangeINS_20filter_iterator_implINS_14ilist_iteratorINS_12ilist_detail12node_optionsINS_9DbgRecordELb0ELb0EvLb0EvEELb0ELb0EEEZNS_L13filterDbgVarsENS0_IS7_EEEUlRS5_E_St26bidirectional_iterator_tagEEEC1ESC_SC_(i64 %arg1, i64 ptrtoint (i32* @0 to i64)), !insn.addr !652
  ret i64 %arg1, !insn.addr !653
}

define i64** @_ZSt7forwardIRN4llvm14iterator_rangeINS0_20filter_iterator_implINS0_14ilist_iteratorINS0_12ilist_detail12node_optionsINS0_9DbgRecordELb0ELb0EvLb0EvEELb0ELb0EEEZNS0_L13filterDbgVarsENS1_IS8_EEEUlRS6_E_St26bidirectional_iterator_tagEEEEEOT_RNSt16remove_referenceISG_E4typeE(i64* %arg1) local_unnamed_addr {
dec_label_pc_2241:
  %0 = bitcast i64* %arg1 to i64**, !insn.addr !654
  ret i64** %0, !insn.addr !654
}

define i64 @_ZN4llvm10adl_detail10begin_implIRNS_14iterator_rangeINS_20filter_iterator_implINS_14ilist_iteratorINS_12ilist_detail12node_optionsINS_9DbgRecordELb0ELb0EvLb0EvEELb0ELb0EEEZNS_L13filterDbgVarsENS2_IS9_EEEUlRS7_E_St26bidirectional_iterator_tagEEEEEEDTcl5begincl7forwardIT_Efp_EEEOSH_(i64* %result, i64** %arg2) local_unnamed_addr {
dec_label_pc_224f:
  %0 = call i64 @__readfsqword(i64 40), !insn.addr !655
  %1 = bitcast i64** %arg2 to i64*
  %2 = call i64** @_ZSt7forwardIRN4llvm14iterator_rangeINS0_20filter_iterator_implINS0_14ilist_iteratorINS0_12ilist_detail12node_optionsINS0_9DbgRecordELb0ELb0EvLb0EvEELb0ELb0EEEZNS0_L13filterDbgVarsENS1_IS8_EEEUlRS6_E_St26bidirectional_iterator_tagEEEEEOT_RNSt16remove_referenceISG_E4typeE(i64* %1), !insn.addr !656
  %3 = bitcast i64** %2 to i64*, !insn.addr !657
  %4 = call i64 @_ZNK4llvm14iterator_rangeINS_20filter_iterator_implINS_14ilist_iteratorINS_12ilist_detail12node_optionsINS_9DbgRecordELb0ELb0EvLb0EvEELb0ELb0EEEZNS_L13filterDbgVarsENS0_IS7_EEEUlRS5_E_St26bidirectional_iterator_tagEEE5beginEv(i64* %result, i64* %3), !insn.addr !657
  %5 = call i64 @__readfsqword(i64 40), !insn.addr !658
  %6 = icmp eq i64 %0, %5, !insn.addr !658
  br i1 %6, label %dec_label_pc_22a7, label %dec_label_pc_22a2, !insn.addr !659

dec_label_pc_22a2:                                ; preds = %dec_label_pc_224f
  %7 = call i64 @__stack_chk_fail(), !insn.addr !660
  br label %dec_label_pc_22a7, !insn.addr !660

dec_label_pc_22a7:                                ; preds = %dec_label_pc_22a2, %dec_label_pc_224f
  %8 = ptrtoint i64* %result to i64
  ret i64 %8, !insn.addr !661

; uselistorder directives
  uselistorder i64* %result, { 1, 0 }
}

define i64* @_ZSt4moveIRN4llvm20filter_iterator_implINS0_14ilist_iteratorINS0_12ilist_detail12node_optionsINS0_9DbgRecordELb0ELb0EvLb0EvEELb0ELb0EEEZNS0_L13filterDbgVarsENS0_14iterator_rangeIS7_EEEUlRS5_E_St26bidirectional_iterator_tagEEEONSt16remove_referenceIT_E4typeEOSG_(i64** %arg1) local_unnamed_addr {
dec_label_pc_22ad:
  %0 = bitcast i64** %arg1 to i64*, !insn.addr !662
  ret i64* %0, !insn.addr !662
}

define i64* @_ZSt4moveIRZN4llvmL13filterDbgVarsENS0_14iterator_rangeINS0_14ilist_iteratorINS0_12ilist_detail12node_optionsINS0_9DbgRecordELb0ELb0EvLb0EvEELb0ELb0EEEEEEUlRS5_E0_EONSt16remove_referenceIT_E4typeEOSD_(i64** %arg1) local_unnamed_addr {
dec_label_pc_22bb:
  %0 = bitcast i64** %arg1 to i64*, !insn.addr !663
  ret i64* %0, !insn.addr !663
}

define i64 @_ZN4llvm15mapped_iteratorINS_20filter_iterator_implINS_14ilist_iteratorINS_12ilist_detail12node_optionsINS_9DbgRecordELb0ELb0EvLb0EvEELb0ELb0EEEZNS_L13filterDbgVarsENS_14iterator_rangeIS7_EEEUlRS5_E_St26bidirectional_iterator_tagEEZNS_L13filterDbgVarsES9_EUlSA_E0_St17reference_wrapperINS_17DbgVariableRecordEEEC1ESD_SE_(i64 %arg1, i64 %arg2) local_unnamed_addr {
dec_label_pc_22ca:
  %stack_var_-33 = alloca i64, align 8
  %stack_var_8 = alloca i64, align 8
  %0 = bitcast i64* %stack_var_8 to i64**, !insn.addr !664
  %1 = call i64* @_ZSt4moveIRN4llvm20filter_iterator_implINS0_14ilist_iteratorINS0_12ilist_detail12node_optionsINS0_9DbgRecordELb0ELb0EvLb0EvEELb0ELb0EEEZNS0_L13filterDbgVarsENS0_14iterator_rangeIS7_EEEUlRS5_E_St26bidirectional_iterator_tagEEEONSt16remove_referenceIT_E4typeEOSG_(i64** nonnull %0), !insn.addr !664
  %2 = call i64 @_ZN4llvm21iterator_adaptor_baseINS_15mapped_iteratorINS_20filter_iterator_implINS_14ilist_iteratorINS_12ilist_detail12node_optionsINS_9DbgRecordELb0ELb0EvLb0EvEELb0ELb0EEEZNS_L13filterDbgVarsENS_14iterator_rangeIS8_EEEUlRS6_E_St26bidirectional_iterator_tagEEZNS_L13filterDbgVarsESA_EUlSB_E0_St17reference_wrapperINS_17DbgVariableRecordEEEESE_SD_SI_lPSI_SI_EC2ESE_(i64 %arg1), !insn.addr !665
  %3 = add i64 %arg1, 24, !insn.addr !666
  %4 = bitcast i64* %stack_var_-33 to i64**, !insn.addr !667
  %5 = call i64* @_ZSt4moveIRZN4llvmL13filterDbgVarsENS0_14iterator_rangeINS0_14ilist_iteratorINS0_12ilist_detail12node_optionsINS0_9DbgRecordELb0ELb0EvLb0EvEELb0ELb0EEEEEEUlRS5_E0_EONSt16remove_referenceIT_E4typeEOSD_(i64** nonnull %4), !insn.addr !667
  %6 = inttoptr i64 %3 to i64*, !insn.addr !668
  %7 = call i64 @_ZN4llvm15callable_detail8CallableIZNS_L13filterDbgVarsENS_14iterator_rangeINS_14ilist_iteratorINS_12ilist_detail12node_optionsINS_9DbgRecordELb0ELb0EvLb0EvEELb0ELb0EEEEEEUlRS6_E0_Lb0EEC1ERKSB_(i64* %6, i64* %5), !insn.addr !668
  ret i64 %7, !insn.addr !669

; uselistorder directives
  uselistorder i64* (i64**)* @_ZSt4moveIRZN4llvmL13filterDbgVarsENS0_14iterator_rangeINS0_14ilist_iteratorINS0_12ilist_detail12node_optionsINS0_9DbgRecordELb0ELb0EvLb0EvEELb0ELb0EEEEEEUlRS5_E0_EONSt16remove_referenceIT_E4typeEOSD_, { 1, 0 }
}

define i64 @_ZN4llvm10adl_detail8end_implIRNS_14iterator_rangeINS_20filter_iterator_implINS_14ilist_iteratorINS_12ilist_detail12node_optionsINS_9DbgRecordELb0ELb0EvLb0EvEELb0ELb0EEEZNS_L13filterDbgVarsENS2_IS9_EEEUlRS7_E_St26bidirectional_iterator_tagEEEEEEDTcl3endcl7forwardIT_Efp_EEEOSH_(i64* %result, i64** %arg2) local_unnamed_addr {
dec_label_pc_233a:
  %0 = call i64 @__readfsqword(i64 40), !insn.addr !670
  %1 = bitcast i64** %arg2 to i64*
  %2 = call i64** @_ZSt7forwardIRN4llvm14iterator_rangeINS0_20filter_iterator_implINS0_14ilist_iteratorINS0_12ilist_detail12node_optionsINS0_9DbgRecordELb0ELb0EvLb0EvEELb0ELb0EEEZNS0_L13filterDbgVarsENS1_IS8_EEEUlRS6_E_St26bidirectional_iterator_tagEEEEEOT_RNSt16remove_referenceISG_E4typeE(i64* %1), !insn.addr !671
  %3 = bitcast i64** %2 to i64*, !insn.addr !672
  %4 = call i64 @_ZNK4llvm14iterator_rangeINS_20filter_iterator_implINS_14ilist_iteratorINS_12ilist_detail12node_optionsINS_9DbgRecordELb0ELb0EvLb0EvEELb0ELb0EEEZNS_L13filterDbgVarsENS0_IS7_EEEUlRS5_E_St26bidirectional_iterator_tagEEE3endEv(i64* %result, i64* %3), !insn.addr !672
  %5 = call i64 @__readfsqword(i64 40), !insn.addr !673
  %6 = icmp eq i64 %0, %5, !insn.addr !673
  br i1 %6, label %dec_label_pc_2392, label %dec_label_pc_238d, !insn.addr !674

dec_label_pc_238d:                                ; preds = %dec_label_pc_233a
  %7 = call i64 @__stack_chk_fail(), !insn.addr !675
  br label %dec_label_pc_2392, !insn.addr !675

dec_label_pc_2392:                                ; preds = %dec_label_pc_238d, %dec_label_pc_233a
  %8 = ptrtoint i64* %result to i64
  ret i64 %8, !insn.addr !676

; uselistorder directives
  uselistorder i64** (i64*)* @_ZSt7forwardIRN4llvm14iterator_rangeINS0_20filter_iterator_implINS0_14ilist_iteratorINS0_12ilist_detail12node_optionsINS0_9DbgRecordELb0ELb0EvLb0EvEELb0ELb0EEEZNS0_L13filterDbgVarsENS1_IS8_EEEUlRS6_E_St26bidirectional_iterator_tagEEEEEOT_RNSt16remove_referenceISG_E4typeE, { 3, 2, 1, 0 }
  uselistorder i64* %result, { 1, 0 }
}

define i64* @_ZSt4moveIRN4llvm15mapped_iteratorINS0_20filter_iterator_implINS0_14ilist_iteratorINS0_12ilist_detail12node_optionsINS0_9DbgRecordELb0ELb0EvLb0EvEELb0ELb0EEEZNS0_L13filterDbgVarsENS0_14iterator_rangeIS8_EEEUlRS6_E_St26bidirectional_iterator_tagEEZNS0_L13filterDbgVarsESA_EUlSB_E0_St17reference_wrapperINS0_17DbgVariableRecordEEEEEONSt16remove_referenceIT_E4typeEOSM_(i64** %arg1) local_unnamed_addr {
dec_label_pc_2398:
  %0 = bitcast i64** %arg1 to i64*, !insn.addr !677
  ret i64* %0, !insn.addr !677
}

define i64 @_ZN4llvm14iterator_rangeINS_15mapped_iteratorINS_20filter_iterator_implINS_14ilist_iteratorINS_12ilist_detail12node_optionsINS_9DbgRecordELb0ELb0EvLb0EvEELb0ELb0EEEZNS_L13filterDbgVarsENS0_IS8_EEEUlRS6_E_St26bidirectional_iterator_tagEEZNS_L13filterDbgVarsES9_EUlSA_E0_St17reference_wrapperINS_17DbgVariableRecordEEEEEC1ESI_SI_(i64 %arg1, i64 %arg2) local_unnamed_addr {
dec_label_pc_23a6:
  %stack_var_40 = alloca i64, align 8
  %stack_var_8 = alloca i64, align 8
  %0 = bitcast i64* %stack_var_8 to i64**, !insn.addr !678
  %1 = call i64* @_ZSt4moveIRN4llvm15mapped_iteratorINS0_20filter_iterator_implINS0_14ilist_iteratorINS0_12ilist_detail12node_optionsINS0_9DbgRecordELb0ELb0EvLb0EvEELb0ELb0EEEZNS0_L13filterDbgVarsENS0_14iterator_rangeIS8_EEEUlRS6_E_St26bidirectional_iterator_tagEEZNS0_L13filterDbgVarsESA_EUlSB_E0_St17reference_wrapperINS0_17DbgVariableRecordEEEEEONSt16remove_referenceIT_E4typeEOSM_(i64** nonnull %0), !insn.addr !678
  %2 = ptrtoint i64* %1 to i64, !insn.addr !678
  %3 = load i64, i64* %1, align 8, !insn.addr !679
  %4 = add i64 %2, 8, !insn.addr !680
  %5 = inttoptr i64 %4 to i64*, !insn.addr !680
  %6 = load i64, i64* %5, align 8, !insn.addr !680
  %7 = inttoptr i64 %arg1 to i64*, !insn.addr !681
  store i64 %3, i64* %7, align 8, !insn.addr !681
  %8 = add i64 %arg1, 8, !insn.addr !682
  %9 = inttoptr i64 %8 to i64*, !insn.addr !682
  store i64 %6, i64* %9, align 8, !insn.addr !682
  %10 = add i64 %2, 16, !insn.addr !683
  %11 = inttoptr i64 %10 to i64*, !insn.addr !683
  %12 = load i64, i64* %11, align 8, !insn.addr !683
  %13 = add i64 %2, 24, !insn.addr !684
  %14 = inttoptr i64 %13 to i64*, !insn.addr !684
  %15 = load i64, i64* %14, align 8, !insn.addr !684
  %16 = add i64 %arg1, 16, !insn.addr !685
  %17 = inttoptr i64 %16 to i64*, !insn.addr !685
  store i64 %12, i64* %17, align 8, !insn.addr !685
  %18 = add i64 %arg1, 24, !insn.addr !686
  %19 = inttoptr i64 %18 to i64*, !insn.addr !686
  store i64 %15, i64* %19, align 8, !insn.addr !686
  %20 = bitcast i64* %stack_var_40 to i64**, !insn.addr !687
  %21 = call i64* @_ZSt4moveIRN4llvm15mapped_iteratorINS0_20filter_iterator_implINS0_14ilist_iteratorINS0_12ilist_detail12node_optionsINS0_9DbgRecordELb0ELb0EvLb0EvEELb0ELb0EEEZNS0_L13filterDbgVarsENS0_14iterator_rangeIS8_EEEUlRS6_E_St26bidirectional_iterator_tagEEZNS0_L13filterDbgVarsESA_EUlSB_E0_St17reference_wrapperINS0_17DbgVariableRecordEEEEEONSt16remove_referenceIT_E4typeEOSM_(i64** nonnull %20), !insn.addr !687
  %22 = ptrtoint i64* %21 to i64, !insn.addr !687
  %23 = load i64, i64* %21, align 8, !insn.addr !688
  %24 = add i64 %22, 8, !insn.addr !689
  %25 = inttoptr i64 %24 to i64*, !insn.addr !689
  %26 = load i64, i64* %25, align 8, !insn.addr !689
  %27 = add i64 %arg1, 32, !insn.addr !690
  %28 = inttoptr i64 %27 to i64*, !insn.addr !690
  store i64 %23, i64* %28, align 8, !insn.addr !690
  %29 = add i64 %arg1, 40, !insn.addr !691
  %30 = inttoptr i64 %29 to i64*, !insn.addr !691
  store i64 %26, i64* %30, align 8, !insn.addr !691
  %31 = add i64 %22, 16, !insn.addr !692
  %32 = inttoptr i64 %31 to i64*, !insn.addr !692
  %33 = load i64, i64* %32, align 8, !insn.addr !692
  %34 = add i64 %22, 24, !insn.addr !693
  %35 = inttoptr i64 %34 to i64*, !insn.addr !693
  %36 = load i64, i64* %35, align 8, !insn.addr !693
  %37 = add i64 %arg1, 48, !insn.addr !694
  %38 = inttoptr i64 %37 to i64*, !insn.addr !694
  store i64 %33, i64* %38, align 8, !insn.addr !694
  %39 = add i64 %arg1, 56, !insn.addr !695
  %40 = inttoptr i64 %39 to i64*, !insn.addr !695
  store i64 %36, i64* %40, align 8, !insn.addr !695
  ret i64 %33, !insn.addr !696

; uselistorder directives
  uselistorder i64 %33, { 1, 0 }
  uselistorder i64 %22, { 2, 1, 0 }
  uselistorder i64 %2, { 2, 1, 0 }
  uselistorder i64* (i64**)* @_ZSt4moveIRN4llvm15mapped_iteratorINS0_20filter_iterator_implINS0_14ilist_iteratorINS0_12ilist_detail12node_optionsINS0_9DbgRecordELb0ELb0EvLb0EvEELb0ELb0EEEZNS0_L13filterDbgVarsENS0_14iterator_rangeIS8_EEEUlRS6_E_St26bidirectional_iterator_tagEEZNS0_L13filterDbgVarsESA_EUlSB_E0_St17reference_wrapperINS0_17DbgVariableRecordEEEEEONSt16remove_referenceIT_E4typeEOSM_, { 3, 2, 1, 0 }
}

define i1 @_ZNSt14_Function_base13_Base_managerIZZ21llvmGetPassPluginInfoENKUlRN4llvm11PassBuilderEE_clES3_EUlNS1_9StringRefERNS1_11PassManagerINS1_6ModuleENS1_15AnalysisManagerIS7_JEEEJEEENS1_8ArrayRefINS2_15PipelineElementEEEE_E21_M_not_empty_functionISF_EEbRKT_(i64* %arg1) local_unnamed_addr {
dec_label_pc_2415:
  ret i1 true, !insn.addr !697
}

define i64* @_ZSt7forwardIZZ21llvmGetPassPluginInfoENKUlRN4llvm11PassBuilderEE_clES2_EUlNS0_9StringRefERNS0_11PassManagerINS0_6ModuleENS0_15AnalysisManagerIS6_JEEEJEEENS0_8ArrayRefINS1_15PipelineElementEEEE_EOT_RNSt16remove_referenceISF_E4typeE(i64* %arg1) local_unnamed_addr {
dec_label_pc_2424:
  ret i64* %arg1, !insn.addr !698
}

define void @_ZNSt14_Function_base13_Base_managerIZZ21llvmGetPassPluginInfoENKUlRN4llvm11PassBuilderEE_clES3_EUlNS1_9StringRefERNS1_11PassManagerINS1_6ModuleENS1_15AnalysisManagerIS7_JEEEJEEENS1_8ArrayRefINS2_15PipelineElementEEEE_E15_M_init_functorISF_EEvRSt9_Any_dataOT_(i64* %arg1, i64* %arg2) local_unnamed_addr {
dec_label_pc_2432:
  %0 = call i64* @_ZSt7forwardIZZ21llvmGetPassPluginInfoENKUlRN4llvm11PassBuilderEE_clES2_EUlNS0_9StringRefERNS0_11PassManagerINS0_6ModuleENS0_15AnalysisManagerIS6_JEEEJEEENS0_8ArrayRefINS1_15PipelineElementEEEE_EOT_RNSt16remove_referenceISF_E4typeE(i64* %arg2), !insn.addr !699
  call void @_ZNSt14_Function_base13_Base_managerIZZ21llvmGetPassPluginInfoENKUlRN4llvm11PassBuilderEE_clES3_EUlNS1_9StringRefERNS1_11PassManagerINS1_6ModuleENS1_15AnalysisManagerIS7_JEEEJEEENS1_8ArrayRefINS2_15PipelineElementEEEE_E9_M_createISF_EEvRSt9_Any_dataOT_St17integral_constantIbLb1EE(i64* %arg1, i64* %0, i64 ptrtoint (i32* @0 to i64)), !insn.addr !700
  ret void, !insn.addr !701
}

define i64 @_ZNSt17_Function_handlerIFbN4llvm9StringRefERNS0_11PassManagerINS0_6ModuleENS0_15AnalysisManagerIS3_JEEEJEEENS0_8ArrayRefINS0_11PassBuilder15PipelineElementEEEEZZ21llvmGetPassPluginInfoENKUlRS9_E_clESD_EUlS1_S7_SB_E_E9_M_invokeERKSt9_Any_dataOS1_S7_OSB_(i64* %arg1, i64* %arg2, i64* %arg3, i64* %arg4) local_unnamed_addr {
dec_label_pc_2463:
  %0 = call i64* @_ZSt7forwardIN4llvm8ArrayRefINS0_11PassBuilder15PipelineElementEEEEOT_RNSt16remove_referenceIS5_E4typeE(i64* %arg4), !insn.addr !702
  %1 = ptrtoint i64* %0 to i64, !insn.addr !702
  %2 = call i64** @_ZSt7forwardIRN4llvm11PassManagerINS0_6ModuleENS0_15AnalysisManagerIS2_JEEEJEEEEOT_RNSt16remove_referenceIS7_E4typeE(i64* %arg3), !insn.addr !703
  %3 = call i64* @_ZSt7forwardIN4llvm9StringRefEEOT_RNSt16remove_referenceIS2_E4typeE(i64* %arg2), !insn.addr !704
  %4 = call i64 @_ZNSt14_Function_base13_Base_managerIZZ21llvmGetPassPluginInfoENKUlRN4llvm11PassBuilderEE_clES3_EUlNS1_9StringRefERNS1_11PassManagerINS1_6ModuleENS1_15AnalysisManagerIS7_JEEEJEEENS1_8ArrayRefINS2_15PipelineElementEEEE_E14_M_get_pointerERKSt9_Any_data(i64* %arg1), !insn.addr !705
  %5 = inttoptr i64 %4 to i64*, !insn.addr !706
  %6 = call i64 @_ZSt10__invoke_rIbRZZ21llvmGetPassPluginInfoENKUlRN4llvm11PassBuilderEE_clES2_EUlNS0_9StringRefERNS0_11PassManagerINS0_6ModuleENS0_15AnalysisManagerIS6_JEEEJEEENS0_8ArrayRefINS1_15PipelineElementEEEE_JS4_SA_SD_EENSt9enable_ifIX16is_invocable_r_vIT_T0_DpT1_EESH_E4typeEOSI_DpOSJ_(i64* %5, i64* %3, i64** %2, i64 %1), !insn.addr !706
  ret i64 %6, !insn.addr !707
}

define i64 @_ZNSt17_Function_handlerIFbN4llvm9StringRefERNS0_11PassManagerINS0_6ModuleENS0_15AnalysisManagerIS3_JEEEJEEENS0_8ArrayRefINS0_11PassBuilder15PipelineElementEEEEZZ21llvmGetPassPluginInfoENKUlRS9_E_clESD_EUlS1_S7_SB_E_E10_M_managerERSt9_Any_dataRKSH_St18_Manager_operation(i64* %arg1, i64* %arg2, i64 %arg3) local_unnamed_addr {
dec_label_pc_24d9:
  %0 = trunc i64 %arg3 to i32, !insn.addr !708
  switch i32 %0, label %dec_label_pc_2537 [
    i32 0, label %dec_label_pc_24ff
    i32 1, label %dec_label_pc_2517
  ]

dec_label_pc_24ff:                                ; preds = %dec_label_pc_24d9
  %1 = call i64** @_ZNSt9_Any_data9_M_accessIPKSt9type_infoEERT_v(i64* %arg1), !insn.addr !709
  %2 = bitcast i64** %1 to i64*, !insn.addr !710
  store i64 ptrtoint (i64* @global_var_12658 to i64), i64* %2, align 8, !insn.addr !710
  br label %dec_label_pc_254d, !insn.addr !711

dec_label_pc_2517:                                ; preds = %dec_label_pc_24d9
  %3 = call i64 @_ZNSt14_Function_base13_Base_managerIZZ21llvmGetPassPluginInfoENKUlRN4llvm11PassBuilderEE_clES3_EUlNS1_9StringRefERNS1_11PassManagerINS1_6ModuleENS1_15AnalysisManagerIS7_JEEEJEEENS1_8ArrayRefINS2_15PipelineElementEEEE_E14_M_get_pointerERKSt9_Any_data(i64* %arg2), !insn.addr !712
  %4 = call i64** @_ZNSt9_Any_data9_M_accessIPZZ21llvmGetPassPluginInfoENKUlRN4llvm11PassBuilderEE_clES3_EUlNS1_9StringRefERNS1_11PassManagerINS1_6ModuleENS1_15AnalysisManagerIS7_JEEEJEEENS1_8ArrayRefINS2_15PipelineElementEEEE_EERT_v(i64* %arg1), !insn.addr !713
  %5 = bitcast i64** %4 to i64*, !insn.addr !714
  store i64 %3, i64* %5, align 8, !insn.addr !714
  br label %dec_label_pc_254d, !insn.addr !715

dec_label_pc_2537:                                ; preds = %dec_label_pc_24d9
  %6 = and i64 %arg3, 4294967295
  %7 = call i64 @_ZNSt14_Function_base13_Base_managerIZZ21llvmGetPassPluginInfoENKUlRN4llvm11PassBuilderEE_clES3_EUlNS1_9StringRefERNS1_11PassManagerINS1_6ModuleENS1_15AnalysisManagerIS7_JEEEJEEENS1_8ArrayRefINS2_15PipelineElementEEEE_E10_M_managerERSt9_Any_dataRKSH_St18_Manager_operation(i64* %arg1, i64* %arg2, i64 %6), !insn.addr !716
  br label %dec_label_pc_254d, !insn.addr !716

dec_label_pc_254d:                                ; preds = %dec_label_pc_2537, %dec_label_pc_2517, %dec_label_pc_24ff
  ret i64 0, !insn.addr !717

; uselistorder directives
  uselistorder i64* %arg2, { 1, 0 }
  uselistorder i64* %arg1, { 2, 1, 0 }
}

define i64 @_ZN4llvm20filter_iterator_baseINS_14ilist_iteratorINS_12ilist_detail12node_optionsINS_9DbgRecordELb0ELb0EvLb0EvEELb0ELb0EEEZNS_L13filterDbgVarsENS_14iterator_rangeIS6_EEEUlRS4_E_St26bidirectional_iterator_tagEC2ES6_S6_SA_(i64 %arg1, i64 %arg2, i64 %arg3) local_unnamed_addr {
dec_label_pc_2558:
  %0 = inttoptr i64 %arg1 to i64*, !insn.addr !718
  %1 = call i64 @_ZN4llvm21iterator_adaptor_baseINS_20filter_iterator_baseINS_14ilist_iteratorINS_12ilist_detail12node_optionsINS_9DbgRecordELb0ELb0EvLb0EvEELb0ELb0EEEZNS_L13filterDbgVarsENS_14iterator_rangeIS7_EEEUlRS5_E_St26bidirectional_iterator_tagEES7_SC_S5_lPS5_SA_EC2ES7_(i64* %0, i64 %arg2), !insn.addr !718
  %2 = add i64 %arg1, 8, !insn.addr !719
  %3 = inttoptr i64 %2 to i64*, !insn.addr !719
  store i64 %arg3, i64* %3, align 8, !insn.addr !719
  %4 = call i64 @_ZN4llvm20filter_iterator_baseINS_14ilist_iteratorINS_12ilist_detail12node_optionsINS_9DbgRecordELb0ELb0EvLb0EvEELb0ELb0EEEZNS_L13filterDbgVarsENS_14iterator_rangeIS6_EEEUlRS4_E_St26bidirectional_iterator_tagE13findNextValidEv(i64* %0), !insn.addr !720
  ret i64 %4, !insn.addr !721
}

define i64 @_ZN4llvm14iterator_rangeINS_20filter_iterator_implINS_14ilist_iteratorINS_12ilist_detail12node_optionsINS_9DbgRecordELb0ELb0EvLb0EvEELb0ELb0EEEZNS_L13filterDbgVarsENS0_IS7_EEEUlRS5_E_St26bidirectional_iterator_tagEEEC1ESC_SC_(i64 %arg1, i64 %arg2) local_unnamed_addr {
dec_label_pc_259a:
  %stack_var_32 = alloca i64, align 8
  %stack_var_8 = alloca i64, align 8
  %0 = bitcast i64* %stack_var_8 to i64**, !insn.addr !722
  %1 = call i64* @_ZSt4moveIRN4llvm20filter_iterator_implINS0_14ilist_iteratorINS0_12ilist_detail12node_optionsINS0_9DbgRecordELb0ELb0EvLb0EvEELb0ELb0EEEZNS0_L13filterDbgVarsENS0_14iterator_rangeIS7_EEEUlRS5_E_St26bidirectional_iterator_tagEEEONSt16remove_referenceIT_E4typeEOSG_(i64** nonnull %0), !insn.addr !722
  %2 = ptrtoint i64* %1 to i64, !insn.addr !722
  %3 = load i64, i64* %1, align 8, !insn.addr !723
  %4 = add i64 %2, 8, !insn.addr !724
  %5 = inttoptr i64 %4 to i64*, !insn.addr !724
  %6 = load i64, i64* %5, align 8, !insn.addr !724
  %7 = inttoptr i64 %arg1 to i64*, !insn.addr !725
  store i64 %3, i64* %7, align 8, !insn.addr !725
  %8 = add i64 %arg1, 8, !insn.addr !726
  %9 = inttoptr i64 %8 to i64*, !insn.addr !726
  store i64 %6, i64* %9, align 8, !insn.addr !726
  %10 = add i64 %2, 16, !insn.addr !727
  %11 = inttoptr i64 %10 to i64*, !insn.addr !727
  %12 = load i64, i64* %11, align 8, !insn.addr !727
  %13 = add i64 %arg1, 16, !insn.addr !728
  %14 = inttoptr i64 %13 to i64*, !insn.addr !728
  store i64 %12, i64* %14, align 8, !insn.addr !728
  %15 = bitcast i64* %stack_var_32 to i64**, !insn.addr !729
  %16 = call i64* @_ZSt4moveIRN4llvm20filter_iterator_implINS0_14ilist_iteratorINS0_12ilist_detail12node_optionsINS0_9DbgRecordELb0ELb0EvLb0EvEELb0ELb0EEEZNS0_L13filterDbgVarsENS0_14iterator_rangeIS7_EEEUlRS5_E_St26bidirectional_iterator_tagEEEONSt16remove_referenceIT_E4typeEOSG_(i64** nonnull %15), !insn.addr !729
  %17 = ptrtoint i64* %16 to i64, !insn.addr !729
  %18 = load i64, i64* %16, align 8, !insn.addr !730
  %19 = add i64 %17, 8, !insn.addr !731
  %20 = inttoptr i64 %19 to i64*, !insn.addr !731
  %21 = load i64, i64* %20, align 8, !insn.addr !731
  %22 = add i64 %arg1, 24, !insn.addr !732
  %23 = inttoptr i64 %22 to i64*, !insn.addr !732
  store i64 %18, i64* %23, align 8, !insn.addr !732
  %24 = add i64 %arg1, 32, !insn.addr !733
  %25 = inttoptr i64 %24 to i64*, !insn.addr !733
  store i64 %21, i64* %25, align 8, !insn.addr !733
  %26 = add i64 %17, 16, !insn.addr !734
  %27 = inttoptr i64 %26 to i64*, !insn.addr !734
  %28 = load i64, i64* %27, align 8, !insn.addr !734
  %29 = add i64 %arg1, 40, !insn.addr !735
  %30 = inttoptr i64 %29 to i64*, !insn.addr !735
  store i64 %28, i64* %30, align 8, !insn.addr !735
  ret i64 %28, !insn.addr !736

; uselistorder directives
  uselistorder i64 %28, { 1, 0 }
  uselistorder i64 %17, { 1, 0 }
  uselistorder i64 %2, { 1, 0 }
}

define i64 @_ZN4llvm21iterator_adaptor_baseINS_15mapped_iteratorINS_20filter_iterator_implINS_14ilist_iteratorINS_12ilist_detail12node_optionsINS_9DbgRecordELb0ELb0EvLb0EvEELb0ELb0EEEZNS_L13filterDbgVarsENS_14iterator_rangeIS8_EEEUlRS6_E_St26bidirectional_iterator_tagEEZNS_L13filterDbgVarsESA_EUlSB_E0_St17reference_wrapperINS_17DbgVariableRecordEEEESE_SD_SI_lPSI_SI_EC2ESE_(i64 %arg1) local_unnamed_addr {
dec_label_pc_25fa:
  %stack_var_8 = alloca i64, align 8
  %0 = bitcast i64* %stack_var_8 to i64**, !insn.addr !737
  %1 = call i64* @_ZSt4moveIRN4llvm20filter_iterator_implINS0_14ilist_iteratorINS0_12ilist_detail12node_optionsINS0_9DbgRecordELb0ELb0EvLb0EvEELb0ELb0EEEZNS0_L13filterDbgVarsENS0_14iterator_rangeIS7_EEEUlRS5_E_St26bidirectional_iterator_tagEEEONSt16remove_referenceIT_E4typeEOSG_(i64** nonnull %0), !insn.addr !737
  %2 = ptrtoint i64* %1 to i64, !insn.addr !737
  %3 = load i64, i64* %1, align 8, !insn.addr !738
  %4 = add i64 %2, 8, !insn.addr !739
  %5 = inttoptr i64 %4 to i64*, !insn.addr !739
  %6 = load i64, i64* %5, align 8, !insn.addr !739
  %7 = inttoptr i64 %arg1 to i64*, !insn.addr !740
  store i64 %3, i64* %7, align 8, !insn.addr !740
  %8 = add i64 %arg1, 8, !insn.addr !741
  %9 = inttoptr i64 %8 to i64*, !insn.addr !741
  store i64 %6, i64* %9, align 8, !insn.addr !741
  %10 = add i64 %2, 16, !insn.addr !742
  %11 = inttoptr i64 %10 to i64*, !insn.addr !742
  %12 = load i64, i64* %11, align 8, !insn.addr !742
  %13 = add i64 %arg1, 16, !insn.addr !743
  %14 = inttoptr i64 %13 to i64*, !insn.addr !743
  store i64 %12, i64* %14, align 8, !insn.addr !743
  ret i64 %12, !insn.addr !744

; uselistorder directives
  uselistorder i64 %12, { 1, 0 }
  uselistorder i64 %2, { 1, 0 }
  uselistorder i64* (i64**)* @_ZSt4moveIRN4llvm20filter_iterator_implINS0_14ilist_iteratorINS0_12ilist_detail12node_optionsINS0_9DbgRecordELb0ELb0EvLb0EvEELb0ELb0EEEZNS0_L13filterDbgVarsENS0_14iterator_rangeIS7_EEEUlRS5_E_St26bidirectional_iterator_tagEEEONSt16remove_referenceIT_E4typeEOSG_, { 2, 6, 5, 1, 4, 3, 0 }
}

define i64 @_ZN4llvm15callable_detail8CallableIZNS_L13filterDbgVarsENS_14iterator_rangeINS_14ilist_iteratorINS_12ilist_detail12node_optionsINS_9DbgRecordELb0ELb0EvLb0EvEELb0ELb0EEEEEEUlRS6_E0_Lb0EEC1ERKSB_(i64* %result, i64* %arg2) local_unnamed_addr {
dec_label_pc_2630:
  %0 = ptrtoint i64* %arg2 to i64
  %1 = ptrtoint i64* %result to i64
  %2 = call i64 @_ZNSt8optionalIZN4llvmL13filterDbgVarsENS0_14iterator_rangeINS0_14ilist_iteratorINS0_12ilist_detail12node_optionsINS0_9DbgRecordELb0ELb0EvLb0EvEELb0ELb0EEEEEEUlRS5_E0_EC1IJRKSA_ELb0EEESt10in_place_tDpOT_(i64 %1, i64 %0), !insn.addr !745
  ret i64 %2, !insn.addr !746
}

define void @_ZNSt14_Function_base13_Base_managerIZZ21llvmGetPassPluginInfoENKUlRN4llvm11PassBuilderEE_clES3_EUlNS1_9StringRefERNS1_11PassManagerINS1_6ModuleENS1_15AnalysisManagerIS7_JEEEJEEENS1_8ArrayRefINS2_15PipelineElementEEEE_E9_M_createISF_EEvRSt9_Any_dataOT_St17integral_constantIbLb1EE(i64* %arg1, i64* %arg2, i64 %arg3) local_unnamed_addr {
dec_label_pc_2656:
  %0 = call i64 @_ZNSt9_Any_data9_M_accessEv(i64* %arg1), !insn.addr !747
  %1 = inttoptr i64 %0 to i64*, !insn.addr !748
  %2 = call i64 @_ZnwmPv(i64 1, i64* %1), !insn.addr !748
  %3 = call i64* @_ZSt7forwardIZZ21llvmGetPassPluginInfoENKUlRN4llvm11PassBuilderEE_clES2_EUlNS0_9StringRefERNS0_11PassManagerINS0_6ModuleENS0_15AnalysisManagerIS6_JEEEJEEENS0_8ArrayRefINS1_15PipelineElementEEEE_EOT_RNSt16remove_referenceISF_E4typeE(i64* %arg2), !insn.addr !749
  ret void, !insn.addr !750

; uselistorder directives
  uselistorder i64* (i64*)* @_ZSt7forwardIZZ21llvmGetPassPluginInfoENKUlRN4llvm11PassBuilderEE_clES2_EUlNS0_9StringRefERNS0_11PassManagerINS0_6ModuleENS0_15AnalysisManagerIS6_JEEEJEEENS0_8ArrayRefINS1_15PipelineElementEEEE_EOT_RNSt16remove_referenceISF_E4typeE, { 2, 1, 0 }
}

define i64 @_ZNSt14_Function_base13_Base_managerIZZ21llvmGetPassPluginInfoENKUlRN4llvm11PassBuilderEE_clES3_EUlNS1_9StringRefERNS1_11PassManagerINS1_6ModuleENS1_15AnalysisManagerIS7_JEEEJEEENS1_8ArrayRefINS2_15PipelineElementEEEE_E14_M_get_pointerERKSt9_Any_data(i64* %arg1) local_unnamed_addr {
dec_label_pc_268e:
  %0 = call i64* @_ZNKSt9_Any_data9_M_accessIZZ21llvmGetPassPluginInfoENKUlRN4llvm11PassBuilderEE_clES3_EUlNS1_9StringRefERNS1_11PassManagerINS1_6ModuleENS1_15AnalysisManagerIS7_JEEEJEEENS1_8ArrayRefINS2_15PipelineElementEEEE_EERKT_v(i64* %arg1), !insn.addr !751
  %1 = call i64* @_ZSt11__addressofIKZZ21llvmGetPassPluginInfoENKUlRN4llvm11PassBuilderEE_clES2_EUlNS0_9StringRefERNS0_11PassManagerINS0_6ModuleENS0_15AnalysisManagerIS6_JEEEJEEENS0_8ArrayRefINS1_15PipelineElementEEEE_EPT_RSG_(i64* %0), !insn.addr !752
  %2 = ptrtoint i64* %1 to i64, !insn.addr !752
  ret i64 %2, !insn.addr !753
}

define i64 @_ZSt10__invoke_rIbRZZ21llvmGetPassPluginInfoENKUlRN4llvm11PassBuilderEE_clES2_EUlNS0_9StringRefERNS0_11PassManagerINS0_6ModuleENS0_15AnalysisManagerIS6_JEEEJEEENS0_8ArrayRefINS1_15PipelineElementEEEE_JS4_SA_SD_EENSt9enable_ifIX16is_invocable_r_vIT_T0_DpT1_EESH_E4typeEOSI_DpOSJ_(i64* %this, i64* %result, i64** %arg3, i64 %arg4) local_unnamed_addr {
dec_label_pc_26b8:
  %0 = inttoptr i64 %arg4 to i64*, !insn.addr !754
  %1 = call i64* @_ZSt7forwardIN4llvm8ArrayRefINS0_11PassBuilder15PipelineElementEEEEOT_RNSt16remove_referenceIS5_E4typeE(i64* %0), !insn.addr !754
  %2 = ptrtoint i64* %1 to i64, !insn.addr !754
  %3 = bitcast i64** %arg3 to i64*, !insn.addr !755
  %4 = call i64** @_ZSt7forwardIRN4llvm11PassManagerINS0_6ModuleENS0_15AnalysisManagerIS2_JEEEJEEEEOT_RNSt16remove_referenceIS7_E4typeE(i64* %3), !insn.addr !755
  %5 = call i64* @_ZSt7forwardIN4llvm9StringRefEEOT_RNSt16remove_referenceIS2_E4typeE(i64* %result), !insn.addr !756
  %6 = ptrtoint i64* %5 to i64, !insn.addr !756
  %7 = call i64** @_ZSt7forwardIRZZ21llvmGetPassPluginInfoENKUlRN4llvm11PassBuilderEE_clES2_EUlNS0_9StringRefERNS0_11PassManagerINS0_6ModuleENS0_15AnalysisManagerIS6_JEEEJEEENS0_8ArrayRefINS1_15PipelineElementEEEE_EOT_RNSt16remove_referenceISG_E4typeE(i64* %this), !insn.addr !757
  %8 = bitcast i64** %7 to i64*, !insn.addr !758
  %9 = call i1 @_ZSt13__invoke_implIbRZZ21llvmGetPassPluginInfoENKUlRN4llvm11PassBuilderEE_clES2_EUlNS0_9StringRefERNS0_11PassManagerINS0_6ModuleENS0_15AnalysisManagerIS6_JEEEJEEENS0_8ArrayRefINS1_15PipelineElementEEEE_JS4_SA_SD_EET_St14__invoke_otherOT0_DpOT1_(i64* %8, i64 %6, i64** %4, i64 %2), !insn.addr !758
  %10 = sext i1 %9 to i64, !insn.addr !758
  ret i64 %10, !insn.addr !759
}

define i64** @_ZNSt9_Any_data9_M_accessIPZZ21llvmGetPassPluginInfoENKUlRN4llvm11PassBuilderEE_clES3_EUlNS1_9StringRefERNS1_11PassManagerINS1_6ModuleENS1_15AnalysisManagerIS7_JEEEJEEENS1_8ArrayRefINS2_15PipelineElementEEEE_EERT_v(i64* %result) local_unnamed_addr {
dec_label_pc_272a:
  %0 = call i64 @_ZNSt9_Any_data9_M_accessEv(i64* %result), !insn.addr !760
  %1 = inttoptr i64 %0 to i64**, !insn.addr !761
  ret i64** %1, !insn.addr !761
}

define i64 @_ZNSt14_Function_base13_Base_managerIZZ21llvmGetPassPluginInfoENKUlRN4llvm11PassBuilderEE_clES3_EUlNS1_9StringRefERNS1_11PassManagerINS1_6ModuleENS1_15AnalysisManagerIS7_JEEEJEEENS1_8ArrayRefINS2_15PipelineElementEEEE_E10_M_managerERSt9_Any_dataRKSH_St18_Manager_operation(i64* %arg1, i64* %arg2, i64 %arg3) local_unnamed_addr {
dec_label_pc_2744:
  %0 = trunc i64 %arg3 to i32, !insn.addr !762
  %1 = icmp eq i32 %0, 3, !insn.addr !762
  br i1 %1, label %dec_label_pc_27d2, label %dec_label_pc_2760, !insn.addr !763

dec_label_pc_2760:                                ; preds = %dec_label_pc_2744
  %2 = icmp sgt i32 %0, 3, !insn.addr !764
  br i1 %2, label %dec_label_pc_27df, label %dec_label_pc_2765, !insn.addr !764

dec_label_pc_2765:                                ; preds = %dec_label_pc_2760
  switch i32 %0, label %dec_label_pc_27df [
    i32 2, label %dec_label_pc_27b2
    i32 0, label %dec_label_pc_277a
    i32 1, label %dec_label_pc_2792
  ]

dec_label_pc_277a:                                ; preds = %dec_label_pc_2765
  %3 = call i64** @_ZNSt9_Any_data9_M_accessIPKSt9type_infoEERT_v(i64* %arg1), !insn.addr !765
  %4 = bitcast i64** %3 to i64*, !insn.addr !766
  store i64 ptrtoint (i64* @global_var_12658 to i64), i64* %4, align 8, !insn.addr !766
  br label %dec_label_pc_27df, !insn.addr !767

dec_label_pc_2792:                                ; preds = %dec_label_pc_2765
  %5 = call i64 @_ZNSt14_Function_base13_Base_managerIZZ21llvmGetPassPluginInfoENKUlRN4llvm11PassBuilderEE_clES3_EUlNS1_9StringRefERNS1_11PassManagerINS1_6ModuleENS1_15AnalysisManagerIS7_JEEEJEEENS1_8ArrayRefINS2_15PipelineElementEEEE_E14_M_get_pointerERKSt9_Any_data(i64* %arg2), !insn.addr !768
  %6 = call i64** @_ZNSt9_Any_data9_M_accessIPZZ21llvmGetPassPluginInfoENKUlRN4llvm11PassBuilderEE_clES3_EUlNS1_9StringRefERNS1_11PassManagerINS1_6ModuleENS1_15AnalysisManagerIS7_JEEEJEEENS1_8ArrayRefINS2_15PipelineElementEEEE_EERT_v(i64* %arg1), !insn.addr !769
  %7 = bitcast i64** %6 to i64*, !insn.addr !770
  store i64 %5, i64* %7, align 8, !insn.addr !770
  br label %dec_label_pc_27df, !insn.addr !771

dec_label_pc_27b2:                                ; preds = %dec_label_pc_2765
  %8 = call i64 @_ZNSt14_Function_base13_Base_managerIZZ21llvmGetPassPluginInfoENKUlRN4llvm11PassBuilderEE_clES3_EUlNS1_9StringRefERNS1_11PassManagerINS1_6ModuleENS1_15AnalysisManagerIS7_JEEEJEEENS1_8ArrayRefINS2_15PipelineElementEEEE_E14_M_get_pointerERKSt9_Any_data(i64* %arg2), !insn.addr !772
  %9 = inttoptr i64 %8 to i64**, !insn.addr !773
  call void @_ZNSt14_Function_base13_Base_managerIZZ21llvmGetPassPluginInfoENKUlRN4llvm11PassBuilderEE_clES3_EUlNS1_9StringRefERNS1_11PassManagerINS1_6ModuleENS1_15AnalysisManagerIS7_JEEEJEEENS1_8ArrayRefINS2_15PipelineElementEEEE_E15_M_init_functorIRKSF_EEvRSt9_Any_dataOT_(i64* %arg1, i64** %9), !insn.addr !773
  br label %dec_label_pc_27df, !insn.addr !774

dec_label_pc_27d2:                                ; preds = %dec_label_pc_2744
  %10 = call i64 @_ZNSt14_Function_base13_Base_managerIZZ21llvmGetPassPluginInfoENKUlRN4llvm11PassBuilderEE_clES3_EUlNS1_9StringRefERNS1_11PassManagerINS1_6ModuleENS1_15AnalysisManagerIS7_JEEEJEEENS1_8ArrayRefINS2_15PipelineElementEEEE_E10_M_destroyERSt9_Any_dataSt17integral_constantIbLb1EE(i64* %arg1, i64 ptrtoint (i32* @0 to i64)), !insn.addr !775
  br label %dec_label_pc_27df, !insn.addr !776

dec_label_pc_27df:                                ; preds = %dec_label_pc_2765, %dec_label_pc_27d2, %dec_label_pc_27b2, %dec_label_pc_2792, %dec_label_pc_277a, %dec_label_pc_2760
  ret i64 0, !insn.addr !777

; uselistorder directives
  uselistorder i64** (i64*)* @_ZNSt9_Any_data9_M_accessIPZZ21llvmGetPassPluginInfoENKUlRN4llvm11PassBuilderEE_clES3_EUlNS1_9StringRefERNS1_11PassManagerINS1_6ModuleENS1_15AnalysisManagerIS7_JEEEJEEENS1_8ArrayRefINS2_15PipelineElementEEEE_EERT_v, { 1, 0 }
  uselistorder i64 (i64*)* @_ZNSt14_Function_base13_Base_managerIZZ21llvmGetPassPluginInfoENKUlRN4llvm11PassBuilderEE_clES3_EUlNS1_9StringRefERNS1_11PassManagerINS1_6ModuleENS1_15AnalysisManagerIS7_JEEEJEEENS1_8ArrayRefINS2_15PipelineElementEEEE_E14_M_get_pointerERKSt9_Any_data, { 3, 2, 1, 0 }
  uselistorder i64** (i64*)* @_ZNSt9_Any_data9_M_accessIPKSt9type_infoEERT_v, { 1, 0 }
  uselistorder i32 3, { 2, 0, 3, 1 }
  uselistorder i64* %arg1, { 0, 1, 3, 2 }
  uselistorder label %dec_label_pc_27df, { 1, 2, 3, 4, 0, 5 }
}

define i64 @_ZN4llvm21iterator_adaptor_baseINS_20filter_iterator_baseINS_14ilist_iteratorINS_12ilist_detail12node_optionsINS_9DbgRecordELb0ELb0EvLb0EvEELb0ELb0EEEZNS_L13filterDbgVarsENS_14iterator_rangeIS7_EEEUlRS5_E_St26bidirectional_iterator_tagEES7_SC_S5_lPS5_SA_EC2ES7_(i64* %result, i64 %arg2) local_unnamed_addr {
dec_label_pc_27ea:
  %stack_var_-24 = alloca i64, align 8
  store i64 %arg2, i64* %stack_var_-24, align 8, !insn.addr !778
  %0 = bitcast i64* %stack_var_-24 to i64**, !insn.addr !779
  %1 = call i64* @_ZSt4moveIRN4llvm14ilist_iteratorINS0_12ilist_detail12node_optionsINS0_9DbgRecordELb0ELb0EvLb0EvEELb0ELb0EEEEONSt16remove_referenceIT_E4typeEOS9_(i64** nonnull %0), !insn.addr !779
  %2 = load i64, i64* %1, align 8, !insn.addr !780
  store i64 %2, i64* %result, align 8, !insn.addr !781
  ret i64 %2, !insn.addr !782

; uselistorder directives
  uselistorder i64 %2, { 1, 0 }
}

define i64 @_ZN4llvm20filter_iterator_baseINS_14ilist_iteratorINS_12ilist_detail12node_optionsINS_9DbgRecordELb0ELb0EvLb0EvEELb0ELb0EEEZNS_L13filterDbgVarsENS_14iterator_rangeIS6_EEEUlRS4_E_St26bidirectional_iterator_tagE13findNextValidEv(i64* %result) local_unnamed_addr {
dec_label_pc_2814:
  %0 = ptrtoint i64* %result to i64
  %1 = add i64 %0, 16
  %2 = add i64 %0, 8, !insn.addr !783
  %3 = inttoptr i64 %2 to i64*, !insn.addr !784
  %4 = call i64 @_ZN4llvmneERKNS_14ilist_iteratorINS_12ilist_detail12node_optionsINS_9DbgRecordELb0ELb0EvLb0EvEELb0ELb0EEES7_(i64* %result, i64* %3), !insn.addr !784
  %5 = trunc i64 %4 to i8, !insn.addr !785
  %6 = icmp eq i8 %5, 0, !insn.addr !785
  br i1 %6, label %dec_label_pc_2880, label %dec_label_pc_284a, !insn.addr !786

dec_label_pc_2823:                                ; preds = %dec_label_pc_284a
  %7 = call i64 @_ZN4llvm21iterator_adaptor_baseINS_20filter_iterator_baseINS_14ilist_iteratorINS_12ilist_detail12node_optionsINS_9DbgRecordELb0ELb0EvLb0EvEELb0ELb0EEEZNS_L13filterDbgVarsENS_14iterator_rangeIS7_EEEUlRS5_E_St26bidirectional_iterator_tagEES7_SC_S5_lPS5_SA_EppEv(i64* %result), !insn.addr !787
  %8 = call i64 @_ZN4llvmneERKNS_14ilist_iteratorINS_12ilist_detail12node_optionsINS_9DbgRecordELb0ELb0EvLb0EvEELb0ELb0EEES7_(i64* %result, i64* %3), !insn.addr !784
  %9 = trunc i64 %8 to i8, !insn.addr !785
  %10 = icmp eq i8 %9, 0, !insn.addr !785
  br i1 %10, label %dec_label_pc_2880, label %dec_label_pc_284a, !insn.addr !786

dec_label_pc_284a:                                ; preds = %dec_label_pc_2814, %dec_label_pc_2823
  %11 = call i64 @_ZNK4llvm14ilist_iteratorINS_12ilist_detail12node_optionsINS_9DbgRecordELb0ELb0EvLb0EvEELb0ELb0EEdeEv(i64* %result), !insn.addr !788
  %12 = call i64 @_GLOBAL_OFFSET_TABLE_.1(i64 %1, i64 %11), !insn.addr !789
  %13 = trunc i64 %12 to i8
  %14 = icmp eq i8 %13, 1, !insn.addr !790
  br i1 %14, label %dec_label_pc_2880, label %dec_label_pc_2823, !insn.addr !791

dec_label_pc_2880:                                ; preds = %dec_label_pc_2823, %dec_label_pc_284a, %dec_label_pc_2814
  ret i64 0, !insn.addr !792

; uselistorder directives
  uselistorder i64* %3, { 1, 0 }
  uselistorder i64 %0, { 1, 0 }
  uselistorder i64 (i64*, i64*)* @_ZN4llvmneERKNS_14ilist_iteratorINS_12ilist_detail12node_optionsINS_9DbgRecordELb0ELb0EvLb0EvEELb0ELb0EEES7_, { 1, 0 }
  uselistorder i64* %result, { 2, 3, 1, 0, 4 }
  uselistorder label %dec_label_pc_2880, { 1, 0, 2 }
  uselistorder label %dec_label_pc_284a, { 1, 0 }
}

define i64 @_ZNK4llvm14iterator_rangeINS_20filter_iterator_implINS_14ilist_iteratorINS_12ilist_detail12node_optionsINS_9DbgRecordELb0ELb0EvLb0EvEELb0ELb0EEEZNS_L13filterDbgVarsENS0_IS7_EEEUlRS5_E_St26bidirectional_iterator_tagEEE5beginEv(i64* %this, i64* %result) local_unnamed_addr {
dec_label_pc_2888:
  %0 = ptrtoint i64* %result to i64
  %1 = ptrtoint i64* %this to i64
  %2 = add i64 %0, 8, !insn.addr !793
  %3 = inttoptr i64 %2 to i64*, !insn.addr !793
  %4 = load i64, i64* %3, align 8, !insn.addr !793
  store i64 %0, i64* %this, align 8, !insn.addr !794
  %5 = add i64 %1, 8, !insn.addr !795
  %6 = inttoptr i64 %5 to i64*, !insn.addr !795
  store i64 %4, i64* %6, align 8, !insn.addr !795
  %7 = add i64 %0, 16, !insn.addr !796
  %8 = inttoptr i64 %7 to i64*, !insn.addr !796
  %9 = load i64, i64* %8, align 8, !insn.addr !796
  %10 = add i64 %1, 16, !insn.addr !797
  %11 = inttoptr i64 %10 to i64*, !insn.addr !797
  store i64 %9, i64* %11, align 8, !insn.addr !797
  ret i64 %1, !insn.addr !798

; uselistorder directives
  uselistorder i64 %1, { 0, 2, 1 }
  uselistorder i64 %0, { 2, 0, 1 }
}

define i64 @_ZNSt8optionalIZN4llvmL13filterDbgVarsENS0_14iterator_rangeINS0_14ilist_iteratorINS0_12ilist_detail12node_optionsINS0_9DbgRecordELb0ELb0EvLb0EvEELb0ELb0EEEEEEUlRS5_E0_EC1IJRKSA_ELb0EEESt10in_place_tDpOT_(i64 %arg1, i64 %arg2) local_unnamed_addr {
dec_label_pc_28b8:
  %0 = inttoptr i64 %arg2 to i64*, !insn.addr !799
  %1 = call i64** @_ZSt7forwardIRKZN4llvmL13filterDbgVarsENS0_14iterator_rangeINS0_14ilist_iteratorINS0_12ilist_detail12node_optionsINS0_9DbgRecordELb0ELb0EvLb0EvEELb0ELb0EEEEEEUlRS5_E0_EOT_RNSt16remove_referenceISD_E4typeE(i64* %0), !insn.addr !799
  %2 = ptrtoint i64** %1 to i64, !insn.addr !799
  %3 = call i64 @_ZNSt14_Optional_baseIZN4llvmL13filterDbgVarsENS0_14iterator_rangeINS0_14ilist_iteratorINS0_12ilist_detail12node_optionsINS0_9DbgRecordELb0ELb0EvLb0EvEELb0ELb0EEEEEEUlRS5_E0_Lb1ELb1EEC2IJRKSA_ELb0EEESt10in_place_tDpOT_(i64 %arg1, i64 %2), !insn.addr !800
  ret i64 %3, !insn.addr !801
}

define i64 @_ZNK4llvm14iterator_rangeINS_20filter_iterator_implINS_14ilist_iteratorINS_12ilist_detail12node_optionsINS_9DbgRecordELb0ELb0EvLb0EvEELb0ELb0EEEZNS_L13filterDbgVarsENS0_IS7_EEEUlRS5_E_St26bidirectional_iterator_tagEEE3endEv(i64* %this, i64* %result) local_unnamed_addr {
dec_label_pc_28ec:
  %0 = ptrtoint i64* %result to i64
  %1 = ptrtoint i64* %this to i64
  %2 = add i64 %0, 24, !insn.addr !802
  %3 = inttoptr i64 %2 to i64*, !insn.addr !802
  %4 = load i64, i64* %3, align 8, !insn.addr !802
  %5 = add i64 %0, 32, !insn.addr !803
  %6 = inttoptr i64 %5 to i64*, !insn.addr !803
  %7 = load i64, i64* %6, align 8, !insn.addr !803
  store i64 %4, i64* %this, align 8, !insn.addr !804
  %8 = add i64 %1, 8, !insn.addr !805
  %9 = inttoptr i64 %8 to i64*, !insn.addr !805
  store i64 %7, i64* %9, align 8, !insn.addr !805
  %10 = add i64 %0, 40, !insn.addr !806
  %11 = inttoptr i64 %10 to i64*, !insn.addr !806
  %12 = load i64, i64* %11, align 8, !insn.addr !806
  %13 = add i64 %1, 16, !insn.addr !807
  %14 = inttoptr i64 %13 to i64*, !insn.addr !807
  store i64 %12, i64* %14, align 8, !insn.addr !807
  ret i64 %1, !insn.addr !808

; uselistorder directives
  uselistorder i64 %1, { 0, 2, 1 }
  uselistorder i64 %0, { 2, 1, 0 }
}

define i64* @_ZNKSt9_Any_data9_M_accessIZZ21llvmGetPassPluginInfoENKUlRN4llvm11PassBuilderEE_clES3_EUlNS1_9StringRefERNS1_11PassManagerINS1_6ModuleENS1_15AnalysisManagerIS7_JEEEJEEENS1_8ArrayRefINS2_15PipelineElementEEEE_EERKT_v(i64* %result) local_unnamed_addr {
dec_label_pc_291e:
  %0 = call i64 @_ZNKSt9_Any_data9_M_accessEv(i64* %result), !insn.addr !809
  %1 = inttoptr i64 %0 to i64*, !insn.addr !810
  ret i64* %1, !insn.addr !810
}

define i64* @_ZSt11__addressofIKZZ21llvmGetPassPluginInfoENKUlRN4llvm11PassBuilderEE_clES2_EUlNS0_9StringRefERNS0_11PassManagerINS0_6ModuleENS0_15AnalysisManagerIS6_JEEEJEEENS0_8ArrayRefINS1_15PipelineElementEEEE_EPT_RSG_(i64* %arg1) local_unnamed_addr {
dec_label_pc_2938:
  ret i64* %arg1, !insn.addr !811
}

define i64** @_ZSt7forwardIRZZ21llvmGetPassPluginInfoENKUlRN4llvm11PassBuilderEE_clES2_EUlNS0_9StringRefERNS0_11PassManagerINS0_6ModuleENS0_15AnalysisManagerIS6_JEEEJEEENS0_8ArrayRefINS1_15PipelineElementEEEE_EOT_RNSt16remove_referenceISG_E4typeE(i64* %arg1) local_unnamed_addr {
dec_label_pc_2946:
  %0 = bitcast i64* %arg1 to i64**, !insn.addr !812
  ret i64** %0, !insn.addr !812
}

define i1 @_ZSt13__invoke_implIbRZZ21llvmGetPassPluginInfoENKUlRN4llvm11PassBuilderEE_clES2_EUlNS0_9StringRefERNS0_11PassManagerINS0_6ModuleENS0_15AnalysisManagerIS6_JEEEJEEENS0_8ArrayRefINS1_15PipelineElementEEEE_JS4_SA_SD_EET_St14__invoke_otherOT0_DpOT1_(i64* %result, i64 %arg2, i64** %arg3, i64 %arg4) local_unnamed_addr {
dec_label_pc_2954:
  %0 = call i64** @_ZSt7forwardIRZZ21llvmGetPassPluginInfoENKUlRN4llvm11PassBuilderEE_clES2_EUlNS0_9StringRefERNS0_11PassManagerINS0_6ModuleENS0_15AnalysisManagerIS6_JEEEJEEENS0_8ArrayRefINS1_15PipelineElementEEEE_EOT_RNSt16remove_referenceISG_E4typeE(i64* %result), !insn.addr !813
  %1 = ptrtoint i64** %0 to i64, !insn.addr !813
  %2 = inttoptr i64 %arg4 to i64*, !insn.addr !814
  %3 = call i64* @_ZSt7forwardIN4llvm8ArrayRefINS0_11PassBuilder15PipelineElementEEEEOT_RNSt16remove_referenceIS5_E4typeE(i64* %2), !insn.addr !814
  %4 = ptrtoint i64* %3 to i64, !insn.addr !814
  %5 = bitcast i64** %arg3 to i64*, !insn.addr !815
  %6 = call i64** @_ZSt7forwardIRN4llvm11PassManagerINS0_6ModuleENS0_15AnalysisManagerIS2_JEEEJEEEEOT_RNSt16remove_referenceIS7_E4typeE(i64* %5), !insn.addr !815
  %7 = ptrtoint i64** %6 to i64, !insn.addr !815
  %8 = inttoptr i64 %arg2 to i64*, !insn.addr !816
  %9 = call i64* @_ZSt7forwardIN4llvm9StringRefEEOT_RNSt16remove_referenceIS2_E4typeE(i64* %8), !insn.addr !816
  %10 = ptrtoint i64* %9 to i64, !insn.addr !816
  %11 = load i64, i64* %3, align 8, !insn.addr !817
  %12 = add i64 %4, 8, !insn.addr !818
  %13 = inttoptr i64 %12 to i64*, !insn.addr !818
  %14 = load i64, i64* %13, align 8, !insn.addr !818
  %15 = load i64, i64* %9, align 8, !insn.addr !819
  %16 = add i64 %10, 8, !insn.addr !820
  %17 = inttoptr i64 %16 to i64*, !insn.addr !820
  %18 = load i64, i64* %17, align 8, !insn.addr !820
  %19 = call i64 @_ZZZ21llvmGetPassPluginInfoENKUlRN4llvm11PassBuilderEE_clES1_ENKUlNS_9StringRefERNS_11PassManagerINS_6ModuleENS_15AnalysisManagerIS5_JEEEJEEENS_8ArrayRefINS0_15PipelineElementEEEE_clES3_S9_SC_(i64 %1, i64 %15, i64 %18, i64 %7, i64 %11, i64 %14), !insn.addr !821
  %20 = urem i64 %19, 2
  %21 = icmp ne i64 %20, 0, !insn.addr !822
  ret i1 %21, !insn.addr !822

; uselistorder directives
  uselistorder i64** (i64*)* @_ZSt7forwardIRN4llvm11PassManagerINS0_6ModuleENS0_15AnalysisManagerIS2_JEEEJEEEEOT_RNSt16remove_referenceIS7_E4typeE, { 2, 1, 0 }
  uselistorder i64* (i64*)* @_ZSt7forwardIN4llvm8ArrayRefINS0_11PassBuilder15PipelineElementEEEEOT_RNSt16remove_referenceIS5_E4typeE, { 2, 1, 0 }
  uselistorder i64** (i64*)* @_ZSt7forwardIRZZ21llvmGetPassPluginInfoENKUlRN4llvm11PassBuilderEE_clES2_EUlNS0_9StringRefERNS0_11PassManagerINS0_6ModuleENS0_15AnalysisManagerIS6_JEEEJEEENS0_8ArrayRefINS1_15PipelineElementEEEE_EOT_RNSt16remove_referenceISG_E4typeE, { 1, 0 }
}

define void @_ZNSt14_Function_base13_Base_managerIZZ21llvmGetPassPluginInfoENKUlRN4llvm11PassBuilderEE_clES3_EUlNS1_9StringRefERNS1_11PassManagerINS1_6ModuleENS1_15AnalysisManagerIS7_JEEEJEEENS1_8ArrayRefINS2_15PipelineElementEEEE_E15_M_init_functorIRKSF_EEvRSt9_Any_dataOT_(i64* %arg1, i64** %arg2) local_unnamed_addr {
dec_label_pc_29da:
  %0 = bitcast i64** %arg2 to i64*
  %1 = call i64** @_ZSt7forwardIRKZZ21llvmGetPassPluginInfoENKUlRN4llvm11PassBuilderEE_clES2_EUlNS0_9StringRefERNS0_11PassManagerINS0_6ModuleENS0_15AnalysisManagerIS6_JEEEJEEENS0_8ArrayRefINS1_15PipelineElementEEEE_EOT_RNSt16remove_referenceISH_E4typeE(i64* %0), !insn.addr !823
  call void @_ZNSt14_Function_base13_Base_managerIZZ21llvmGetPassPluginInfoENKUlRN4llvm11PassBuilderEE_clES3_EUlNS1_9StringRefERNS1_11PassManagerINS1_6ModuleENS1_15AnalysisManagerIS7_JEEEJEEENS1_8ArrayRefINS2_15PipelineElementEEEE_E9_M_createIRKSF_EEvRSt9_Any_dataOT_St17integral_constantIbLb1EE(i64* %arg1, i64** %1, i64 ptrtoint (i32* @0 to i64)), !insn.addr !824
  ret void, !insn.addr !825
}

define i64 @_ZNSt14_Function_base13_Base_managerIZZ21llvmGetPassPluginInfoENKUlRN4llvm11PassBuilderEE_clES3_EUlNS1_9StringRefERNS1_11PassManagerINS1_6ModuleENS1_15AnalysisManagerIS7_JEEEJEEENS1_8ArrayRefINS2_15PipelineElementEEEE_E10_M_destroyERSt9_Any_dataSt17integral_constantIbLb1EE(i64* %arg1, i64 %arg2) local_unnamed_addr {
dec_label_pc_2a0b:
  %0 = call i64* @_ZNSt9_Any_data9_M_accessIZZ21llvmGetPassPluginInfoENKUlRN4llvm11PassBuilderEE_clES3_EUlNS1_9StringRefERNS1_11PassManagerINS1_6ModuleENS1_15AnalysisManagerIS7_JEEEJEEENS1_8ArrayRefINS2_15PipelineElementEEEE_EERT_v(i64* %arg1), !insn.addr !826
  %1 = ptrtoint i64* %0 to i64, !insn.addr !826
  ret i64 %1, !insn.addr !827
}

define i64 @_ZN4llvm21iterator_adaptor_baseINS_20filter_iterator_baseINS_14ilist_iteratorINS_12ilist_detail12node_optionsINS_9DbgRecordELb0ELb0EvLb0EvEELb0ELb0EEEZNS_L13filterDbgVarsENS_14iterator_rangeIS7_EEEUlRS5_E_St26bidirectional_iterator_tagEES7_SC_S5_lPS5_SA_EppEv(i64* %result) local_unnamed_addr {
dec_label_pc_2a26:
  %0 = ptrtoint i64* %result to i64
  %1 = call i64 @_ZN4llvm14ilist_iteratorINS_12ilist_detail12node_optionsINS_9DbgRecordELb0ELb0EvLb0EvEELb0ELb0EEppEv(i64* %result), !insn.addr !828
  ret i64 %0, !insn.addr !829
}

define i64** @_ZSt7forwardIRKZN4llvmL13filterDbgVarsENS0_14iterator_rangeINS0_14ilist_iteratorINS0_12ilist_detail12node_optionsINS0_9DbgRecordELb0ELb0EvLb0EvEELb0ELb0EEEEEEUlRS5_E0_EOT_RNSt16remove_referenceISD_E4typeE(i64* %arg1) local_unnamed_addr {
dec_label_pc_2a44:
  %0 = bitcast i64* %arg1 to i64**, !insn.addr !830
  ret i64** %0, !insn.addr !830
}

define i64 @_ZNSt17_Optional_payloadIZN4llvmL13filterDbgVarsENS0_14iterator_rangeINS0_14ilist_iteratorINS0_12ilist_detail12node_optionsINS0_9DbgRecordELb0ELb0EvLb0EvEELb0ELb0EEEEEEUlRS5_E0_Lb1ELb0ELb0EECI1St22_Optional_payload_baseISA_EIJRKSA_EEESt10in_place_tDpOT_(i64 %arg1, i64 %arg2) local_unnamed_addr {
dec_label_pc_2a52:
  %0 = call i64 @_ZNSt22_Optional_payload_baseIZN4llvmL13filterDbgVarsENS0_14iterator_rangeINS0_14ilist_iteratorINS0_12ilist_detail12node_optionsINS0_9DbgRecordELb0ELb0EvLb0EvEELb0ELb0EEEEEEUlRS5_E0_EC2IJRKSA_EEESt10in_place_tDpOT_(i64 %arg1, i64 %arg2), !insn.addr !831
  ret i64 %0, !insn.addr !832
}

define i64 @_ZNSt14_Optional_baseIZN4llvmL13filterDbgVarsENS0_14iterator_rangeINS0_14ilist_iteratorINS0_12ilist_detail12node_optionsINS0_9DbgRecordELb0ELb0EvLb0EvEELb0ELb0EEEEEEUlRS5_E0_Lb1ELb1EEC2IJRKSA_ELb0EEESt10in_place_tDpOT_(i64 %arg1, i64 %arg2) local_unnamed_addr {
dec_label_pc_2a78:
  %0 = inttoptr i64 %arg2 to i64*, !insn.addr !833
  %1 = call i64** @_ZSt7forwardIRKZN4llvmL13filterDbgVarsENS0_14iterator_rangeINS0_14ilist_iteratorINS0_12ilist_detail12node_optionsINS0_9DbgRecordELb0ELb0EvLb0EvEELb0ELb0EEEEEEUlRS5_E0_EOT_RNSt16remove_referenceISD_E4typeE(i64* %0), !insn.addr !833
  %2 = ptrtoint i64** %1 to i64, !insn.addr !833
  %3 = call i64 @_ZNSt17_Optional_payloadIZN4llvmL13filterDbgVarsENS0_14iterator_rangeINS0_14ilist_iteratorINS0_12ilist_detail12node_optionsINS0_9DbgRecordELb0ELb0EvLb0EvEELb0ELb0EEEEEEUlRS5_E0_Lb1ELb0ELb0EECI1St22_Optional_payload_baseISA_EIJRKSA_EEESt10in_place_tDpOT_(i64 %arg1, i64 %2), !insn.addr !834
  ret i64 %3, !insn.addr !835
}

define i64** @_ZSt7forwardIRKZZ21llvmGetPassPluginInfoENKUlRN4llvm11PassBuilderEE_clES2_EUlNS0_9StringRefERNS0_11PassManagerINS0_6ModuleENS0_15AnalysisManagerIS6_JEEEJEEENS0_8ArrayRefINS1_15PipelineElementEEEE_EOT_RNSt16remove_referenceISH_E4typeE(i64* %arg1) local_unnamed_addr {
dec_label_pc_2aab:
  %0 = bitcast i64* %arg1 to i64**, !insn.addr !836
  ret i64** %0, !insn.addr !836
}

define void @_ZNSt14_Function_base13_Base_managerIZZ21llvmGetPassPluginInfoENKUlRN4llvm11PassBuilderEE_clES3_EUlNS1_9StringRefERNS1_11PassManagerINS1_6ModuleENS1_15AnalysisManagerIS7_JEEEJEEENS1_8ArrayRefINS2_15PipelineElementEEEE_E9_M_createIRKSF_EEvRSt9_Any_dataOT_St17integral_constantIbLb1EE(i64* %arg1, i64** %arg2, i64 %arg3) local_unnamed_addr {
dec_label_pc_2ab9:
  %0 = call i64 @_ZNSt9_Any_data9_M_accessEv(i64* %arg1), !insn.addr !837
  %1 = inttoptr i64 %0 to i64*, !insn.addr !838
  %2 = call i64 @_ZnwmPv(i64 1, i64* %1), !insn.addr !838
  %3 = bitcast i64** %arg2 to i64*
  %4 = call i64** @_ZSt7forwardIRKZZ21llvmGetPassPluginInfoENKUlRN4llvm11PassBuilderEE_clES2_EUlNS0_9StringRefERNS0_11PassManagerINS0_6ModuleENS0_15AnalysisManagerIS6_JEEEJEEENS0_8ArrayRefINS1_15PipelineElementEEEE_EOT_RNSt16remove_referenceISH_E4typeE(i64* %3), !insn.addr !839
  ret void, !insn.addr !840

; uselistorder directives
  uselistorder i64** (i64*)* @_ZSt7forwardIRKZZ21llvmGetPassPluginInfoENKUlRN4llvm11PassBuilderEE_clES2_EUlNS0_9StringRefERNS0_11PassManagerINS0_6ModuleENS0_15AnalysisManagerIS6_JEEEJEEENS0_8ArrayRefINS1_15PipelineElementEEEE_EOT_RNSt16remove_referenceISH_E4typeE, { 1, 0 }
}

define i64* @_ZNSt9_Any_data9_M_accessIZZ21llvmGetPassPluginInfoENKUlRN4llvm11PassBuilderEE_clES3_EUlNS1_9StringRefERNS1_11PassManagerINS1_6ModuleENS1_15AnalysisManagerIS7_JEEEJEEENS1_8ArrayRefINS2_15PipelineElementEEEE_EERT_v(i64* %result) local_unnamed_addr {
dec_label_pc_2af2:
  %0 = call i64 @_ZNSt9_Any_data9_M_accessEv(i64* %result), !insn.addr !841
  %1 = inttoptr i64 %0 to i64*, !insn.addr !842
  ret i64* %1, !insn.addr !842
}

define i64 @_ZNSt22_Optional_payload_baseIZN4llvmL13filterDbgVarsENS0_14iterator_rangeINS0_14ilist_iteratorINS0_12ilist_detail12node_optionsINS0_9DbgRecordELb0ELb0EvLb0EvEELb0ELb0EEEEEEUlRS5_E0_EC2IJRKSA_EEESt10in_place_tDpOT_(i64 %arg1, i64 %arg2) local_unnamed_addr {
dec_label_pc_2b0c:
  %0 = inttoptr i64 %arg2 to i64*, !insn.addr !843
  %1 = call i64** @_ZSt7forwardIRKZN4llvmL13filterDbgVarsENS0_14iterator_rangeINS0_14ilist_iteratorINS0_12ilist_detail12node_optionsINS0_9DbgRecordELb0ELb0EvLb0EvEELb0ELb0EEEEEEUlRS5_E0_EOT_RNSt16remove_referenceISD_E4typeE(i64* %0), !insn.addr !843
  %2 = ptrtoint i64** %1 to i64, !insn.addr !843
  %3 = call i64 @_ZNSt22_Optional_payload_baseIZN4llvmL13filterDbgVarsENS0_14iterator_rangeINS0_14ilist_iteratorINS0_12ilist_detail12node_optionsINS0_9DbgRecordELb0ELb0EvLb0EvEELb0ELb0EEEEEEUlRS5_E0_E8_StorageISA_Lb1EEC1IJRKSA_EEESt10in_place_tDpOT_(i64 %arg1, i64 %2), !insn.addr !844
  %4 = add i64 %arg1, 1, !insn.addr !845
  %5 = inttoptr i64 %4 to i8*, !insn.addr !845
  store i8 1, i8* %5, align 1, !insn.addr !845
  ret i64 %arg1, !insn.addr !846

; uselistorder directives
  uselistorder i64 %arg1, { 1, 0, 2 }
}

define i64 @_ZNSt22_Optional_payload_baseIZN4llvmL13filterDbgVarsENS0_14iterator_rangeINS0_14ilist_iteratorINS0_12ilist_detail12node_optionsINS0_9DbgRecordELb0ELb0EvLb0EvEELb0ELb0EEEEEEUlRS5_E0_E8_StorageISA_Lb1EEC1IJRKSA_EEESt10in_place_tDpOT_(i64 %arg1, i64 %arg2) local_unnamed_addr {
dec_label_pc_2b48:
  %0 = inttoptr i64 %arg2 to i64*, !insn.addr !847
  %1 = call i64** @_ZSt7forwardIRKZN4llvmL13filterDbgVarsENS0_14iterator_rangeINS0_14ilist_iteratorINS0_12ilist_detail12node_optionsINS0_9DbgRecordELb0ELb0EvLb0EvEELb0ELb0EEEEEEUlRS5_E0_EOT_RNSt16remove_referenceISD_E4typeE(i64* %0), !insn.addr !847
  %2 = ptrtoint i64** %1 to i64, !insn.addr !847
  ret i64 %2, !insn.addr !848

; uselistorder directives
  uselistorder i64** (i64*)* @_ZSt7forwardIRKZN4llvmL13filterDbgVarsENS0_14iterator_rangeINS0_14ilist_iteratorINS0_12ilist_detail12node_optionsINS0_9DbgRecordELb0ELb0EvLb0EvEELb0ELb0EEEEEEUlRS5_E0_EOT_RNSt16remove_referenceISD_E4typeE, { 3, 2, 1, 0 }
}

define i64 @_ZSt23__is_constant_evaluatedv() local_unnamed_addr {
dec_label_pc_2b67:
  ret i64 0, !insn.addr !849
}

define i64 @_ZnwmPv(i64 %arg1, i64* %arg2) local_unnamed_addr {
dec_label_pc_2b76:
  %0 = ptrtoint i64* %arg2 to i64
  ret i64 %0, !insn.addr !850
}

define i64 @_ZN4llvm8maxUIntNEm(i64 %arg1) local_unnamed_addr {
dec_label_pc_5a8b:
  %storemerge1.reg2mem = alloca i64, !insn.addr !851
  %0 = icmp ugt i64 %arg1, ptrtoint (i128** @global_var_40 to i64)
  br i1 %0, label %dec_label_pc_5aca.thread, label %dec_label_pc_5aca, !insn.addr !852

dec_label_pc_5aca.thread:                         ; preds = %dec_label_pc_5a8b
  %1 = call i64 @__assert_fail(i64 ptrtoint ([40 x i8]* @global_var_2db0 to i64), i64 ptrtoint ([47 x i8]* @global_var_2d80 to i64), i64 221, i64 ptrtoint ([44 x i8]* @global_var_2d50 to i64)), !insn.addr !853
  br label %dec_label_pc_5ad8

dec_label_pc_5aca:                                ; preds = %dec_label_pc_5a8b
  %2 = icmp eq i64 %arg1, 0, !insn.addr !854
  %3 = icmp eq i1 %2, false, !insn.addr !855
  store i64 0, i64* %storemerge1.reg2mem, !insn.addr !855
  br i1 %3, label %dec_label_pc_5ad8, label %dec_label_pc_5af4, !insn.addr !855

dec_label_pc_5ad8:                                ; preds = %dec_label_pc_5aca.thread, %dec_label_pc_5aca
  %4 = sub i64 zext (i8 ptrtoint (i128** @global_var_40 to i8) to i64), %arg1, !insn.addr !856
  %5 = and i64 %4, and (i64 ptrtoint ([3 x i8]* @global_var_3f to i64), i64 255), !insn.addr !857
  %6 = lshr i64 -1, %5
  store i64 %6, i64* %storemerge1.reg2mem, !insn.addr !858
  br label %dec_label_pc_5af4, !insn.addr !858

dec_label_pc_5af4:                                ; preds = %dec_label_pc_5aca, %dec_label_pc_5ad8
  %storemerge1.reload = load i64, i64* %storemerge1.reg2mem
  ret i64 %storemerge1.reload, !insn.addr !859

; uselistorder directives
  uselistorder i64* %storemerge1.reg2mem, { 0, 2, 1 }
  uselistorder i64 %arg1, { 1, 0, 2 }
  uselistorder label %dec_label_pc_5af4, { 1, 0 }
  uselistorder label %dec_label_pc_5ad8, { 1, 0 }
}

define i64 @_ZN4llvm7minIntNEl(i32 %arg1) local_unnamed_addr {
dec_label_pc_5af6:
  %storemerge2.reg2mem = alloca i64, !insn.addr !860
  %0 = sext i32 %arg1 to i64
  %1 = icmp sgt i64 %0, ptrtoint (i128** @global_var_40 to i64), !insn.addr !861
  br i1 %1, label %dec_label_pc_5b0d, label %dec_label_pc_5b35, !insn.addr !861

dec_label_pc_5b0d:                                ; preds = %dec_label_pc_5af6
  %2 = call i64 @__assert_fail(i64 ptrtoint ([40 x i8]* @global_var_2db0 to i64), i64 ptrtoint ([47 x i8]* @global_var_2d80 to i64), i64 237, i64 ptrtoint ([41 x i8]* @global_var_2dd8 to i64)), !insn.addr !862
  br label %dec_label_pc_5b35, !insn.addr !862

dec_label_pc_5b35:                                ; preds = %dec_label_pc_5af6, %dec_label_pc_5b0d
  %3 = icmp eq i32 %arg1, 0, !insn.addr !863
  %4 = icmp eq i1 %3, false, !insn.addr !864
  store i64 0, i64* %storemerge2.reg2mem, !insn.addr !864
  br i1 %4, label %dec_label_pc_5b43, label %dec_label_pc_5b5a, !insn.addr !864

dec_label_pc_5b43:                                ; preds = %dec_label_pc_5b35
  %5 = add i32 %arg1, 255
  %6 = zext i32 %5 to i64, !insn.addr !865
  %7 = and i64 %6, and (i64 ptrtoint ([3 x i8]* @global_var_3f to i64), i64 255), !insn.addr !865
  %phitmp = shl i64 -1, %7
  store i64 %phitmp, i64* %storemerge2.reg2mem, !insn.addr !866
  br label %dec_label_pc_5b5a, !insn.addr !866

dec_label_pc_5b5a:                                ; preds = %dec_label_pc_5b35, %dec_label_pc_5b43
  %storemerge2.reload = load i64, i64* %storemerge2.reg2mem
  ret i64 %storemerge2.reload, !insn.addr !867

; uselistorder directives
  uselistorder i64* %storemerge2.reg2mem, { 0, 2, 1 }
  uselistorder i32 %arg1, { 1, 0, 2 }
  uselistorder label %dec_label_pc_5b5a, { 1, 0 }
  uselistorder label %dec_label_pc_5b35, { 1, 0 }
}

define i64 @_ZN4llvm7maxIntNEl(i32 %arg1) local_unnamed_addr {
dec_label_pc_5b5c:
  %storemerge2.reg2mem = alloca i64, !insn.addr !868
  %0 = sext i32 %arg1 to i64
  %1 = icmp sgt i64 %0, ptrtoint (i128** @global_var_40 to i64), !insn.addr !869
  br i1 %1, label %dec_label_pc_5b73, label %dec_label_pc_5b9b, !insn.addr !869

dec_label_pc_5b73:                                ; preds = %dec_label_pc_5b5c
  %2 = call i64 @__assert_fail(i64 ptrtoint ([40 x i8]* @global_var_2db0 to i64), i64 ptrtoint ([47 x i8]* @global_var_2d80 to i64), i64 246, i64 ptrtoint ([41 x i8]* @global_var_2e08 to i64)), !insn.addr !870
  br label %dec_label_pc_5b9b, !insn.addr !870

dec_label_pc_5b9b:                                ; preds = %dec_label_pc_5b5c, %dec_label_pc_5b73
  %3 = icmp eq i32 %arg1, 0, !insn.addr !871
  %4 = icmp eq i1 %3, false, !insn.addr !872
  store i64 0, i64* %storemerge2.reg2mem, !insn.addr !872
  br i1 %4, label %dec_label_pc_5ba9, label %dec_label_pc_5bc1, !insn.addr !872

dec_label_pc_5ba9:                                ; preds = %dec_label_pc_5b9b
  %5 = add i32 %arg1, 255
  %6 = zext i32 %5 to i64, !insn.addr !873
  %7 = and i64 %6, and (i64 ptrtoint ([3 x i8]* @global_var_3f to i64), i64 255), !insn.addr !873
  %8 = icmp eq i64 %7, 0, !insn.addr !873
  %notmask = shl nsw i64 -1, %7
  %9 = sub i64 0, %notmask
  %phitmp = sub i64 %9, 1
  %storemerge = select i1 %8, i64 0, i64 %phitmp
  store i64 %storemerge, i64* %storemerge2.reg2mem
  br label %dec_label_pc_5bc1

dec_label_pc_5bc1:                                ; preds = %dec_label_pc_5ba9, %dec_label_pc_5b9b
  %storemerge2.reload = load i64, i64* %storemerge2.reg2mem
  ret i64 %storemerge2.reload, !insn.addr !874

; uselistorder directives
  uselistorder i32 %arg1, { 1, 0, 2 }
  uselistorder label %dec_label_pc_5b9b, { 1, 0 }
}

define i64 @_ZN4llvm7isUIntNEjm(i32 %arg1, i64 %arg2) local_unnamed_addr {
dec_label_pc_5bc3:
  %0 = icmp ugt i32 %arg1, ptrtoint ([3 x i8]* @global_var_3f to i32)
  br i1 %0, label %dec_label_pc_5bf9, label %dec_label_pc_5bdc, !insn.addr !875

dec_label_pc_5bdc:                                ; preds = %dec_label_pc_5bc3
  %1 = zext i32 %arg1 to i64, !insn.addr !876
  %2 = call i64 @_ZN4llvm8maxUIntNEm(i64 %1), !insn.addr !877
  %3 = icmp uge i64 %2, %arg2, !insn.addr !878
  %spec.select = zext i1 %3 to i64
  ret i64 %spec.select

dec_label_pc_5bf9:                                ; preds = %dec_label_pc_5bc3
  ret i64 1, !insn.addr !879
}

define i64 @_ZN4llvm6isIntNEjl(i32 %arg1, i32 %arg2) local_unnamed_addr {
dec_label_pc_5bfb:
  %storemerge.reg2mem = alloca i64, !insn.addr !880
  %0 = icmp ugt i32 %arg1, ptrtoint ([3 x i8]* @global_var_3f to i32)
  store i64 1, i64* %storemerge.reg2mem, !insn.addr !881
  br i1 %0, label %dec_label_pc_5c42, label %dec_label_pc_5c14, !insn.addr !881

dec_label_pc_5c14:                                ; preds = %dec_label_pc_5bfb
  %1 = call i64 @_ZN4llvm7minIntNEl(i32 %arg1), !insn.addr !882
  %2 = sext i32 %arg2 to i64, !insn.addr !883
  %3 = icmp sgt i64 %1, %2, !insn.addr !884
  br i1 %3, label %dec_label_pc_5c3d, label %dec_label_pc_5c25, !insn.addr !884

dec_label_pc_5c25:                                ; preds = %dec_label_pc_5c14
  %4 = call i64 @_ZN4llvm7maxIntNEl(i32 %arg1), !insn.addr !885
  %5 = icmp slt i64 %4, %2, !insn.addr !886
  store i64 1, i64* %storemerge.reg2mem, !insn.addr !886
  br i1 %5, label %dec_label_pc_5c3d, label %dec_label_pc_5c42, !insn.addr !886

dec_label_pc_5c3d:                                ; preds = %dec_label_pc_5c25, %dec_label_pc_5c14
  store i64 0, i64* %storemerge.reg2mem, !insn.addr !887
  br label %dec_label_pc_5c42, !insn.addr !887

dec_label_pc_5c42:                                ; preds = %dec_label_pc_5c25, %dec_label_pc_5bfb, %dec_label_pc_5c3d
  %storemerge.reload = load i64, i64* %storemerge.reg2mem
  ret i64 %storemerge.reload, !insn.addr !888

; uselistorder directives
  uselistorder i64* %storemerge.reg2mem, { 0, 3, 1, 2 }
  uselistorder label %dec_label_pc_5c42, { 2, 0, 1 }
}

define i64 @_ZN4llvm12SignExtend64Emj(i64 %arg1, i32 %arg2) local_unnamed_addr {
dec_label_pc_5c44:
  %storemerge1.reg2mem = alloca i64, !insn.addr !889
  %0 = icmp ugt i32 %arg2, ptrtoint (i128** @global_var_40 to i32)
  br i1 %0, label %dec_label_pc_5c85.thread, label %dec_label_pc_5c85, !insn.addr !890

dec_label_pc_5c85.thread:                         ; preds = %dec_label_pc_5c44
  %1 = call i64 @__assert_fail(i64 ptrtoint ([37 x i8]* @global_var_2e70 to i64), i64 ptrtoint ([47 x i8]* @global_var_2d80 to i64), i64 591, i64 ptrtoint ([51 x i8]* @global_var_2e38 to i64)), !insn.addr !891
  br label %dec_label_pc_5c92

dec_label_pc_5c85:                                ; preds = %dec_label_pc_5c44
  %2 = icmp eq i32 %arg2, 0, !insn.addr !892
  %3 = icmp eq i1 %2, false, !insn.addr !893
  store i64 0, i64* %storemerge1.reg2mem, !insn.addr !893
  br i1 %3, label %dec_label_pc_5c92, label %dec_label_pc_5cb9, !insn.addr !893

dec_label_pc_5c92:                                ; preds = %dec_label_pc_5c85.thread, %dec_label_pc_5c85
  %4 = zext i32 %arg2 to i64
  %5 = sub nsw i64 zext (i8 ptrtoint (i128** @global_var_40 to i8) to i64), %4, !insn.addr !894
  %6 = and i64 %5, and (i64 ptrtoint ([3 x i8]* @global_var_3f to i64), i64 255), !insn.addr !894
  %7 = shl i64 %arg1, %6
  %8 = ashr i64 %7, %6
  store i64 %8, i64* %storemerge1.reg2mem, !insn.addr !895
  br label %dec_label_pc_5cb9, !insn.addr !895

dec_label_pc_5cb9:                                ; preds = %dec_label_pc_5c85, %dec_label_pc_5c92
  %storemerge1.reload = load i64, i64* %storemerge1.reg2mem
  ret i64 %storemerge1.reload, !insn.addr !896

; uselistorder directives
  uselistorder i64* %storemerge1.reg2mem, { 0, 2, 1 }
  uselistorder i32 %arg2, { 1, 0, 2 }
  uselistorder label %dec_label_pc_5cb9, { 1, 0 }
  uselistorder label %dec_label_pc_5c92, { 1, 0 }
}

define i64 @_ZN4llvm5APIntC1Ejmbb(i64* %result, i32 %arg2, i64 %arg3, i1 %arg4, i1 %arg5) local_unnamed_addr {
dec_label_pc_5cbc:
  %rax.0.reg2mem = alloca i64, !insn.addr !897
  %.reg2mem10 = alloca i32, !insn.addr !897
  %.reg2mem8 = alloca i32, !insn.addr !897
  %.reg2mem = alloca i32, !insn.addr !897
  %0 = ptrtoint i64* %result to i64
  %1 = add i64 %0, 8, !insn.addr !898
  %2 = inttoptr i64 %1 to i32*, !insn.addr !898
  store i32 %arg2, i32* %2, align 4, !insn.addr !898
  %3 = icmp eq i1 %arg4, false, !insn.addr !899
  store i32 %arg2, i32* %.reg2mem8, !insn.addr !900
  br i1 %3, label %dec_label_pc_5d91, label %dec_label_pc_5d03, !insn.addr !900

dec_label_pc_5d03:                                ; preds = %dec_label_pc_5cbc
  %4 = icmp eq i32 %arg2, 0, !insn.addr !901
  %5 = icmp eq i1 %4, false, !insn.addr !902
  store i32 %arg2, i32* %.reg2mem, !insn.addr !902
  br i1 %5, label %dec_label_pc_5d4c, label %dec_label_pc_5d0e, !insn.addr !902

dec_label_pc_5d0e:                                ; preds = %dec_label_pc_5d03
  %6 = add i64 %arg3, 1
  %7 = icmp ult i64 %6, 2
  br i1 %7, label %dec_label_pc_5e0c, label %dec_label_pc_5d24, !insn.addr !903

dec_label_pc_5d24:                                ; preds = %dec_label_pc_5d0e
  %8 = call i64 @__assert_fail(i64 ptrtoint ([84 x i8]* @global_var_2ef8 to i64), i64 ptrtoint ([38 x i8]* @global_var_2ed0 to i64), i64 117, i64 ptrtoint ([55 x i8]* @global_var_2e98 to i64)), !insn.addr !904
  %.pre = load i32, i32* %2, align 4
  store i32 %.pre, i32* %.reg2mem, !insn.addr !904
  br label %dec_label_pc_5d4c, !insn.addr !904

dec_label_pc_5d4c:                                ; preds = %dec_label_pc_5d24, %dec_label_pc_5d03
  %.reload = load i32, i32* %.reg2mem, !insn.addr !905
  %9 = trunc i64 %arg3 to i32, !insn.addr !906
  %10 = call i64 @_ZN4llvm6isIntNEjl(i32 %.reload, i32 %9), !insn.addr !906
  %11 = trunc i64 %10 to i8, !insn.addr !907
  %12 = icmp eq i8 %11, 0, !insn.addr !907
  %13 = icmp eq i1 %12, false, !insn.addr !908
  br i1 %13, label %dec_label_pc_5e0c, label %dec_label_pc_5d69, !insn.addr !908

dec_label_pc_5d69:                                ; preds = %dec_label_pc_5d4c
  %14 = call i64 @__assert_fail(i64 ptrtoint ([68 x i8]* @global_var_2f50 to i64), i64 ptrtoint ([38 x i8]* @global_var_2ed0 to i64), i64 120, i64 ptrtoint ([55 x i8]* @global_var_2e98 to i64)), !insn.addr !909
  %.pre6 = load i32, i32* %2, align 4
  store i32 %.pre6, i32* %.reg2mem8, !insn.addr !909
  br label %dec_label_pc_5d91, !insn.addr !909

dec_label_pc_5d91:                                ; preds = %dec_label_pc_5d69, %dec_label_pc_5cbc
  %.reload9 = load i32, i32* %.reg2mem8, !insn.addr !910
  %15 = icmp eq i32 %.reload9, 0, !insn.addr !911
  %16 = icmp eq i1 %15, false, !insn.addr !912
  store i32 %.reload9, i32* %.reg2mem10, !insn.addr !912
  br i1 %16, label %dec_label_pc_5dcb, label %dec_label_pc_5d9c, !insn.addr !912

dec_label_pc_5d9c:                                ; preds = %dec_label_pc_5d91
  %17 = icmp eq i64 %arg3, 0, !insn.addr !913
  br i1 %17, label %dec_label_pc_5e0c, label %dec_label_pc_5da3, !insn.addr !914

dec_label_pc_5da3:                                ; preds = %dec_label_pc_5d9c
  %18 = call i64 @__assert_fail(i64 ptrtoint ([58 x i8]* @global_var_2f98 to i64), i64 ptrtoint ([38 x i8]* @global_var_2ed0 to i64), i64 125, i64 ptrtoint ([55 x i8]* @global_var_2e98 to i64)), !insn.addr !915
  %.pre7 = load i32, i32* %2, align 4
  store i32 %.pre7, i32* %.reg2mem10, !insn.addr !915
  br label %dec_label_pc_5dcb, !insn.addr !915

dec_label_pc_5dcb:                                ; preds = %dec_label_pc_5da3, %dec_label_pc_5d91
  %.reload11 = load i32, i32* %.reg2mem10, !insn.addr !916
  %19 = call i64 @_ZN4llvm7isUIntNEjm(i32 %.reload11, i64 %arg3), !insn.addr !917
  %20 = trunc i64 %19 to i8, !insn.addr !918
  %21 = icmp eq i8 %20, 0, !insn.addr !918
  %22 = icmp eq i1 %21, false, !insn.addr !919
  br i1 %22, label %dec_label_pc_5e0c, label %dec_label_pc_5de4, !insn.addr !919

dec_label_pc_5de4:                                ; preds = %dec_label_pc_5dcb
  %23 = call i64 @__assert_fail(i64 ptrtoint ([71 x i8]* @global_var_2fd8 to i64), i64 ptrtoint ([38 x i8]* @global_var_2ed0 to i64), i64 127, i64 ptrtoint ([55 x i8]* @global_var_2e98 to i64)), !insn.addr !920
  br label %dec_label_pc_5e0c, !insn.addr !920

dec_label_pc_5e0c:                                ; preds = %dec_label_pc_5de4, %dec_label_pc_5dcb, %dec_label_pc_5d9c, %dec_label_pc_5d4c, %dec_label_pc_5d0e
  %24 = call i64 @_ZNK4llvm5APInt12isSingleWordEv(i64* %result), !insn.addr !921
  %25 = trunc i64 %24 to i8, !insn.addr !922
  %26 = icmp eq i8 %25, 0, !insn.addr !922
  br i1 %26, label %dec_label_pc_5e41, label %dec_label_pc_5e1c, !insn.addr !923

dec_label_pc_5e1c:                                ; preds = %dec_label_pc_5e0c
  store i64 %arg3, i64* %result, align 8, !insn.addr !924
  %27 = or i1 %arg4, %arg5
  %28 = icmp eq i1 %27, false
  store i64 %0, i64* %rax.0.reg2mem, !insn.addr !925
  br i1 %28, label %dec_label_pc_5e58, label %dec_label_pc_5e33, !insn.addr !925

dec_label_pc_5e33:                                ; preds = %dec_label_pc_5e1c
  %29 = call i64 @_ZN4llvm5APInt15clearUnusedBitsEv(i64* nonnull %result), !insn.addr !926
  store i64 %29, i64* %rax.0.reg2mem, !insn.addr !927
  br label %dec_label_pc_5e58, !insn.addr !927

dec_label_pc_5e41:                                ; preds = %dec_label_pc_5e0c
  %30 = call i64 @_ZN4llvm5APInt12initSlowCaseEmb(i64* %result, i64 %arg3, i1 %arg4), !insn.addr !928
  store i64 %30, i64* %rax.0.reg2mem, !insn.addr !928
  br label %dec_label_pc_5e58, !insn.addr !928

dec_label_pc_5e58:                                ; preds = %dec_label_pc_5e1c, %dec_label_pc_5e41, %dec_label_pc_5e33
  %rax.0.reload = load i64, i64* %rax.0.reg2mem
  ret i64 %rax.0.reload, !insn.addr !929

; uselistorder directives
  uselistorder i32* %.reg2mem, { 0, 2, 1 }
  uselistorder i32* %.reg2mem8, { 0, 2, 1 }
  uselistorder i32* %.reg2mem10, { 0, 2, 1 }
  uselistorder i64* %rax.0.reg2mem, { 0, 3, 1, 2 }
  uselistorder i1 %arg4, { 1, 0, 2 }
  uselistorder i64 %arg3, { 4, 3, 5, 2, 1, 0 }
  uselistorder i32 %arg2, { 1, 2, 0, 3 }
  uselistorder label %dec_label_pc_5e58, { 1, 2, 0 }
}

define i64 @_ZN4llvm5APIntD1Ev(i64* %result) local_unnamed_addr {
dec_label_pc_5e5c:
  %rax.0.reg2mem = alloca i64, !insn.addr !930
  %0 = call i64 @_ZNK4llvm5APInt12needsCleanupEv(i64* %result), !insn.addr !931
  %1 = trunc i64 %0 to i8, !insn.addr !932
  %2 = icmp eq i8 %1, 0, !insn.addr !932
  store i64 %0, i64* %rax.0.reg2mem, !insn.addr !933
  br i1 %2, label %dec_label_pc_5e97, label %dec_label_pc_5e7c, !insn.addr !933

dec_label_pc_5e7c:                                ; preds = %dec_label_pc_5e5c
  %3 = ptrtoint i64* %result to i64
  %4 = icmp eq i64* %result, null, !insn.addr !934
  store i64 %3, i64* %rax.0.reg2mem, !insn.addr !935
  br i1 %4, label %dec_label_pc_5e97, label %dec_label_pc_5e88, !insn.addr !935

dec_label_pc_5e88:                                ; preds = %dec_label_pc_5e7c
  %5 = call i64 @_ZdaPv(i64* nonnull %result), !insn.addr !936
  store i64 %5, i64* %rax.0.reg2mem, !insn.addr !936
  br label %dec_label_pc_5e97, !insn.addr !936

dec_label_pc_5e97:                                ; preds = %dec_label_pc_5e88, %dec_label_pc_5e7c, %dec_label_pc_5e5c
  %rax.0.reload = load i64, i64* %rax.0.reg2mem
  ret i64 %rax.0.reload, !insn.addr !937

; uselistorder directives
  uselistorder i64* %result, { 0, 1, 3, 2 }
}

define i64 @_ZNK4llvm5APInt12isSingleWordEv(i64* %result) local_unnamed_addr {
dec_label_pc_5e9a:
  %0 = ptrtoint i64* %result to i64
  %1 = add i64 %0, 8, !insn.addr !938
  %2 = inttoptr i64 %1 to i32*, !insn.addr !938
  %3 = load i32, i32* %2, align 4, !insn.addr !938
  %4 = icmp ule i32 %3, ptrtoint (i128** @global_var_40 to i32)
  %5 = zext i1 %4 to i64, !insn.addr !939
  %6 = and i32 %3, -256
  %7 = zext i32 %6 to i64, !insn.addr !939
  %8 = or i64 %7, %5, !insn.addr !939
  ret i64 %8, !insn.addr !940
}

define i64 @_ZNK4llvm5APInt10isNegativeEv(i64* %result) local_unnamed_addr {
dec_label_pc_5eb6:
  %0 = ptrtoint i64* %result to i64
  %1 = add i64 %0, 8, !insn.addr !941
  %2 = inttoptr i64 %1 to i32*, !insn.addr !941
  %3 = load i32, i32* %2, align 4, !insn.addr !941
  %4 = add i32 %3, -1, !insn.addr !942
  %5 = call i64 @_ZNK4llvm5APIntixEj(i64* %result, i32 %4), !insn.addr !943
  ret i64 %5, !insn.addr !944
}

define i64 @_ZNK4llvm5APIntixEj(i64* %result, i32 %arg2) local_unnamed_addr {
dec_label_pc_5ee0:
  %0 = call i64 @_ZNK4llvm5APInt11getBitWidthEv(i64* %result), !insn.addr !945
  %1 = trunc i64 %0 to i32, !insn.addr !946
  %2 = icmp ugt i32 %1, %arg2, !insn.addr !946
  br i1 %2, label %dec_label_pc_5f2d, label %dec_label_pc_5f05, !insn.addr !947

dec_label_pc_5f05:                                ; preds = %dec_label_pc_5ee0
  %3 = call i64 @__assert_fail(i64 ptrtoint ([61 x i8]* @global_var_3058 to i64), i64 ptrtoint ([38 x i8]* @global_var_2ed0 to i64), i64 1044, i64 ptrtoint ([49 x i8]* @global_var_3020 to i64)), !insn.addr !948
  br label %dec_label_pc_5f2d, !insn.addr !948

dec_label_pc_5f2d:                                ; preds = %dec_label_pc_5f05, %dec_label_pc_5ee0
  %4 = call i64 @_ZN4llvm5APInt7maskBitEj(i32 %arg2), !insn.addr !949
  %5 = call i64 @_ZNK4llvm5APInt7getWordEj(i64* %result, i32 %arg2), !insn.addr !950
  %6 = and i64 %5, %4, !insn.addr !951
  %7 = icmp eq i64 %6, 0, !insn.addr !952
  %8 = icmp eq i1 %7, false, !insn.addr !953
  %9 = zext i1 %8 to i64, !insn.addr !953
  %10 = and i64 %6, -256, !insn.addr !953
  %11 = or i64 %10, %9, !insn.addr !953
  ret i64 %11, !insn.addr !954

; uselistorder directives
  uselistorder i64 %6, { 1, 0 }
  uselistorder i32 %arg2, { 1, 0, 2 }
}

define i64 @_ZNK4llvm5APInt11getBitWidthEv(i64* %result) local_unnamed_addr {
dec_label_pc_5f5a:
  %0 = ptrtoint i64* %result to i64
  %1 = add i64 %0, 8, !insn.addr !955
  %2 = inttoptr i64 %1 to i32*, !insn.addr !955
  %3 = load i32, i32* %2, align 4, !insn.addr !955
  %4 = zext i32 %3 to i64, !insn.addr !955
  ret i64 %4, !insn.addr !956
}

define i64 @_ZNK4llvm5APInt11getNumWordsEv(i64* %result) local_unnamed_addr {
dec_label_pc_5f70:
  %0 = ptrtoint i64* %result to i64
  %1 = add i64 %0, 8, !insn.addr !957
  %2 = inttoptr i64 %1 to i32*, !insn.addr !957
  %3 = load i32, i32* %2, align 4, !insn.addr !957
  %4 = call i64 @_ZN4llvm5APInt11getNumWordsEj(i32 %3), !insn.addr !958
  ret i64 %4, !insn.addr !959
}

define i64 @_ZN4llvm5APInt11getNumWordsEj(i32 %arg1) local_unnamed_addr {
dec_label_pc_5f90:
  %0 = zext i32 %arg1 to i64, !insn.addr !960
  %1 = add i64 %0, ptrtoint ([3 x i8]* @global_var_3f to i64), !insn.addr !961
  %2 = udiv i64 %1, 64, !insn.addr !962
  ret i64 %2, !insn.addr !963
}

define i64 @_ZNK4llvm5APInt18getSignificantBitsEv(i64* %result) local_unnamed_addr {
dec_label_pc_5fa8:
  %0 = ptrtoint i64* %result to i64
  %1 = add i64 %0, 8, !insn.addr !964
  %2 = inttoptr i64 %1 to i32*, !insn.addr !964
  %3 = load i32, i32* %2, align 4, !insn.addr !964
  %4 = call i64 @_ZNK4llvm5APInt14getNumSignBitsEv(i64* %result), !insn.addr !965
  %5 = trunc i64 %4 to i32, !insn.addr !966
  %6 = add i32 %3, 1, !insn.addr !966
  %7 = sub i32 %6, %5, !insn.addr !967
  %8 = zext i32 %7 to i64, !insn.addr !967
  ret i64 %8, !insn.addr !968
}

define i64 @_ZNK4llvm5APInt12getSExtValueEv(i64* %result) local_unnamed_addr {
dec_label_pc_5fda:
  %storemerge.reg2mem = alloca i64, !insn.addr !969
  %0 = ptrtoint i64* %result to i64
  %1 = call i64 @_ZNK4llvm5APInt12isSingleWordEv(i64* %result), !insn.addr !970
  %2 = trunc i64 %1 to i8, !insn.addr !971
  %3 = icmp eq i8 %2, 0, !insn.addr !971
  br i1 %3, label %dec_label_pc_6014, label %dec_label_pc_5ffa, !insn.addr !972

dec_label_pc_5ffa:                                ; preds = %dec_label_pc_5fda
  %4 = add i64 %0, 8, !insn.addr !973
  %5 = inttoptr i64 %4 to i32*, !insn.addr !973
  %6 = load i32, i32* %5, align 4, !insn.addr !973
  %7 = call i64 @_ZN4llvm12SignExtend64Emj(i64 %0, i32 %6), !insn.addr !974
  store i64 %7, i64* %storemerge.reg2mem, !insn.addr !975
  br label %dec_label_pc_6057, !insn.addr !975

dec_label_pc_6014:                                ; preds = %dec_label_pc_5fda
  %8 = call i64 @_ZNK4llvm5APInt18getSignificantBitsEv(i64* %result), !insn.addr !976
  %9 = trunc i64 %8 to i32, !insn.addr !977
  %10 = icmp ugt i32 %9, ptrtoint (i128** @global_var_40 to i32)
  store i64 %0, i64* %storemerge.reg2mem, !insn.addr !978
  br i1 %10, label %dec_label_pc_6025, label %dec_label_pc_6057, !insn.addr !978

dec_label_pc_6025:                                ; preds = %dec_label_pc_6014
  %11 = call i64 @__assert_fail(i64 ptrtoint ([58 x i8]* @global_var_30c8 to i64), i64 ptrtoint ([38 x i8]* @global_var_2ed0 to i64), i64 1565, i64 ptrtoint ([42 x i8]* @global_var_3098 to i64)), !insn.addr !979
  store i64 ptrtoint ([58 x i8]* @global_var_30c8 to i64), i64* %storemerge.reg2mem, !insn.addr !979
  br label %dec_label_pc_6057, !insn.addr !979

dec_label_pc_6057:                                ; preds = %dec_label_pc_6025, %dec_label_pc_6014, %dec_label_pc_5ffa
  %storemerge.reload = load i64, i64* %storemerge.reg2mem
  ret i64 %storemerge.reload, !insn.addr !980

; uselistorder directives
  uselistorder i64* %storemerge.reg2mem, { 0, 2, 1, 3 }
}

define i64 @_ZNK4llvm5APInt11countl_zeroEv(i64* %result) local_unnamed_addr {
dec_label_pc_605a:
  %storemerge.reg2mem = alloca i64, !insn.addr !981
  %0 = call i64 @_ZNK4llvm5APInt12isSingleWordEv(i64* %result), !insn.addr !982
  %1 = trunc i64 %0 to i8, !insn.addr !983
  %2 = icmp eq i8 %1, 0, !insn.addr !983
  br i1 %2, label %dec_label_pc_609f, label %dec_label_pc_607a, !insn.addr !984

dec_label_pc_607a:                                ; preds = %dec_label_pc_605a
  %3 = ptrtoint i64* %result to i64
  %4 = add i64 %3, 8, !insn.addr !985
  %5 = inttoptr i64 %4 to i32*, !insn.addr !985
  %6 = load i32, i32* %5, align 4, !insn.addr !985
  %7 = call i32 @_ZN4llvm11countl_zeroImEEiT_(i64 %3), !insn.addr !986
  %8 = sub i32 %6, ptrtoint (i128** @global_var_40 to i32)
  %9 = add i32 %8, %7, !insn.addr !987
  %10 = zext i32 %9 to i64, !insn.addr !987
  store i64 %10, i64* %storemerge.reg2mem, !insn.addr !988
  br label %dec_label_pc_60ac, !insn.addr !988

dec_label_pc_609f:                                ; preds = %dec_label_pc_605a
  %11 = call i64 @_ZNK4llvm5APInt25countLeadingZerosSlowCaseEv(i64* %result), !insn.addr !989
  store i64 %11, i64* %storemerge.reg2mem, !insn.addr !990
  br label %dec_label_pc_60ac, !insn.addr !990

dec_label_pc_60ac:                                ; preds = %dec_label_pc_609f, %dec_label_pc_607a
  %storemerge.reload = load i64, i64* %storemerge.reg2mem
  ret i64 %storemerge.reload, !insn.addr !991

; uselistorder directives
  uselistorder i64* %storemerge.reg2mem, { 0, 2, 1 }
  uselistorder i64* %result, { 0, 2, 1 }
}

define i64 @_ZNK4llvm5APInt10countl_oneEv(i64* %result) local_unnamed_addr {
dec_label_pc_60ae:
  %rax.0.reg2mem = alloca i64, !insn.addr !992
  %0 = call i64 @_ZNK4llvm5APInt12isSingleWordEv(i64* %result), !insn.addr !993
  %1 = trunc i64 %0 to i8, !insn.addr !994
  %2 = icmp eq i8 %1, 0, !insn.addr !994
  br i1 %2, label %dec_label_pc_6110, label %dec_label_pc_60ce, !insn.addr !995

dec_label_pc_60ce:                                ; preds = %dec_label_pc_60ae
  %3 = ptrtoint i64* %result to i64
  %4 = add i64 %3, 8, !insn.addr !996
  %5 = inttoptr i64 %4 to i32*, !insn.addr !996
  %6 = load i32, i32* %5, align 4, !insn.addr !996
  %7 = icmp eq i32 %6, 0, !insn.addr !997
  %8 = icmp eq i1 %7, false, !insn.addr !998
  store i64 0, i64* %rax.0.reg2mem, !insn.addr !999
  br i1 %8, label %dec_label_pc_60e9, label %dec_label_pc_611d, !insn.addr !999

dec_label_pc_60e9:                                ; preds = %dec_label_pc_60ce
  %9 = zext i32 %6 to i64
  %10 = sub nsw i64 zext (i8 ptrtoint (i128** @global_var_40 to i8) to i64), %9, !insn.addr !1000
  %11 = and i64 %10, and (i64 ptrtoint ([3 x i8]* @global_var_3f to i64), i64 255), !insn.addr !1000
  %12 = shl i64 %3, %11
  %13 = call i32 @_ZN4llvm10countl_oneImEEiT_(i64 %12), !insn.addr !1001
  %14 = sext i32 %13 to i64, !insn.addr !1001
  store i64 %14, i64* %rax.0.reg2mem, !insn.addr !1002
  br label %dec_label_pc_611d, !insn.addr !1002

dec_label_pc_6110:                                ; preds = %dec_label_pc_60ae
  %15 = call i64 @_ZNK4llvm5APInt24countLeadingOnesSlowCaseEv(i64* %result), !insn.addr !1003
  store i64 %15, i64* %rax.0.reg2mem, !insn.addr !1004
  br label %dec_label_pc_611d, !insn.addr !1004

dec_label_pc_611d:                                ; preds = %dec_label_pc_60ce, %dec_label_pc_6110, %dec_label_pc_60e9
  %rax.0.reload = load i64, i64* %rax.0.reg2mem
  ret i64 %rax.0.reload, !insn.addr !1005

; uselistorder directives
  uselistorder i64* %rax.0.reg2mem, { 0, 3, 2, 1 }
  uselistorder i64* %result, { 0, 2, 1 }
  uselistorder label %dec_label_pc_611d, { 1, 2, 0 }
}

define i64 @_ZNK4llvm5APInt14getNumSignBitsEv(i64* %result) local_unnamed_addr {
dec_label_pc_6120:
  %storemerge.reg2mem = alloca i64, !insn.addr !1006
  %0 = call i64 @_ZNK4llvm5APInt10isNegativeEv(i64* %result), !insn.addr !1007
  %1 = trunc i64 %0 to i8, !insn.addr !1008
  %2 = icmp eq i8 %1, 0, !insn.addr !1008
  br i1 %2, label %dec_label_pc_614e, label %dec_label_pc_6140, !insn.addr !1009

dec_label_pc_6140:                                ; preds = %dec_label_pc_6120
  %3 = call i64 @_ZNK4llvm5APInt10countl_oneEv(i64* %result), !insn.addr !1010
  store i64 %3, i64* %storemerge.reg2mem, !insn.addr !1011
  br label %dec_label_pc_615a, !insn.addr !1011

dec_label_pc_614e:                                ; preds = %dec_label_pc_6120
  %4 = call i64 @_ZNK4llvm5APInt11countl_zeroEv(i64* %result), !insn.addr !1012
  store i64 %4, i64* %storemerge.reg2mem, !insn.addr !1012
  br label %dec_label_pc_615a, !insn.addr !1012

dec_label_pc_615a:                                ; preds = %dec_label_pc_614e, %dec_label_pc_6140
  %storemerge.reload = load i64, i64* %storemerge.reg2mem
  ret i64 %storemerge.reload, !insn.addr !1013

; uselistorder directives
  uselistorder i64* %storemerge.reg2mem, { 0, 2, 1 }
  uselistorder i64* %result, { 1, 0, 2 }
}

define i64 @_ZNK4llvm5APInt12needsCleanupEv(i64* %result) local_unnamed_addr {
dec_label_pc_615c:
  %0 = call i64 @_ZNK4llvm5APInt12isSingleWordEv(i64* %result), !insn.addr !1014
  %1 = and i64 %0, 4294967295, !insn.addr !1015
  %2 = xor i64 %1, 1, !insn.addr !1015
  ret i64 %2, !insn.addr !1016
}

define i64 @_ZN4llvm5APInt9whichWordEj(i32 %arg1) local_unnamed_addr {
dec_label_pc_617d:
  %0 = udiv i32 %arg1, 64, !insn.addr !1017
  %1 = zext i32 %0 to i64, !insn.addr !1017
  ret i64 %1, !insn.addr !1018
}

define i64 @_ZN4llvm5APInt8whichBitEj(i32 %arg1) local_unnamed_addr {
dec_label_pc_6190:
  %0 = and i32 %arg1, ptrtoint ([3 x i8]* @global_var_3f to i32), !insn.addr !1019
  %1 = zext i32 %0 to i64, !insn.addr !1019
  ret i64 %1, !insn.addr !1020
}

define i64 @_ZN4llvm5APInt7maskBitEj(i32 %arg1) local_unnamed_addr {
dec_label_pc_61a3:
  %0 = call i64 @_ZN4llvm5APInt8whichBitEj(i32 %arg1), !insn.addr !1021
  %1 = and i64 %0, and (i64 ptrtoint ([3 x i8]* @global_var_3f to i64), i64 255), !insn.addr !1022
  %2 = shl i64 1, %1
  ret i64 %2, !insn.addr !1023
}

define i64 @_ZN4llvm5APInt15clearUnusedBitsEv(i64* %result) local_unnamed_addr {
dec_label_pc_61cc:
  %0 = ptrtoint i64* %result to i64
  %1 = add i64 %0, 8, !insn.addr !1024
  %2 = inttoptr i64 %1 to i32*, !insn.addr !1024
  %3 = load i32, i32* %2, align 4, !insn.addr !1024
  %4 = zext i32 %3 to i64
  %5 = add nuw nsw i64 %4, 255
  %6 = and i64 %5, zext (i8 ptrtoint ([3 x i8]* @global_var_3f to i8) to i64)
  %7 = sub nsw i64 zext (i8 trunc (i32 sub (i32 ptrtoint (i128** @global_var_40 to i32), i32 1) to i8) to i64), %6, !insn.addr !1025
  %8 = and i64 %7, and (i64 ptrtoint ([3 x i8]* @global_var_3f to i64), i64 255), !insn.addr !1025
  %9 = lshr i64 -1, %8
  %10 = icmp eq i32 %3, 0, !insn.addr !1026
  %11 = icmp eq i1 %10, false, !insn.addr !1027
  %spec.store.select = select i1 %11, i64 %9, i64 0
  %12 = call i64 @_ZNK4llvm5APInt12isSingleWordEv(i64* %result), !insn.addr !1028
  %13 = trunc i64 %12 to i8, !insn.addr !1029
  %14 = icmp eq i8 %13, 0, !insn.addr !1029
  br i1 %14, label %dec_label_pc_624e, label %dec_label_pc_6237, !insn.addr !1030

dec_label_pc_6237:                                ; preds = %dec_label_pc_61cc
  %15 = and i64 %spec.store.select, %0, !insn.addr !1031
  store i64 %15, i64* %result, align 8, !insn.addr !1032
  br label %dec_label_pc_6277, !insn.addr !1033

dec_label_pc_624e:                                ; preds = %dec_label_pc_61cc
  %16 = call i64 @_ZNK4llvm5APInt11getNumWordsEv(i64* %result), !insn.addr !1034
  %17 = mul i64 %16, 8, !insn.addr !1035
  %18 = add i64 %17, 34359738360, !insn.addr !1036
  %19 = and i64 %18, 34359738360, !insn.addr !1037
  %20 = add i64 %19, %0, !insn.addr !1038
  %21 = inttoptr i64 %20 to i64*, !insn.addr !1039
  %22 = load i64, i64* %21, align 8, !insn.addr !1039
  %23 = and i64 %22, %spec.store.select, !insn.addr !1040
  store i64 %23, i64* %21, align 8, !insn.addr !1041
  br label %dec_label_pc_6277, !insn.addr !1041

dec_label_pc_6277:                                ; preds = %dec_label_pc_624e, %dec_label_pc_6237
  ret i64 %0, !insn.addr !1042

; uselistorder directives
  uselistorder i64 %0, { 2, 0, 1, 3 }
  uselistorder i32 ptrtoint (i128** @global_var_40 to i32), { 1, 0, 2, 3, 4 }
}

define i64 @_ZNK4llvm5APInt7getWordEj(i64* %result, i32 %arg2) local_unnamed_addr {
dec_label_pc_6282:
  %storemerge.reg2mem = alloca i64, !insn.addr !1043
  %0 = ptrtoint i64* %result to i64
  %1 = call i64 @_ZNK4llvm5APInt12isSingleWordEv(i64* %result), !insn.addr !1044
  %2 = trunc i64 %1 to i8, !insn.addr !1045
  %3 = icmp eq i8 %2, 0, !insn.addr !1045
  store i64 %0, i64* %storemerge.reg2mem, !insn.addr !1046
  br i1 %3, label %dec_label_pc_62af, label %dec_label_pc_62cc, !insn.addr !1046

dec_label_pc_62af:                                ; preds = %dec_label_pc_6282
  %4 = call i64 @_ZN4llvm5APInt9whichWordEj(i32 %arg2), !insn.addr !1047
  %5 = mul i64 %4, 8, !insn.addr !1048
  %6 = and i64 %5, 34359738360, !insn.addr !1049
  %7 = add i64 %6, %0, !insn.addr !1050
  %8 = inttoptr i64 %7 to i64*, !insn.addr !1051
  %9 = load i64, i64* %8, align 8, !insn.addr !1051
  store i64 %9, i64* %storemerge.reg2mem, !insn.addr !1051
  br label %dec_label_pc_62cc, !insn.addr !1051

dec_label_pc_62cc:                                ; preds = %dec_label_pc_6282, %dec_label_pc_62af
  %storemerge.reload = load i64, i64* %storemerge.reg2mem
  ret i64 %storemerge.reload, !insn.addr !1052

; uselistorder directives
  uselistorder i64 %0, { 1, 0 }
  uselistorder i64* %storemerge.reg2mem, { 0, 2, 1 }
  uselistorder i64 34359738360, { 0, 2, 1 }
  uselistorder i64 (i64*)* @_ZNK4llvm5APInt12isSingleWordEv, { 6, 5, 4, 3, 2, 1, 0 }
  uselistorder label %dec_label_pc_62cc, { 1, 0 }
}

define i64 @_ZNSt11char_traitsIcE6lengthEPKc(i8* %arg1) local_unnamed_addr {
dec_label_pc_62d2:
  %storemerge.reg2mem = alloca i64, !insn.addr !1053
  %0 = call i64 @_ZSt23__is_constant_evaluatedv(), !insn.addr !1054
  %1 = trunc i64 %0 to i8, !insn.addr !1055
  %2 = icmp eq i8 %1, 0, !insn.addr !1055
  br i1 %2, label %dec_label_pc_62f9, label %dec_label_pc_62eb, !insn.addr !1056

dec_label_pc_62eb:                                ; preds = %dec_label_pc_62d2
  %3 = call i64 @_ZN9__gnu_cxx11char_traitsIcE6lengthEPKc(i8* %arg1), !insn.addr !1057
  store i64 %3, i64* %storemerge.reg2mem, !insn.addr !1058
  br label %dec_label_pc_6306, !insn.addr !1058

dec_label_pc_62f9:                                ; preds = %dec_label_pc_62d2
  %4 = ptrtoint i8* %arg1 to i64, !insn.addr !1059
  %5 = call i64 @strlen(i64 %4), !insn.addr !1060
  store i64 %5, i64* %storemerge.reg2mem, !insn.addr !1061
  br label %dec_label_pc_6306, !insn.addr !1061

dec_label_pc_6306:                                ; preds = %dec_label_pc_62f9, %dec_label_pc_62eb
  %storemerge.reload = load i64, i64* %storemerge.reg2mem
  ret i64 %storemerge.reload, !insn.addr !1062

; uselistorder directives
  uselistorder i64* %storemerge.reg2mem, { 0, 2, 1 }
}

define i64 @_ZN4llvm14DebugEpochBase14incrementEpochEv(i64* %result) local_unnamed_addr {
dec_label_pc_6310:
  %0 = alloca i64
  %1 = load i64, i64* %0
  ret i64 %1, !insn.addr !1063
}

define i64 @_ZN4llvm14DebugEpochBase10HandleBaseC1EPKS0_(i64* %result, i64* %arg2) local_unnamed_addr {
dec_label_pc_6320:
  %0 = alloca i64
  %1 = load i64, i64* %0
  ret i64 %1, !insn.addr !1064
}

define i64 @_ZNK4llvm14DebugEpochBase10HandleBase14isHandleInSyncEv(i64* %result) local_unnamed_addr {
dec_label_pc_6334:
  ret i64 1, !insn.addr !1065
}

define i64 @_ZN4llvm21PointerLikeTypeTraitsIPvE16getAsVoidPointerES1_(i64* %arg1) local_unnamed_addr {
dec_label_pc_6347:
  %0 = ptrtoint i64* %arg1 to i64
  ret i64 %0, !insn.addr !1066
}

define i64 @_ZN4llvm19SmallPtrSetImplBaseC1EPPKvj(i64* %result, i64** %arg2, i32 %arg3) local_unnamed_addr {
dec_label_pc_635a:
  %rax.0.reg2mem = alloca i64, !insn.addr !1067
  %0 = ptrtoint i64** %arg2 to i64
  %1 = ptrtoint i64* %result to i64
  store i64 %0, i64* %result, align 8, !insn.addr !1068
  %2 = add i64 %1, 8, !insn.addr !1069
  %3 = inttoptr i64 %2 to i32*, !insn.addr !1069
  store i32 %arg3, i32* %3, align 4, !insn.addr !1069
  %4 = add i64 %1, 12, !insn.addr !1070
  %5 = inttoptr i64 %4 to i32*, !insn.addr !1070
  store i32 0, i32* %5, align 4, !insn.addr !1070
  %6 = add i64 %1, 16, !insn.addr !1071
  %7 = inttoptr i64 %6 to i32*, !insn.addr !1071
  store i32 0, i32* %7, align 4, !insn.addr !1071
  %8 = add i64 %1, 20, !insn.addr !1072
  %9 = inttoptr i64 %8 to i8*, !insn.addr !1072
  store i8 1, i8* %9, align 1, !insn.addr !1072
  %10 = call i1 @_ZN4llvm14has_single_bitIjvEEbT_(i32 %arg3), !insn.addr !1073
  %11 = sext i1 %10 to i64, !insn.addr !1073
  %12 = icmp eq i1 %10, false, !insn.addr !1074
  %13 = icmp eq i1 %12, false, !insn.addr !1075
  store i64 %11, i64* %rax.0.reg2mem, !insn.addr !1075
  br i1 %13, label %dec_label_pc_63da, label %dec_label_pc_63b2, !insn.addr !1075

dec_label_pc_63b2:                                ; preds = %dec_label_pc_635a
  %14 = call i64 @__assert_fail(i64 ptrtoint ([74 x i8]* @global_var_3188 to i64), i64 ptrtoint ([44 x i8]* @global_var_3158 to i64), i64 83, i64 ptrtoint ([75 x i8]* @global_var_3108 to i64)), !insn.addr !1076
  store i64 %14, i64* %rax.0.reg2mem, !insn.addr !1076
  br label %dec_label_pc_63da, !insn.addr !1076

dec_label_pc_63da:                                ; preds = %dec_label_pc_63b2, %dec_label_pc_635a
  %rax.0.reload = load i64, i64* %rax.0.reg2mem
  ret i64 %rax.0.reload, !insn.addr !1077
}

define i64 @_ZN4llvm19SmallPtrSetImplBaseD1Ev(i64* %result) local_unnamed_addr {
dec_label_pc_63de:
  %rax.0.reg2mem = alloca i64, !insn.addr !1078
  %0 = call i64 @_ZNK4llvm19SmallPtrSetImplBase7isSmallEv(i64* %result), !insn.addr !1079
  %1 = and i64 %0, 4294967295, !insn.addr !1080
  %2 = xor i64 %1, 1, !insn.addr !1080
  %3 = trunc i64 %2 to i8, !insn.addr !1081
  %4 = icmp eq i8 %3, 0, !insn.addr !1081
  store i64 %2, i64* %rax.0.reg2mem, !insn.addr !1082
  br i1 %4, label %dec_label_pc_6410, label %dec_label_pc_6401, !insn.addr !1082

dec_label_pc_6401:                                ; preds = %dec_label_pc_63de
  %5 = ptrtoint i64* %result to i64
  %6 = call i64 @free(i64 %5), !insn.addr !1083
  store i64 %6, i64* %rax.0.reg2mem, !insn.addr !1083
  br label %dec_label_pc_6410, !insn.addr !1083

dec_label_pc_6410:                                ; preds = %dec_label_pc_6401, %dec_label_pc_63de
  %rax.0.reload = load i64, i64* %rax.0.reg2mem
  ret i64 %rax.0.reload, !insn.addr !1084

; uselistorder directives
  uselistorder i64* %result, { 1, 0 }
}

define i64 @_ZNK4llvm19SmallPtrSetImplBase5emptyEv(i64* %result) local_unnamed_addr {
dec_label_pc_6414:
  %0 = call i64 @_ZNK4llvm19SmallPtrSetImplBase4sizeEv(i64* %result), !insn.addr !1085
  %1 = trunc i64 %0 to i32, !insn.addr !1086
  %2 = icmp eq i32 %1, 0, !insn.addr !1086
  %3 = zext i1 %2 to i64, !insn.addr !1087
  %4 = and i64 %0, -256, !insn.addr !1087
  %5 = or i64 %4, %3, !insn.addr !1087
  ret i64 %5, !insn.addr !1088

; uselistorder directives
  uselistorder i64 %0, { 1, 0 }
}

define i64 @_ZNK4llvm19SmallPtrSetImplBase4sizeEv(i64* %result) local_unnamed_addr {
dec_label_pc_6438:
  %0 = ptrtoint i64* %result to i64
  %1 = add i64 %0, 12, !insn.addr !1089
  %2 = inttoptr i64 %1 to i32*, !insn.addr !1089
  %3 = load i32, i32* %2, align 4, !insn.addr !1089
  %4 = add i64 %0, 16, !insn.addr !1090
  %5 = inttoptr i64 %4 to i32*, !insn.addr !1090
  %6 = load i32, i32* %5, align 4, !insn.addr !1090
  %7 = sub i32 %3, %6, !insn.addr !1091
  %8 = zext i32 %7 to i64, !insn.addr !1092
  ret i64 %8, !insn.addr !1093
}

define i64 @_ZN4llvm19SmallPtrSetImplBase18getTombstoneMarkerEv() local_unnamed_addr {
dec_label_pc_6458:
  ret i64 -2, !insn.addr !1094
}

define i64 @_ZN4llvm19SmallPtrSetImplBase14getEmptyMarkerEv() local_unnamed_addr {
dec_label_pc_6469:
  ret i64 -1, !insn.addr !1095
}

define i64 @_ZNK4llvm19SmallPtrSetImplBase10EndPointerEv(i64* %result) local_unnamed_addr {
dec_label_pc_647a:
  %0 = ptrtoint i64* %result to i64
  %1 = call i64 @_ZNK4llvm19SmallPtrSetImplBase7isSmallEv(i64* %result), !insn.addr !1096
  %2 = trunc i64 %1 to i8, !insn.addr !1097
  %3 = icmp eq i8 %2, 0, !insn.addr !1097
  %.pn.in.in.in.in.v = select i1 %3, i64 8, i64 12
  %.pn.in.in.in.in = add i64 %.pn.in.in.in.in.v, %0
  %.pn.in.in.in = inttoptr i64 %.pn.in.in.in.in to i32*
  %.pn.in.in = load i32, i32* %.pn.in.in.in, align 4
  %.pn.in = zext i32 %.pn.in.in to i64
  %.pn = mul i64 %.pn.in, 8
  %storemerge = add i64 %.pn, %0
  ret i64 %storemerge, !insn.addr !1098
}

define i64 @_ZN4llvm19SmallPtrSetImplBase10insert_impEPKv(i64* %result, i64* %arg2) local_unnamed_addr {
dec_label_pc_64cc:
  %rax.1.reg2mem = alloca i64, !insn.addr !1099
  %rax.0.reg2mem = alloca i64, !insn.addr !1099
  %.reg2mem1 = alloca i32, !insn.addr !1099
  %.reg2mem = alloca i64, !insn.addr !1099
  %stack_var_-40 = alloca i64, align 8
  %stack_var_-56 = alloca i64, align 8
  %stack_var_-81 = alloca i8, align 1
  %stack_var_-80 = alloca i64, align 8
  %0 = call i64 @__readfsqword(i64 40), !insn.addr !1100
  %1 = call i64 @_ZNK4llvm19SmallPtrSetImplBase7isSmallEv(i64* %result), !insn.addr !1101
  %2 = trunc i64 %1 to i8, !insn.addr !1102
  %3 = icmp eq i8 %2, 0, !insn.addr !1102
  br i1 %3, label %dec_label_pc_6639, label %dec_label_pc_6503, !insn.addr !1103

dec_label_pc_6503:                                ; preds = %dec_label_pc_64cc
  %4 = ptrtoint i64* %arg2 to i64
  %5 = ptrtoint i64* %result to i64
  store i64 %5, i64* %stack_var_-80, align 8, !insn.addr !1104
  %6 = add i64 %5, 12, !insn.addr !1105
  %7 = inttoptr i64 %6 to i32*, !insn.addr !1105
  %8 = load i32, i32* %7, align 4, !insn.addr !1105
  %9 = zext i32 %8 to i64, !insn.addr !1106
  %10 = mul i64 %9, 8, !insn.addr !1107
  %11 = add i64 %10, %5, !insn.addr !1108
  %12 = icmp eq i32 %8, 0, !insn.addr !1109
  %13 = icmp eq i1 %12, false, !insn.addr !1110
  store i64 %5, i64* %.reg2mem, !insn.addr !1110
  store i32 %8, i32* %.reg2mem1, !insn.addr !1110
  br i1 %13, label %dec_label_pc_652b, label %dec_label_pc_6595, !insn.addr !1110

dec_label_pc_652b:                                ; preds = %dec_label_pc_6503, %dec_label_pc_657f
  %.reload = load i64, i64* %.reg2mem
  %14 = inttoptr i64 %.reload to i64*, !insn.addr !1111
  %15 = load i64, i64* %14, align 8, !insn.addr !1111
  %16 = icmp eq i64 %15, %4, !insn.addr !1112
  %17 = icmp eq i1 %16, false, !insn.addr !1113
  br i1 %17, label %dec_label_pc_657f, label %dec_label_pc_6540, !insn.addr !1113

dec_label_pc_6540:                                ; preds = %dec_label_pc_652b
  store i8 0, i8* %stack_var_-81, align 1, !insn.addr !1114
  %18 = bitcast i64* %stack_var_-80 to i64****, !insn.addr !1115
  %19 = bitcast i8* %stack_var_-81 to i1*, !insn.addr !1115
  %20 = call i64 @_ZSt9make_pairIRPPKvbESt4pairINSt25__strip_reference_wrapperINSt5decayIT_E4typeEE6__typeENS5_INS6_IT0_E4typeEE6__typeEEOS7_OSC_(i64**** nonnull %18, i1* nonnull %19), !insn.addr !1115
  store i64 %20, i64* %stack_var_-56, align 8, !insn.addr !1116
  %21 = call i64 @_ZNSt4pairIPKPKvbEC1IPS1_bLb1EEEOS_IT_T0_E(i64* nonnull %stack_var_-40, i64* nonnull %stack_var_-56), !insn.addr !1117
  %22 = load i64, i64* %stack_var_-40, align 8, !insn.addr !1118
  store i64 %22, i64* %rax.0.reg2mem, !insn.addr !1119
  br label %dec_label_pc_664d, !insn.addr !1119

dec_label_pc_657f:                                ; preds = %dec_label_pc_652b
  %23 = add i64 %.reload, 8, !insn.addr !1120
  store i64 %23, i64* %stack_var_-80, align 8, !insn.addr !1121
  %24 = icmp eq i64 %11, %23, !insn.addr !1109
  %25 = icmp eq i1 %24, false, !insn.addr !1110
  store i64 %23, i64* %.reg2mem, !insn.addr !1110
  br i1 %25, label %dec_label_pc_652b, label %dec_label_pc_658b.dec_label_pc_6595_crit_edge, !insn.addr !1110

dec_label_pc_658b.dec_label_pc_6595_crit_edge:    ; preds = %dec_label_pc_657f
  %.pre = load i32, i32* %7, align 4
  store i32 %.pre, i32* %.reg2mem1
  br label %dec_label_pc_6595

dec_label_pc_6595:                                ; preds = %dec_label_pc_658b.dec_label_pc_6595_crit_edge, %dec_label_pc_6503
  %.reload2 = load i32, i32* %.reg2mem1, !insn.addr !1122
  %26 = add i64 %5, 8, !insn.addr !1123
  %27 = inttoptr i64 %26 to i32*, !insn.addr !1123
  %28 = load i32, i32* %27, align 4, !insn.addr !1123
  %29 = icmp ult i32 %.reload2, %28, !insn.addr !1124
  %30 = icmp eq i1 %29, false, !insn.addr !1125
  br i1 %30, label %dec_label_pc_6639, label %dec_label_pc_65ab, !insn.addr !1125

dec_label_pc_65ab:                                ; preds = %dec_label_pc_6595
  %31 = add i32 %.reload2, 1, !insn.addr !1126
  store i32 %31, i32* %7, align 4, !insn.addr !1127
  %32 = zext i32 %.reload2 to i64, !insn.addr !1128
  %33 = mul i64 %32, 8, !insn.addr !1129
  %34 = add i64 %33, %5, !insn.addr !1130
  %35 = inttoptr i64 %34 to i64*, !insn.addr !1131
  store i64 %4, i64* %35, align 8, !insn.addr !1131
  %36 = call i64 @_ZN4llvm14DebugEpochBase14incrementEpochEv(i64* %result), !insn.addr !1132
  store i8 1, i8* %stack_var_-81, align 1, !insn.addr !1133
  %37 = load i32, i32* %7, align 4, !insn.addr !1134
  %38 = add i32 %37, -1, !insn.addr !1135
  %39 = zext i32 %38 to i64, !insn.addr !1136
  %40 = mul i64 %39, 8, !insn.addr !1137
  %41 = add i64 %40, %5, !insn.addr !1138
  store i64 %41, i64* %stack_var_-80, align 8, !insn.addr !1139
  %42 = bitcast i64* %stack_var_-80 to i64***, !insn.addr !1140
  %43 = bitcast i8* %stack_var_-81 to i1*, !insn.addr !1140
  %44 = call i64 @_ZSt9make_pairIPPKvbESt4pairINSt25__strip_reference_wrapperINSt5decayIT_E4typeEE6__typeENS4_INS5_IT0_E4typeEE6__typeEEOS6_OSB_(i64*** nonnull %42, i1* nonnull %43), !insn.addr !1140
  store i64 %44, i64* %stack_var_-56, align 8, !insn.addr !1141
  %45 = call i64 @_ZNSt4pairIPKPKvbEC1IPS1_bLb1EEEOS_IT_T0_E(i64* nonnull %stack_var_-40, i64* nonnull %stack_var_-56), !insn.addr !1142
  %46 = load i64, i64* %stack_var_-40, align 8, !insn.addr !1143
  store i64 %46, i64* %rax.0.reg2mem, !insn.addr !1144
  br label %dec_label_pc_664d, !insn.addr !1144

dec_label_pc_6639:                                ; preds = %dec_label_pc_6595, %dec_label_pc_64cc
  %47 = call i64 @_ZN4llvm19SmallPtrSetImplBase14insert_imp_bigEPKv(i64* %result, i64* %arg2), !insn.addr !1145
  store i64 %47, i64* %rax.0.reg2mem, !insn.addr !1146
  br label %dec_label_pc_664d, !insn.addr !1146

dec_label_pc_664d:                                ; preds = %dec_label_pc_6639, %dec_label_pc_6540, %dec_label_pc_65ab
  %rax.0.reload = load i64, i64* %rax.0.reg2mem
  %48 = call i64 @__readfsqword(i64 40), !insn.addr !1147
  %49 = icmp eq i64 %0, %48, !insn.addr !1147
  store i64 %rax.0.reload, i64* %rax.1.reg2mem, !insn.addr !1148
  br i1 %49, label %dec_label_pc_6661, label %dec_label_pc_665c, !insn.addr !1148

dec_label_pc_665c:                                ; preds = %dec_label_pc_664d
  %50 = call i64 @__stack_chk_fail(), !insn.addr !1149
  store i64 %50, i64* %rax.1.reg2mem, !insn.addr !1149
  br label %dec_label_pc_6661, !insn.addr !1149

dec_label_pc_6661:                                ; preds = %dec_label_pc_665c, %dec_label_pc_664d
  %rax.1.reload = load i64, i64* %rax.1.reg2mem
  ret i64 %rax.1.reload, !insn.addr !1150

; uselistorder directives
  uselistorder i32 %.reload2, { 1, 0, 2 }
  uselistorder i32* %7, { 1, 2, 0, 3 }
  uselistorder i64 %5, { 1, 2, 4, 0, 3, 5, 6 }
  uselistorder i64* %stack_var_-80, { 0, 2, 3, 1, 4 }
  uselistorder i8* %stack_var_-81, { 0, 2, 1, 3 }
  uselistorder i64* %stack_var_-56, { 0, 2, 1, 3 }
  uselistorder i64* %stack_var_-40, { 2, 0, 3, 1 }
  uselistorder i64* %.reg2mem, { 2, 0, 1 }
  uselistorder i32* %.reg2mem1, { 0, 2, 1 }
  uselistorder i64* %rax.0.reg2mem, { 0, 3, 1, 2 }
  uselistorder i64 12, { 1, 0, 3, 2 }
  uselistorder i64 (i64*)* @_ZNK4llvm19SmallPtrSetImplBase7isSmallEv, { 1, 2, 0 }
  uselistorder i64* %result, { 0, 1, 3, 2 }
  uselistorder label %dec_label_pc_664d, { 0, 2, 1 }
  uselistorder label %dec_label_pc_652b, { 1, 0 }
}

define i64 @_ZNK4llvm19SmallPtrSetImplBase7isSmallEv(i64* %result) local_unnamed_addr {
dec_label_pc_6664:
  %0 = ptrtoint i64* %result to i64
  %1 = add i64 %0, 20, !insn.addr !1151
  %2 = inttoptr i64 %1 to i8*, !insn.addr !1151
  %3 = load i8, i8* %2, align 1, !insn.addr !1151
  %4 = zext i8 %3 to i64, !insn.addr !1151
  ret i64 %4, !insn.addr !1152

; uselistorder directives
  uselistorder i64 20, { 1, 0 }
}

define i64 @_ZN4llvm23SmallPtrSetIteratorImplC1EPKPKvS4_(i64* %result, i64** %arg2, i64** %arg3) local_unnamed_addr {
dec_label_pc_667a:
  %storemerge.reg2mem = alloca i64, !insn.addr !1153
  %0 = ptrtoint i64** %arg3 to i64
  %1 = ptrtoint i64** %arg2 to i64
  %2 = ptrtoint i64* %result to i64
  store i64 %1, i64* %result, align 8, !insn.addr !1154
  %3 = add i64 %2, 8, !insn.addr !1155
  %4 = inttoptr i64 %3 to i64*, !insn.addr !1155
  store i64 %0, i64* %4, align 8, !insn.addr !1155
  %5 = call i1 @_ZN4llvm20shouldReverseIterateIPvEEbv(), !insn.addr !1156
  %6 = icmp eq i1 %5, false, !insn.addr !1157
  br i1 %6, label %dec_label_pc_66c0, label %dec_label_pc_66b2, !insn.addr !1158

dec_label_pc_66b2:                                ; preds = %dec_label_pc_667a
  %7 = call i64 @_ZN4llvm23SmallPtrSetIteratorImpl17RetreatIfNotValidEv(i64* nonnull %result), !insn.addr !1159
  store i64 %7, i64* %storemerge.reg2mem, !insn.addr !1160
  br label %dec_label_pc_66cc, !insn.addr !1160

dec_label_pc_66c0:                                ; preds = %dec_label_pc_667a
  %8 = call i64 @_ZN4llvm23SmallPtrSetIteratorImpl17AdvanceIfNotValidEv(i64* nonnull %result), !insn.addr !1161
  store i64 %8, i64* %storemerge.reg2mem, !insn.addr !1161
  br label %dec_label_pc_66cc, !insn.addr !1161

dec_label_pc_66cc:                                ; preds = %dec_label_pc_66c0, %dec_label_pc_66b2
  %storemerge.reload = load i64, i64* %storemerge.reg2mem
  ret i64 %storemerge.reload, !insn.addr !1162

; uselistorder directives
  uselistorder i64* %storemerge.reg2mem, { 0, 2, 1 }
  uselistorder i64* %result, { 1, 0, 2, 3 }
}

define i64 @_ZNK4llvm23SmallPtrSetIteratorImplneERKS0_(i64* %result, i64* %arg2) local_unnamed_addr {
dec_label_pc_66ce:
  %0 = ptrtoint i64* %arg2 to i64
  %1 = icmp eq i64* %result, %arg2, !insn.addr !1163
  %2 = icmp eq i1 %1, false, !insn.addr !1164
  %3 = zext i1 %2 to i64, !insn.addr !1164
  %4 = and i64 %0, -256, !insn.addr !1164
  %5 = or i64 %4, %3, !insn.addr !1164
  ret i64 %5, !insn.addr !1165
}

define i64 @_ZN4llvm23SmallPtrSetIteratorImpl17AdvanceIfNotValidEv(i64* %result) local_unnamed_addr {
dec_label_pc_66f4:
  %rdi.1.reg2mem = alloca i64, !insn.addr !1166
  %.reg2mem = alloca i64, !insn.addr !1166
  %rdi.0.reg2mem = alloca i64, !insn.addr !1166
  %0 = ptrtoint i64* %result to i64
  %1 = add i64 %0, 8, !insn.addr !1167
  %2 = inttoptr i64 %1 to i64*, !insn.addr !1167
  %3 = load i64, i64* %2, align 8, !insn.addr !1167
  %4 = icmp ult i64 %3, %0, !insn.addr !1168
  %5 = icmp eq i1 %4, false, !insn.addr !1169
  store i64 %3, i64* %.reg2mem, !insn.addr !1169
  store i64 %0, i64* %rdi.1.reg2mem, !insn.addr !1169
  br i1 %5, label %dec_label_pc_6753, label %dec_label_pc_6719, !insn.addr !1169

dec_label_pc_6719:                                ; preds = %dec_label_pc_66f4
  %6 = call i64 @__assert_fail(i64 ptrtoint ([14 x i8]* @global_var_3210 to i64), i64 ptrtoint ([44 x i8]* @global_var_3158 to i64), i64 298, i64 ptrtoint ([56 x i8]* @global_var_31d8 to i64)), !insn.addr !1170
  store i64 ptrtoint ([14 x i8]* @global_var_3210 to i64), i64* %rdi.0.reg2mem, !insn.addr !1170
  br label %dec_label_pc_6741, !insn.addr !1170

dec_label_pc_6741:                                ; preds = %dec_label_pc_6767, %dec_label_pc_677b, %dec_label_pc_6719
  %rdi.0.reload = load i64, i64* %rdi.0.reg2mem
  %7 = add i64 %rdi.0.reload, 8, !insn.addr !1171
  store i64 %7, i64* %result, align 8, !insn.addr !1172
  %.pre = load i64, i64* %2, align 8
  store i64 %.pre, i64* %.reg2mem, !insn.addr !1172
  store i64 %rdi.0.reload, i64* %rdi.1.reg2mem, !insn.addr !1172
  br label %dec_label_pc_6753, !insn.addr !1172

dec_label_pc_6753:                                ; preds = %dec_label_pc_6741, %dec_label_pc_66f4
  %rdi.1.reload = load i64, i64* %rdi.1.reg2mem
  %.reload = load i64, i64* %.reg2mem, !insn.addr !1173
  %8 = icmp eq i64 %rdi.1.reload, %.reload, !insn.addr !1174
  br i1 %8, label %dec_label_pc_679f, label %dec_label_pc_6767, !insn.addr !1175

dec_label_pc_6767:                                ; preds = %dec_label_pc_6753
  %9 = call i64 @_ZN4llvm19SmallPtrSetImplBase14getEmptyMarkerEv(), !insn.addr !1176
  %10 = icmp eq i64 %rdi.1.reload, %9, !insn.addr !1177
  store i64 %rdi.1.reload, i64* %rdi.0.reg2mem, !insn.addr !1178
  br i1 %10, label %dec_label_pc_6741, label %dec_label_pc_677b, !insn.addr !1178

dec_label_pc_677b:                                ; preds = %dec_label_pc_6767
  %11 = call i64 @_ZN4llvm19SmallPtrSetImplBase18getTombstoneMarkerEv(), !insn.addr !1179
  %12 = icmp eq i64 %rdi.1.reload, %11, !insn.addr !1180
  %13 = icmp eq i1 %12, false, !insn.addr !1181
  store i64 %rdi.1.reload, i64* %rdi.0.reg2mem, !insn.addr !1181
  br i1 %13, label %dec_label_pc_679f, label %dec_label_pc_6741, !insn.addr !1181

dec_label_pc_679f:                                ; preds = %dec_label_pc_677b, %dec_label_pc_6753
  ret i64 0, !insn.addr !1182

; uselistorder directives
  uselistorder i64 %rdi.1.reload, { 3, 2, 4, 0, 1 }
  uselistorder i64 %0, { 0, 2, 1 }
  uselistorder i64* %rdi.0.reg2mem, { 2, 1, 0, 3 }
  uselistorder label %dec_label_pc_6741, { 1, 0, 2 }
}

define i64 @_ZN4llvm23SmallPtrSetIteratorImpl17RetreatIfNotValidEv(i64* %result) local_unnamed_addr {
dec_label_pc_67a8:
  %rdi.1.reg2mem = alloca i64, !insn.addr !1183
  %.reg2mem = alloca i64, !insn.addr !1183
  %rdi.0.reg2mem = alloca i64, !insn.addr !1183
  %0 = ptrtoint i64* %result to i64
  %1 = add i64 %0, 8, !insn.addr !1184
  %2 = inttoptr i64 %1 to i64*, !insn.addr !1184
  %3 = load i64, i64* %2, align 8, !insn.addr !1184
  %4 = icmp ugt i64 %3, %0, !insn.addr !1185
  %5 = icmp eq i1 %4, false, !insn.addr !1186
  store i64 %3, i64* %.reg2mem, !insn.addr !1186
  store i64 %0, i64* %rdi.1.reg2mem, !insn.addr !1186
  br i1 %5, label %dec_label_pc_6807, label %dec_label_pc_67cd, !insn.addr !1186

dec_label_pc_67cd:                                ; preds = %dec_label_pc_67a8
  %6 = call i64 @__assert_fail(i64 ptrtoint ([14 x i8]* @global_var_3258 to i64), i64 ptrtoint ([44 x i8]* @global_var_3158 to i64), i64 305, i64 ptrtoint ([56 x i8]* @global_var_3220 to i64)), !insn.addr !1187
  store i64 ptrtoint ([14 x i8]* @global_var_3258 to i64), i64* %rdi.0.reg2mem, !insn.addr !1187
  br label %dec_label_pc_67f5, !insn.addr !1187

dec_label_pc_67f5:                                ; preds = %dec_label_pc_681b, %dec_label_pc_6833, %dec_label_pc_67cd
  %rdi.0.reload = load i64, i64* %rdi.0.reg2mem
  %7 = add i64 %rdi.0.reload, -8, !insn.addr !1188
  store i64 %7, i64* %result, align 8, !insn.addr !1189
  %.pre = load i64, i64* %2, align 8
  store i64 %.pre, i64* %.reg2mem, !insn.addr !1189
  store i64 %rdi.0.reload, i64* %rdi.1.reg2mem, !insn.addr !1189
  br label %dec_label_pc_6807, !insn.addr !1189

dec_label_pc_6807:                                ; preds = %dec_label_pc_67f5, %dec_label_pc_67a8
  %rdi.1.reload = load i64, i64* %rdi.1.reg2mem
  %.reload = load i64, i64* %.reg2mem, !insn.addr !1190
  %8 = icmp eq i64 %rdi.1.reload, %.reload, !insn.addr !1191
  br i1 %8, label %dec_label_pc_685b, label %dec_label_pc_681b, !insn.addr !1192

dec_label_pc_681b:                                ; preds = %dec_label_pc_6807
  %9 = add i64 %rdi.1.reload, -8, !insn.addr !1193
